
E02_uart_demo.elf:     file format elf32-littleriscv
E02_uart_demo.elf
architecture: riscv:rv32, flags 0x00000112:
EXEC_P, HAS_SYMS, D_PAGED
start address 0x00000000

Program Header:
    LOAD off    0x00001000 vaddr 0x00000000 paddr 0x00000000 align 2**12
         filesz 0x0000b3d4 memsz 0x0000b3d4 flags r-x
    LOAD off    0x0000d000 vaddr 0x20000000 paddr 0x0000b3d4 align 2**12
         filesz 0x00000270 memsz 0x00000360 flags rw-
    LOAD off    0x0000d800 vaddr 0x2000f800 paddr 0x2000f800 align 2**12
         filesz 0x00000000 memsz 0x00000800 flags rw-

Sections:
Idx Name           Size      VMA       LMA       File off  Algn  Flags
  0 .init          00000038  00000000  00000000  00001000  2**1  CONTENTS, ALLOC, LOAD, READONLY, CODE
  1 .vector        000001c8  00000038  00000038  00001038  2**1  CONTENTS, ALLOC, LOAD, READONLY, CODE
  2 .text          0000b1d4  00000200  00000200  00001200  2**3  CONTENTS, ALLOC, LOAD, READONLY, CODE
  3 .fini          00000000  0000b3d4  0000b3d4  0000d270  2**0  CONTENTS, ALLOC, LOAD, CODE
  4 .dalign        00000000  20000000  20000000  0000d270  2**0  CONTENTS
  5 .dlalign       00000000  0000b3d4  0000b3d4  0000d270  2**0  CONTENTS
  6 .data          00000270  20000000  0000b3d4  0000d000  2**2  CONTENTS, ALLOC, LOAD, DATA
  7 .bss           000000f0  20000270  0000b644  0000d270  2**2  ALLOC
  8 .stack         00000800  2000f800  2000f800  0000d800  2**0  ALLOC
  9 .debug_info    0000fe1c  00000000  00000000  0000d270  2**0  CONTENTS, READONLY, DEBUGGING
 10 .debug_abbrev  000024a4  00000000  00000000  0001d08c  2**0  CONTENTS, READONLY, DEBUGGING
 11 .debug_aranges 00000ab0  00000000  00000000  0001f530  2**3  CONTENTS, READONLY, DEBUGGING
 12 .debug_ranges  000009a8  00000000  00000000  0001ffe0  2**3  CONTENTS, READONLY, DEBUGGING
 13 .debug_line    0000b5cb  00000000  00000000  00020988  2**0  CONTENTS, READONLY, DEBUGGING
 14 .debug_str     0000480a  00000000  00000000  0002bf53  2**0  CONTENTS, READONLY, DEBUGGING
 15 .comment       00000033  00000000  00000000  0003075d  2**0  CONTENTS, READONLY
 16 .debug_frame   000048dc  00000000  00000000  00030790  2**2  CONTENTS, READONLY, DEBUGGING
 17 .stab          00000084  00000000  00000000  0003506c  2**2  CONTENTS, READONLY, DEBUGGING
 18 .stabstr       00000117  00000000  00000000  000350f0  2**0  CONTENTS, READONLY, DEBUGGING
SYMBOL TABLE:
00000000 l    d  .init	00000000 .init
00000038 l    d  .vector	00000000 .vector
00000200 l    d  .text	00000000 .text
0000b3d4 l    d  .fini	00000000 .fini
20000000 l    d  .dalign	00000000 .dalign
0000b3d4 l    d  .dlalign	00000000 .dlalign
20000000 l    d  .data	00000000 .data
20000270 l    d  .bss	00000000 .bss
2000f800 l    d  .stack	00000000 .stack
00000000 l    d  .debug_info	00000000 .debug_info
00000000 l    d  .debug_abbrev	00000000 .debug_abbrev
00000000 l    d  .debug_aranges	00000000 .debug_aranges
00000000 l    d  .debug_ranges	00000000 .debug_ranges
00000000 l    d  .debug_line	00000000 .debug_line
00000000 l    d  .debug_str	00000000 .debug_str
00000000 l    d  .comment	00000000 .comment
00000000 l    d  .debug_frame	00000000 .debug_frame
00000000 l    d  .stab	00000000 .stab
00000000 l    d  .stabstr	00000000 .stabstr
00000000 l    df *ABS*	00000000 ./sdk/Startup/startup_ch32v30x_D8C.o
00000038 l       .vector	00000000 _vector_base
00000000 l    df *ABS*	00000000 zf_driver_delay.c
00000000 l    df *ABS*	00000000 zf_driver_gpio.c
00000000 l    df *ABS*	00000000 zf_driver_uart.c
00000000 l    df *ABS*	00000000 zf_device_type.c
00000cb2 l     F .text	0000000e type_default_callback
00000000 l    df *ABS*	00000000 zf_common_clock.c
00000000 l    df *ABS*	00000000 zf_common_debug.c
00000f3e l     F .text	00000010 __NOP
200002ac l     O .bss	00000014 debug_output_info
20000270 l     O .bss	00000001 zf_debug_init_flag
20000248 l     O .data	00000001 zf_debug_assert_enable
00000f4e l     F .text	00000052 debug_delay
00000fa0 l     F .text	0000000e debug_protective_handler
00000fae l     F .text	0000052c debug_output
20000271 l     O .bss	00000001 assert_nest_index.5017
00000000 l    df *ABS*	00000000 zf_common_fifo.c
000015b8 l     F .text	0000004e fifo_head_offset
00001606 l     F .text	0000004e fifo_end_offset
00000000 l    df *ABS*	00000000 zf_common_interrupt.c
00001cf4 l     F .text	00000018 __enable_irq
00001d0c l     F .text	00000014 __disable_irq
00001d20 l     F .text	00000032 NVIC_EnableIRQ
00001d52 l     F .text	00000032 NVIC_DisableIRQ
00001d84 l     F .text	0000002a NVIC_SetPriority
20000274 l     O .bss	00000004 interrupt_nest_count
00000000 l    df *ABS*	00000000 isr.c
00000000 l    df *ABS*	00000000 main.c
00000000 l    df *ABS*	00000000 ch32v30x_exti.c
00000000 l    df *ABS*	00000000 ch32v30x_gpio.c
00000000 l    df *ABS*	00000000 ch32v30x_rcc.c
20000014 l     O .data	00000010 APBAHBPrescTable
2000024c l     O .data	00000004 ADCPrescTable
00000000 l    df *ABS*	00000000 ch32v30x_tim.c
00000000 l    df *ABS*	00000000 ch32v30x_usart.c
00000000 l    df *ABS*	00000000 ch32v30x_usbotg_device.c
00000000 l    df *ABS*	00000000 adddf3.c
00000000 l    df *ABS*	00000000 divdf3.c
00000000 l    df *ABS*	00000000 eqdf2.c
00000000 l    df *ABS*	00000000 gedf2.c
00000000 l    df *ABS*	00000000 ledf2.c
00000000 l    df *ABS*	00000000 muldf3.c
00000000 l    df *ABS*	00000000 subdf3.c
00000000 l    df *ABS*	00000000 unorddf2.c
00000000 l    df *ABS*	00000000 fixdfsi.c
00000000 l    df *ABS*	00000000 floatsidf.c
00000000 l    df *ABS*	00000000 floatunsidf.c
00000000 l    df *ABS*	00000000 libgcc2.c
00000000 l    df *ABS*	00000000 memcpy.c
00000000 l    df *ABS*	00000000 nano-vfprintf_float.c
00000000 l    df *ABS*	00000000 nano-vfprintf_i.c
00000000 l    df *ABS*	00000000 printf.c
00000000 l    df *ABS*	00000000 sprintf.c
00000000 l    df *ABS*	00000000 strlen.c
00000000 l    df *ABS*	00000000 dtoa.c
000081f0 l     F .text	0000013a quorem
00000000 l    df *ABS*	00000000 findfp.c
00008f14 l     F .text	0000006a std
00000000 l    df *ABS*	00000000 fwalk.c
00000000 l    df *ABS*	00000000 localeconv.c
00000000 l    df *ABS*	00000000 malloc.c
00000000 l    df *ABS*	00000000 memchr.c
00000000 l    df *ABS*	00000000 mprec.c
0000b2a0 l     O .text	0000000c p05.3321
00000000 l    df *ABS*	00000000 nano-mallocr.c
00000000 l    df *ABS*	00000000 nano-mallocr.c
00000000 l    df *ABS*	00000000 nano-mallocr.c
00000000 l    df *ABS*	00000000 nano-vfprintf.c
00000000 l    df *ABS*	00000000 nano-vfprintf.c
00009d8c l     F .text	00000028 __sfputc_r
00000000 l    df *ABS*	00000000 sbrkr.c
00000000 l    df *ABS*	00000000 stdio.c
00000000 l    df *ABS*	00000000 wbuf.c
00000000 l    df *ABS*	00000000 writer.c
00000000 l    df *ABS*	00000000 wsetup.c
00000000 l    df *ABS*	00000000 closer.c
00000000 l    df *ABS*	00000000 fflush.c
00000000 l    df *ABS*	00000000 lseekr.c
00000000 l    df *ABS*	00000000 makebuf.c
00000000 l    df *ABS*	00000000 mbtowc_r.c
00000000 l    df *ABS*	00000000 memmove.c
00000000 l    df *ABS*	00000000 mlock.c
00000000 l    df *ABS*	00000000 nano-mallocr.c
00000000 l    df *ABS*	00000000 readr.c
00000000 l    df *ABS*	00000000 wctomb_r.c
00000000 l    df *ABS*	00000000 fstatr.c
00000000 l    df *ABS*	00000000 isattyr.c
00000000 l    df *ABS*	00000000 nano-mallocr.c
00000000 l    df *ABS*	00000000 trunctfdf2.c
00000000 l    df *ABS*	00000000 close.c
00000000 l    df *ABS*	00000000 fstat.c
00000000 l    df *ABS*	00000000 isatty.c
00000000 l    df *ABS*	00000000 lseek.c
00000000 l    df *ABS*	00000000 read.c
00000000 l    df *ABS*	00000000 sbrk.c
200002a8 l     O .bss	00000004 heap_end.1520
00000000 l    df *ABS*	00000000 libgcc2.c
00000000 l    df *ABS*	00000000 locale.c
00000000 l    df *ABS*	00000000 ctype_.c
00000000 l    df *ABS*	00000000 impure.c
20000068 l     O .data	00000060 impure_data
00000000 l    df *ABS*	00000000 reent.c
0000a7ec g     F .text	00000014 _malloc_usable_size_r
00007760 g     F .text	000000ee __cvt
000026de g     F .text	000000b4 EXTI2_IRQHandler
00003412  w      .text	00000000 TIM8_TRG_COM_IRQHandler
00003414  w      .text	00000000 TIM8_CC_IRQHandler
00001556 g     F .text	00000062 debug_assert_handler
000006ae g     F .text	0000005e uart_query_byte
2000029a g     O .bss	00000001 USBHD_Dev_SleepStatus
0000a7c4 g     F .text	00000028 _isatty_r
000040d2 g     F .text	0000003e DevEP1_IN_Deal
0000a54a g     F .text	0000002c _lseek_r
000023e6 g     F .text	000000bc UART8_IRQHandler
00006124 g     F .text	00000098 .hidden __eqdf2
00008156 g     F .text	00000042 printf
20000a38 g       .data	00000000 __global_pointer$
000033ee  w      .text	00000000 TIM1_CC_IRQHandler
0000034a g     F .text	0000006a gpio_toggle_level
0000a13e g     F .text	00000036 __sseek
00008fd0 g     F .text	0000006c __sinit
0000a17a g     F .text	000000c2 __swbuf_r
00001696 g     F .text	000002f0 fifo_write_buffer
000032b6 g     F .text	00000008 HardFault_Handler
00008f88 g     F .text	00000048 __sfmoreglue
0000a6f4 g     F .text	00000002 __malloc_unlock
20000238 g     O .data	00000004 camera_uart_handler
00002ef6 g     F .text	000000b8 TIM6_IRQHandler
000033b4  w      .text	00000000 SysTick_Handler
000033ba  w      .text	00000000 PVD_IRQHandler
0000341a  w      .text	00000000 SDIO_IRQHandler
0000a6a8 g     F .text	0000004a memmove
0000344c  w      .text	00000000 TIM9_BRK_IRQHandler
00003460  w      .text	00000000 DMA2_Channel8_IRQHandler
000032a6 g     F .text	00000010 NMI_Handler
00009186 g     F .text	00000088 _Balloc
0000343a  w      .text	00000000 CAN2_RX1_IRQHandler
00002792 g     F .text	000000b4 EXTI3_IRQHandler
000061bc g     F .text	000000b6 .hidden __gtdf2
00003442  w      .text	00000000 USBHS_IRQHandler
20000278 g     O .bss	00000001 get_data
00003f3c g     F .text	00000046 USART_GetFlagStatus
00003462  w      .text	00000000 DMA2_Channel9_IRQHandler
0000a79a g     F .text	0000002a _fstat_r
0000ae20 g     O .text	00000014 MyReportDescHD
0000345a  w      .text	00000000 TIM10_CC_IRQHandler
2000035c g     O .bss	00000004 errno
20000024 g     O .data	00000043 TAB_USB_FS_OSC_DESC
20000270 g       .bss	00000000 _sbss
00000800 g       *ABS*	00000000 __stack_size
00001986 g     F .text	000002d8 fifo_read_buffer
2000029b g     O .bss	00000001 DevConfig
00001dca g     F .text	0000001c interrupt_disable
000076aa g     F .text	000000b6 memcpy
20000260 g     O .data	00000008 uart_irq
00008f7e g     F .text	0000000a _cleanup_r
00009b0e g     F .text	0000027e _svfprintf_r
0000755e g     F .text	00000070 .hidden __floatsidf
00006272 g     F .text	000000b6 .hidden __ltdf2
00002576 g     F .text	000000b4 EXTI0_IRQHandler
000033fa  w      .text	00000000 I2C2_EV_IRQHandler
00003458  w      .text	00000000 TIM10_TRG_COM_IRQHandler
2000029e g     O .bss	00000002 SetupReqLen
0000ae50 g     O .text	00000016 MySerNumInfoHD
00009160 g     F .text	0000000c malloc
0000abdc g     F .text	0000000c _fstat
0000b1d8 g     O .text	000000c8 __mprec_tens
00000038 g       .init	00000000 _einit
00001c5e g     F .text	00000096 fifo_init
00003b88 g     F .text	0000002e TIM_ClearITPendingBit
0000ae68 g     O .text	0000000a MyUSBQUADescHD
00001e68 g     F .text	00000016 interrupt_init
00003a8c g     F .text	00000046 RCC_APB2PeriphClockCmd
0000343c  w      .text	00000000 CAN2_SCE_IRQHandler
000033dc  w      .text	00000000 ADC1_2_IRQHandler
00003564 g     F .text	0000022a GPIO_Init
000033b2  w      .text	00000000 Break_Point_Handler
2000029c g     O .bss	00000001 SetupReqCode
00009148 g     F .text	00000018 _localeconv_r
0000939a g     F .text	0000001c __i2b
000033fe  w      .text	00000000 SPI1_IRQHandler
00003dea g     F .text	00000060 USART_Cmd
0000a096 g     F .text	0000002a _sbrk_r
000033bc  w      .text	00000000 TAMPER_IRQHandler
0000a74e g     F .text	0000002c _read_r
00004084 g     F .text	0000004e USART_ClearITPendingBit
00003438  w      .text	00000000 CAN2_RX0_IRQHandler
0000306e g     F .text	000000c0 TIM8_UP_IRQHandler
00003ad2 g     F .text	00000046 RCC_APB1PeriphClockCmd
00004f2c g     F .text	00000a0e .hidden __adddf3
000033ae  w      .text	00000000 Ecall_M_Mode_Handler
00003380 g     F .text	0000002a uart_rx_interrupt_handler
0000abe8 g     F .text	0000000c _isatty
2000026c g     O .data	00000004 _global_impure_ptr
0000a6f6 g     F .text	00000058 _realloc_r
0000342a  w      .text	00000000 DMA2_Channel2_IRQHandler
000033d4  w      .text	00000000 DMA1_Channel4_IRQHandler
0000b1b0 g     O .text	00000028 __mprec_bigtens
000075ce g     F .text	00000066 .hidden __floatunsidf
0000ac0c g     F .text	00000020 _sbrk
00009686 g     F .text	00000032 __mcmp
0000312e g     F .text	000000c0 TIM9_UP_IRQHandler
00002006 g     F .text	000000c8 USART3_IRQHandler
00003544 g     F .text	00000020 EXTI_ClearITPendingBit
000033be  w      .text	00000000 RTC_IRQHandler
20000360 g       .bss	00000000 _ebss
00003f82 g     F .text	00000102 USART_GetITStatus
000033da  w      .text	00000000 DMA1_Channel7_IRQHandler
0000ae44 g     O .text	0000000c MyProdInfoHD
000092ea g     F .text	00000046 __hi0bits
000033e2  w      .text	00000000 CAN1_RX1_IRQHandler
00007486 g     F .text	000000d8 .hidden __fixdfsi
2000027c g     O .bss	00000004 fifo_data_count
000024a2 g     F .text	000000d4 DVP_IRQHandler
00002192 g     F .text	000000c6 UART5_IRQHandler
20000294 g     O .bss	00000004 pDescr
000002a8 g     F .text	000000a2 system_delay_ms
20000268 g     O .data	00000004 MyLangDescrHD
20000244 g     O .data	00000004 system_clock
00002d76 g     F .text	000000c0 TIM4_IRQHandler
00006272 g     F .text	000000b6 .hidden __ledf2
0000378e g     F .text	00000038 GPIO_WriteBit
00000f14 g     F .text	0000002a clock_init
00003428  w      .text	00000000 DMA2_Channel1_IRQHandler
000094fa g     F .text	000000be __pow5mult
0000b150 g     O .text	00000020 __sf_fake_stderr
00000cc0 g     F .text	00000076 clock_reset
20000360 g       .bss	00000000 end
20000254 g     O .data	00000007 LineCoding
000033f6  w      .text	00000000 I2C1_EV_IRQHandler
00009a20 g     F .text	000000ee __ssputs_r
00003b18 g     F .text	00000070 TIM_GetITStatus
20000340 g     O .bss	0000001c uart_data_fifo
000037c6 g     F .text	000002c6 RCC_GetClocksFreq
000033d8  w      .text	00000000 DMA1_Channel6_IRQHandler
00007634 g     F .text	00000076 .hidden __clzsi2
00009db4 g     F .text	00000044 __sfputs_r
0000070c g     F .text	000005a6 uart_init
000020ce g     F .text	000000c4 UART4_IRQHandler
0000342e  w      .text	00000000 DMA2_Channel4_IRQHandler
0000916c g     F .text	0000001a memchr
000078da  w    F .text	000004c4 _printf_float
00003bb6 g     F .text	00000234 USART_Init
000098a4 g     F .text	000000a8 _free_r
00002cb6 g     F .text	000000c0 TIM3_IRQHandler
000033c2  w      .text	00000000 RCC_IRQHandler
000033ec  w      .text	00000000 TIM1_TRG_COM_IRQHandler
000033ce  w      .text	00000000 DMA1_Channel1_IRQHandler
00000000 g       .init	00000000 _start
0000345e  w      .text	00000000 DMA2_Channel7_IRQHandler
0000abf4 g     F .text	0000000c _lseek
000095b8 g     F .text	000000ce __lshift
00002a12 g     F .text	00000124 EXTI15_10_IRQHandler
0000062a g     F .text	00000084 uart_rx_interrupt
00003e4a g     F .text	000000c4 USART_ITConfig
20000290 g     O .bss	00000004 pEP2_RAM_Addr
20000240 g     O .data	00000004 wireless_module_uart_handler
000093b6 g     F .text	00000144 __multiply
000097aa g     F .text	000000d4 __d2b
00002fae g     F .text	000000c0 TIM7_IRQHandler
0000a37a g     F .text	0000002a _close_r
00003436  w      .text	00000000 CAN2_TX_IRQHandler
20000000 g       .dalign	00000000 _data_vma
00002e36 g     F .text	000000c0 TIM5_IRQHandler
000041b2 g     F .text	00000064 DevEP2_OUT_Deal
200002c0 g     O .bss	00000040 uart_get_data
0000a26a g     F .text	00000110 __swsetup_r
000028fa g     F .text	00000118 EXTI9_5_IRQHandler
0000593a g     F .text	000007ea .hidden __divdf3
0000903c g     F .text	000000a0 __sfp
00006328 g     F .text	00000656 .hidden __muldf3
0000a0c0 g     F .text	00000030 __sread
00003434  w      .text	00000000 ETH_WKUP_IRQHandler
0000414e g     F .text	00000064 DevEP1_OUT_Deal
0000a6f2 g     F .text	00000002 __malloc_lock
0000a4e2 g     F .text	00000068 _fflush_r
0000987e g     F .text	00000026 _calloc_r
000034ee g     F .text	00000056 EXTI_GetITStatus
20000288 g     O .bss	00000004 pEP0_RAM_Addr
00003400  w      .text	00000000 SPI2_IRQHandler
0000b170 g     O .text	00000020 __sf_fake_stdin
0000adc8 g     O .text	00000012 MyDevDescrHD
00000200 g     F .text	000000a8 memset
000032be g     F .text	000000c2 main
00003454  w      .text	00000000 TIM10_BRK_IRQHandler
00003452  w      .text	00000000 TIM9_CC_IRQHandler
0000a174 g     F .text	00000006 __sclose
00003430  w      .text	00000000 DMA2_Channel5_IRQHandler
20000250 g     O .data	00000001 USBHD_Dev_Speed
0000832a g     F .text	00000bea _dtoa_r
0000994c g     F .text	000000d4 _malloc_r
0000a77a g     F .text	00000020 __ascii_wctomb
0000ae34 g     O .text	0000000e MyManuInfoHD
000033d6  w      .text	00000000 DMA1_Channel5_IRQHandler
0000ada8 g     O .text	00000020 uart_index
00002846 g     F .text	000000b4 EXTI4_IRQHandler
000033e0  w      .text	00000000 USB_LP_CAN1_RX0_IRQHandler
00000d36 g     F .text	000001de clock_set_freq
00003416  w      .text	00000000 RNG_IRQHandler
00001de6 g     F .text	00000028 interrupt_set_priority
00006124 g     F .text	00000098 .hidden __nedf2
00008156 g     F .text	00000042 iprintf
20000280 g     O .bss	00000008 EP0_DatabufHD
000033de  w      .text	00000000 USB_HP_CAN1_TX_IRQHandler
00008198 g     F .text	00000046 sprintf
0000afb0 g     O .text	00000100 .hidden __clz_tab
0000784e g     F .text	0000008c __exponent
00000000 g       .init	00000000 _sinit
00004110 g     F .text	0000003e DevEP2_IN_Deal
0000a23c g     F .text	0000002e _write_r
000033d2  w      .text	00000000 DMA1_Channel3_IRQHandler
00003418  w      .text	00000000 FSMC_IRQHandler
00003432  w      .text	00000000 ETH_IRQHandler
00007d9e g     F .text	0000010c _printf_common
2000025c g     O .data	00000004 _impure_ptr
00002b36 g     F .text	000000c0 TIM1_UP_IRQHandler
0000a3a4 g     F .text	0000013e __sflush_r
00009b0e g     F .text	0000027e _svfiprintf_r
000033b8  w      .text	00000000 WWDG_IRQHandler
00003440  w      .text	00000000 USBHSWakeup_IRQHandler
00003466  w      .text	00000000 DMA2_Channel11_IRQHandler
0000a66e g     F .text	0000003a __ascii_mbtowc
000033b0  w      .text	00000000 Ecall_U_Mode_Handler
0000345c  w      .text	00000000 DMA2_Channel6_IRQHandler
00002bf6 g     F .text	000000c0 TIM2_IRQHandler
20010000 g       .stack	00000000 _eusrstack
000033b6  w      .text	00000000 SW_Handler
0000addc g     O .text	00000043 MyCfgDescrHD
000033e8  w      .text	00000000 TIM1_BRK_IRQHandler
0000a576 g     F .text	00000058 __swhatbuf_r
00003f0e g     F .text	0000002e USART_SendData
00003464  w      .text	00000000 DMA2_Channel10_IRQHandler
0000262a g     F .text	000000b4 EXTI1_IRQHandler
000014da g     F .text	0000007c _write
20000270 g       .data	00000000 _edata
20000298 g     O .bss	00000002 USBHD_Dev_SetupReqLen
0000340a  w      .text	00000000 RTCAlarm_IRQHandler
0000b3d4 g       .dlalign	00000000 _data_lma
000031ee g     F .text	000000b8 TIM10_UP_IRQHandler
00003450  w      .text	00000000 TIM9_TRG_COM_IRQHandler
0000231c g     F .text	000000ca UART7_IRQHandler
00001f42 g     F .text	000000c4 USART2_IRQHandler
00002258 g     F .text	000000c4 UART6_IRQHandler
0000a0f0 g     F .text	0000004e __swrite
00009df8 g     F .text	0000029e _vfiprintf_r
000090dc g     F .text	0000006c _fwalk_reent
000096b8 g     F .text	000000f2 __mdiff
00001e0e g     F .text	00000030 interrupt_global_enable
000033fc  w      .text	00000000 I2C2_ER_IRQHandler
000033d0  w      .text	00000000 DMA1_Channel2_IRQHandler
0000b190 g     O .text	00000020 __sf_fake_stdout
00008198 g     F .text	00000046 siprintf
0000340e  w      .text	00000000 TIM8_BRK_IRQHandler
0000b2d0 g     O .text	00000101 _ctype_
0000ac00 g     F .text	0000000c _read
0000740a g     F .text	0000007c .hidden __unorddf2
00003468  w      .text	00000000 handle_reset
000033e4  w      .text	00000000 CAN1_SCE_IRQHandler
20000000 g     O .data	00000014 gpio_group
000033c0  w      .text	00000000 FLASH_IRQHandler
00001e7e g     F .text	000000c4 USART1_IRQHandler
0000a5ce g     F .text	000000a0 __smakebuf_r
00000566 g     F .text	00000064 uart_write_buffer
00001dae g     F .text	0000001c interrupt_enable
000005ca g     F .text	00000060 uart_write_string
000081de g     F .text	00000012 strlen
00004216 g     F .text	00000d16 OTG_FS_IRQHandler
00007eaa g     F .text	000002ac _printf_i
0000341e  w      .text	00000000 SPI3_IRQHandler
2000023c g     O .data	00000004 camera_dvp_handler
00001654 g     F .text	00000042 fifo_used
000061bc g     F .text	000000b6 .hidden __gedf2
200002a4 g     O .bss	00000004 __malloc_sbrk_start
000033f8  w      .text	00000000 I2C1_ER_IRQHandler
000003b4 g     F .text	0000015c gpio_init
200002a0 g     O .bss	00000004 __malloc_free_list
0000697e g     F .text	00000a8c .hidden __subdf3
00009df8 g     F .text	0000029e _vfprintf_r
00009330 g     F .text	0000006a __lo0bits
2000028c g     O .bss	00000004 pEP1_RAM_Addr
20000300 g     O .bss	00000040 fifo_get_data
200000c8 g     O .data	0000016c __global_locale
0000340c  w      .text	00000000 USBWakeUp_IRQHandler
0000a800 g     F .text	000003d0 .hidden __trunctfdf2
0000abd0 g     F .text	0000000c _close
0000342c  w      .text	00000000 DMA2_Channel3_IRQHandler
00009252 g     F .text	00000098 __multadd
00001e3e g     F .text	0000002a interrupt_global_disable
0000920e g     F .text	00000044 _Bfree
00000510 g     F .text	00000056 uart_write_byte



Disassembly of section .init:

00000000 <_sinit>:
_start():
E:/wch307/CHV307_Library-master/Example/libraries/sdk/Startup/startup_ch32v30x_D8C.S:15

	.section	.init,"ax",@progbits
	.global	_start
	.align	1
_start:
	j	handle_reset
   0:	4680306f          	j	3468 <handle_reset>
   4:	00000013          	nop
   8:	00000013          	nop
   c:	00000013          	nop
  10:	00000013          	nop
  14:	00000013          	nop
  18:	00000013          	nop
  1c:	00000013          	nop
  20:	00000013          	nop
  24:	00000013          	nop
  28:	00000013          	nop
  2c:	00000013          	nop
  30:	00000013          	nop
  34:	00100073          	ebreak

Disassembly of section .vector:

00000038 <_vector_base>:
	...
_vector_base():
  40:	32a6                	fld	ft5,104(sp)
  42:	0000                	unimp
  44:	32b6                	fld	ft5,360(sp)
  46:	0000                	unimp
  48:	0000                	unimp
  4a:	0000                	unimp
  4c:	33ae                	fld	ft7,232(sp)
	...
  56:	0000                	unimp
  58:	33b0                	fld	fa2,96(a5)
  5a:	0000                	unimp
  5c:	33b2                	fld	ft7,296(sp)
	...
  66:	0000                	unimp
  68:	33b4                	fld	fa3,96(a5)
  6a:	0000                	unimp
  6c:	0000                	unimp
  6e:	0000                	unimp
  70:	33b6                	fld	ft7,360(sp)
  72:	0000                	unimp
  74:	0000                	unimp
  76:	0000                	unimp
  78:	33b8                	fld	fa4,96(a5)
  7a:	0000                	unimp
  7c:	33ba                	fld	ft7,424(sp)
  7e:	0000                	unimp
  80:	33bc                	fld	fa5,96(a5)
  82:	0000                	unimp
  84:	33be                	fld	ft7,488(sp)
  86:	0000                	unimp
  88:	33c0                	fld	fs0,160(a5)
  8a:	0000                	unimp
  8c:	33c2                	fld	ft7,48(sp)
  8e:	0000                	unimp
  90:	2576                	fld	fa0,344(sp)
  92:	0000                	unimp
  94:	262a                	fld	fa2,136(sp)
  96:	0000                	unimp
  98:	26de                	fld	fa3,464(sp)
  9a:	0000                	unimp
  9c:	2792                	fld	fa5,256(sp)
  9e:	0000                	unimp
  a0:	2846                	fld	fa6,80(sp)
  a2:	0000                	unimp
  a4:	33ce                	fld	ft7,240(sp)
  a6:	0000                	unimp
  a8:	33d0                	fld	fa2,160(a5)
  aa:	0000                	unimp
  ac:	33d2                	fld	ft7,304(sp)
  ae:	0000                	unimp
  b0:	33d4                	fld	fa3,160(a5)
  b2:	0000                	unimp
  b4:	33d6                	fld	ft7,368(sp)
  b6:	0000                	unimp
  b8:	33d8                	fld	fa4,160(a5)
  ba:	0000                	unimp
  bc:	33da                	fld	ft7,432(sp)
  be:	0000                	unimp
  c0:	33dc                	fld	fa5,160(a5)
  c2:	0000                	unimp
  c4:	33de                	fld	ft7,496(sp)
  c6:	0000                	unimp
  c8:	33e0                	fld	fs0,224(a5)
  ca:	0000                	unimp
  cc:	33e2                	fld	ft7,56(sp)
  ce:	0000                	unimp
  d0:	33e4                	fld	fs1,224(a5)
  d2:	0000                	unimp
  d4:	28fa                	fld	fa7,408(sp)
  d6:	0000                	unimp
  d8:	33e8                	fld	fa0,224(a5)
  da:	0000                	unimp
  dc:	2b36                	fld	fs6,328(sp)
  de:	0000                	unimp
  e0:	33ec                	fld	fa1,224(a5)
  e2:	0000                	unimp
  e4:	33ee                	fld	ft7,248(sp)
  e6:	0000                	unimp
  e8:	2bf6                	fld	fs7,344(sp)
  ea:	0000                	unimp
  ec:	2cb6                	fld	fs9,328(sp)
  ee:	0000                	unimp
  f0:	2d76                	fld	fs10,344(sp)
  f2:	0000                	unimp
  f4:	33f6                	fld	ft7,376(sp)
  f6:	0000                	unimp
  f8:	33f8                	fld	fa4,224(a5)
  fa:	0000                	unimp
  fc:	33fa                	fld	ft7,440(sp)
  fe:	0000                	unimp
 100:	33fc                	fld	fa5,224(a5)
 102:	0000                	unimp
 104:	33fe                	fld	ft7,504(sp)
 106:	0000                	unimp
 108:	3400                	fld	fs0,40(s0)
 10a:	0000                	unimp
 10c:	1e7e                	slli	t3,t3,0x3f
 10e:	0000                	unimp
 110:	1f42                	slli	t5,t5,0x30
 112:	0000                	unimp
 114:	2006                	fld	ft0,64(sp)
 116:	0000                	unimp
 118:	2a12                	fld	fs4,256(sp)
 11a:	0000                	unimp
 11c:	340a                	fld	fs0,160(sp)
 11e:	0000                	unimp
 120:	340c                	fld	fa1,40(s0)
 122:	0000                	unimp
 124:	340e                	fld	fs0,224(sp)
 126:	0000                	unimp
 128:	306e                	fld	ft0,248(sp)
 12a:	0000                	unimp
 12c:	3412                	fld	fs0,288(sp)
 12e:	0000                	unimp
 130:	3414                	fld	fa3,40(s0)
 132:	0000                	unimp
 134:	3416                	fld	fs0,352(sp)
 136:	0000                	unimp
 138:	3418                	fld	fa4,40(s0)
 13a:	0000                	unimp
 13c:	341a                	fld	fs0,416(sp)
 13e:	0000                	unimp
 140:	2e36                	fld	ft8,328(sp)
 142:	0000                	unimp
 144:	341e                	fld	fs0,480(sp)
 146:	0000                	unimp
 148:	20ce                	fld	ft1,208(sp)
 14a:	0000                	unimp
 14c:	2192                	fld	ft3,256(sp)
 14e:	0000                	unimp
 150:	2ef6                	fld	ft9,344(sp)
 152:	0000                	unimp
 154:	2fae                	fld	ft11,200(sp)
 156:	0000                	unimp
 158:	3428                	fld	fa0,104(s0)
 15a:	0000                	unimp
 15c:	342a                	fld	fs0,168(sp)
 15e:	0000                	unimp
 160:	342c                	fld	fa1,104(s0)
 162:	0000                	unimp
 164:	342e                	fld	fs0,232(sp)
 166:	0000                	unimp
 168:	3430                	fld	fa2,104(s0)
 16a:	0000                	unimp
 16c:	3432                	fld	fs0,296(sp)
 16e:	0000                	unimp
 170:	3434                	fld	fa3,104(s0)
 172:	0000                	unimp
 174:	3436                	fld	fs0,360(sp)
 176:	0000                	unimp
 178:	3438                	fld	fa4,104(s0)
 17a:	0000                	unimp
 17c:	343a                	fld	fs0,424(sp)
 17e:	0000                	unimp
 180:	343c                	fld	fa5,104(s0)
 182:	0000                	unimp
 184:	4216                	lw	tp,68(sp)
 186:	0000                	unimp
 188:	3440                	fld	fs0,168(s0)
 18a:	0000                	unimp
 18c:	3442                	fld	fs0,48(sp)
 18e:	0000                	unimp
 190:	24a2                	fld	fs1,8(sp)
 192:	0000                	unimp
 194:	2258                	fld	fa4,128(a2)
 196:	0000                	unimp
 198:	231c                	fld	fa5,0(a4)
 19a:	0000                	unimp
 19c:	23e6                	fld	ft7,88(sp)
 19e:	0000                	unimp
 1a0:	344c                	fld	fa1,168(s0)
 1a2:	0000                	unimp
 1a4:	312e                	fld	ft2,232(sp)
 1a6:	0000                	unimp
 1a8:	3450                	fld	fa2,168(s0)
 1aa:	0000                	unimp
 1ac:	3452                	fld	fs0,304(sp)
 1ae:	0000                	unimp
 1b0:	3454                	fld	fa3,168(s0)
 1b2:	0000                	unimp
 1b4:	31ee                	fld	ft3,248(sp)
 1b6:	0000                	unimp
 1b8:	3458                	fld	fa4,168(s0)
 1ba:	0000                	unimp
 1bc:	345a                	fld	fs0,432(sp)
 1be:	0000                	unimp
 1c0:	345c                	fld	fa5,168(s0)
 1c2:	0000                	unimp
 1c4:	345e                	fld	fs0,496(sp)
 1c6:	0000                	unimp
 1c8:	3460                	fld	fs0,232(s0)
 1ca:	0000                	unimp
 1cc:	3462                	fld	fs0,56(sp)
 1ce:	0000                	unimp
 1d0:	3464                	fld	fs1,232(s0)
 1d2:	0000                	unimp
 1d4:	3466                	fld	fs0,120(sp)
	...

Disassembly of section .text:

00000200 <memset>:
memset():
     200:	433d                	li	t1,15
     202:	872a                	mv	a4,a0
     204:	02c37363          	bgeu	t1,a2,22a <memset+0x2a>
     208:	00f77793          	andi	a5,a4,15
     20c:	efbd                	bnez	a5,28a <memset+0x8a>
     20e:	e5ad                	bnez	a1,278 <memset+0x78>
     210:	ff067693          	andi	a3,a2,-16
     214:	8a3d                	andi	a2,a2,15
     216:	96ba                	add	a3,a3,a4
     218:	c30c                	sw	a1,0(a4)
     21a:	c34c                	sw	a1,4(a4)
     21c:	c70c                	sw	a1,8(a4)
     21e:	c74c                	sw	a1,12(a4)
     220:	0741                	addi	a4,a4,16
     222:	fed76be3          	bltu	a4,a3,218 <memset+0x18>
     226:	e211                	bnez	a2,22a <memset+0x2a>
     228:	8082                	ret
     22a:	40c306b3          	sub	a3,t1,a2
     22e:	068a                	slli	a3,a3,0x2
     230:	00000297          	auipc	t0,0x0
     234:	9696                	add	a3,a3,t0
     236:	00a68067          	jr	10(a3)
     23a:	00b70723          	sb	a1,14(a4)
     23e:	00b706a3          	sb	a1,13(a4)
     242:	00b70623          	sb	a1,12(a4)
     246:	00b705a3          	sb	a1,11(a4)
     24a:	00b70523          	sb	a1,10(a4)
     24e:	00b704a3          	sb	a1,9(a4)
     252:	00b70423          	sb	a1,8(a4)
     256:	00b703a3          	sb	a1,7(a4)
     25a:	00b70323          	sb	a1,6(a4)
     25e:	00b702a3          	sb	a1,5(a4)
     262:	00b70223          	sb	a1,4(a4)
     266:	00b701a3          	sb	a1,3(a4)
     26a:	00b70123          	sb	a1,2(a4)
     26e:	00b700a3          	sb	a1,1(a4)
     272:	00b70023          	sb	a1,0(a4)
     276:	8082                	ret
     278:	0ff5f593          	andi	a1,a1,255
     27c:	00859693          	slli	a3,a1,0x8
     280:	8dd5                	or	a1,a1,a3
     282:	01059693          	slli	a3,a1,0x10
     286:	8dd5                	or	a1,a1,a3
     288:	b761                	j	210 <memset+0x10>
     28a:	00279693          	slli	a3,a5,0x2
     28e:	00000297          	auipc	t0,0x0
     292:	9696                	add	a3,a3,t0
     294:	8286                	mv	t0,ra
     296:	fa8680e7          	jalr	-88(a3)
     29a:	8096                	mv	ra,t0
     29c:	17c1                	addi	a5,a5,-16
     29e:	8f1d                	sub	a4,a4,a5
     2a0:	963e                	add	a2,a2,a5
     2a2:	f8c374e3          	bgeu	t1,a2,22a <memset+0x2a>
     2a6:	b7a5                	j	20e <memset+0xe>

000002a8 <system_delay_ms>:
system_delay_ms():
E:/wch307/CHV307_Library-master/Example/libraries/zf_driver/zf_driver_delay.c:50
// 返回参数     void
// 使用示例     system_delay_ms(100);
// 备注信息
//-------------------------------------------------------------------------------------------------------------------
void system_delay_ms (uint32 num)
{
     2a8:	1101                	addi	sp,sp,-32
     2aa:	ce22                	sw	s0,28(sp)
     2ac:	1000                	addi	s0,sp,32
     2ae:	fea42623          	sw	a0,-20(s0)
E:/wch307/CHV307_Library-master/Example/libraries/zf_driver/zf_driver_delay.c:51
    SysTick->SR &= ~(1 << 0);
     2b2:	e000f537          	lui	a0,0xe000f
     2b6:	00452883          	lw	a7,4(a0) # e000f004 <_eusrstack+0xbffff004>
     2ba:	e000f537          	lui	a0,0xe000f
     2be:	ffe8f893          	andi	a7,a7,-2
     2c2:	01152223          	sw	a7,4(a0) # e000f004 <_eusrstack+0xbffff004>
E:/wch307/CHV307_Library-master/Example/libraries/zf_driver/zf_driver_delay.c:54


    SysTick->CMP = (uint64_t)(system_clock/8000) * num;
     2c6:	80c1a883          	lw	a7,-2036(gp) # 20000244 <system_clock>
     2ca:	6509                	lui	a0,0x2
     2cc:	f4050513          	addi	a0,a0,-192 # 1f40 <USART1_IRQHandler+0xc2>
     2d0:	02a8d533          	divu	a0,a7,a0
     2d4:	86aa                	mv	a3,a0
     2d6:	4701                	li	a4,0
     2d8:	fec42503          	lw	a0,-20(s0)
     2dc:	87aa                	mv	a5,a0
     2de:	4801                	li	a6,0
     2e0:	e000f537          	lui	a0,0xe000f
     2e4:	02f70333          	mul	t1,a4,a5
     2e8:	02d808b3          	mul	a7,a6,a3
     2ec:	989a                	add	a7,a7,t1
     2ee:	02f68333          	mul	t1,a3,a5
     2f2:	02f6b633          	mulhu	a2,a3,a5
     2f6:	859a                	mv	a1,t1
     2f8:	00c887b3          	add	a5,a7,a2
     2fc:	863e                	mv	a2,a5
     2fe:	c90c                	sw	a1,16(a0)
     300:	c950                	sw	a2,20(a0)
E:/wch307/CHV307_Library-master/Example/libraries/zf_driver/zf_driver_delay.c:55
    SysTick->CTLR |= (1 << 4);
     302:	e000f7b7          	lui	a5,0xe000f
     306:	4398                	lw	a4,0(a5)
     308:	e000f7b7          	lui	a5,0xe000f
     30c:	01076713          	ori	a4,a4,16
     310:	c398                	sw	a4,0(a5)
E:/wch307/CHV307_Library-master/Example/libraries/zf_driver/zf_driver_delay.c:56
    SysTick->CTLR |= (1 << 5) | (1 << 0);
     312:	e000f7b7          	lui	a5,0xe000f
     316:	4398                	lw	a4,0(a5)
     318:	e000f7b7          	lui	a5,0xe000f
     31c:	02176713          	ori	a4,a4,33
     320:	c398                	sw	a4,0(a5)
E:/wch307/CHV307_Library-master/Example/libraries/zf_driver/zf_driver_delay.c:58

    while((SysTick->SR & (1 << 0)) != (1 << 0));
     322:	0001                	nop
E:/wch307/CHV307_Library-master/Example/libraries/zf_driver/zf_driver_delay.c:58 (discriminator 1)
     324:	e000f7b7          	lui	a5,0xe000f
     328:	43dc                	lw	a5,4(a5)
     32a:	0017f713          	andi	a4,a5,1
     32e:	4785                	li	a5,1
     330:	fef71ae3          	bne	a4,a5,324 <system_delay_ms+0x7c>
E:/wch307/CHV307_Library-master/Example/libraries/zf_driver/zf_driver_delay.c:60

    SysTick->CTLR &= ~(1 << 0);
     334:	e000f7b7          	lui	a5,0xe000f
     338:	4398                	lw	a4,0(a5)
     33a:	e000f7b7          	lui	a5,0xe000f
     33e:	9b79                	andi	a4,a4,-2
     340:	c398                	sw	a4,0(a5)
E:/wch307/CHV307_Library-master/Example/libraries/zf_driver/zf_driver_delay.c:61
}
     342:	0001                	nop
     344:	4472                	lw	s0,28(sp)
     346:	6105                	addi	sp,sp,32
     348:	8082                	ret

0000034a <gpio_toggle_level>:
gpio_toggle_level():
E:/wch307/CHV307_Library-master/Example/libraries/zf_driver/zf_driver_gpio.c:79
// 参数说明     pin         选择的引脚 (可选择范围由 common.h 内GPIO_PIN_enum枚举值确定)
// 返回参数     void        
// 使用示例     gpio_toggle_level(D5);//D5引脚电平翻转
//-------------------------------------------------------------------------------------------------------------------
void gpio_toggle_level(gpio_pin_enum pin)
{
     34a:	7179                	addi	sp,sp,-48
     34c:	d622                	sw	s0,44(sp)
     34e:	1800                	addi	s0,sp,48
     350:	fca42e23          	sw	a0,-36(s0)
E:/wch307/CHV307_Library-master/Example/libraries/zf_driver/zf_driver_gpio.c:80
    uint8 io_group = (pin & 0xE0) >> 5;
     354:	fdc42783          	lw	a5,-36(s0)
     358:	8395                	srli	a5,a5,0x5
     35a:	0ff7f793          	andi	a5,a5,255
     35e:	8b9d                	andi	a5,a5,7
     360:	fef407a3          	sb	a5,-17(s0)
E:/wch307/CHV307_Library-master/Example/libraries/zf_driver/zf_driver_gpio.c:81
    uint8 io_pin = pin & 0x1F;
     364:	fdc42783          	lw	a5,-36(s0)
     368:	0ff7f793          	andi	a5,a5,255
     36c:	8bfd                	andi	a5,a5,31
     36e:	fef40723          	sb	a5,-18(s0)
E:/wch307/CHV307_Library-master/Example/libraries/zf_driver/zf_driver_gpio.c:83

    ((gpio_group[io_group]))->OUTDR ^= (uint16)(1 << io_pin);
     372:	fef44703          	lbu	a4,-17(s0)
     376:	200007b7          	lui	a5,0x20000
     37a:	070a                	slli	a4,a4,0x2
     37c:	00078793          	mv	a5,a5
     380:	97ba                	add	a5,a5,a4
     382:	439c                	lw	a5,0(a5)
     384:	47d8                	lw	a4,12(a5)
     386:	fee44783          	lbu	a5,-18(s0)
     38a:	4685                	li	a3,1
     38c:	00f697b3          	sll	a5,a3,a5
     390:	07c2                	slli	a5,a5,0x10
     392:	83c1                	srli	a5,a5,0x10
     394:	863e                	mv	a2,a5
     396:	fef44683          	lbu	a3,-17(s0)
     39a:	200007b7          	lui	a5,0x20000
     39e:	068a                	slli	a3,a3,0x2
     3a0:	00078793          	mv	a5,a5
     3a4:	97b6                	add	a5,a5,a3
     3a6:	439c                	lw	a5,0(a5)
     3a8:	8f31                	xor	a4,a4,a2
     3aa:	c7d8                	sw	a4,12(a5)
E:/wch307/CHV307_Library-master/Example/libraries/zf_driver/zf_driver_gpio.c:84
}
     3ac:	0001                	nop
     3ae:	5432                	lw	s0,44(sp)
     3b0:	6145                	addi	sp,sp,48
     3b2:	8082                	ret

000003b4 <gpio_init>:
gpio_init():
E:/wch307/CHV307_Library-master/Example/libraries/zf_driver/zf_driver_gpio.c:126
// 参数说明     pinconf     引脚配置（可设置参数由zf_gpio.h文件内GPIOSPEED_enum与GPIOMODE_enum枚举值确定，多个条件使用 | 相或）
// 返回参数     void
// 使用示例     gpio_init(D0, GPO, 1, GPIO_PIN_CONFIG);//D0初始化为GPIO功能、输出模式、输出高电平、速度100MHZ 推挽输出
//-------------------------------------------------------------------------------------------------------------------
void gpio_init (gpio_pin_enum pin, gpio_dir_enum dir, const uint8 dat, gpio_mode_enum mode)
{
     3b4:	7179                	addi	sp,sp,-48
     3b6:	d606                	sw	ra,44(sp)
     3b8:	d422                	sw	s0,40(sp)
     3ba:	1800                	addi	s0,sp,48
     3bc:	fca42e23          	sw	a0,-36(s0)
     3c0:	fcb42c23          	sw	a1,-40(s0)
     3c4:	87b2                	mv	a5,a2
     3c6:	fcd42823          	sw	a3,-48(s0)
     3ca:	fcf40ba3          	sb	a5,-41(s0)
E:/wch307/CHV307_Library-master/Example/libraries/zf_driver/zf_driver_gpio.c:127
    GPIO_InitTypeDef GPIO_InitStructure = {0};
     3ce:	fe042023          	sw	zero,-32(s0)
     3d2:	fe042223          	sw	zero,-28(s0)
     3d6:	fe042423          	sw	zero,-24(s0)
E:/wch307/CHV307_Library-master/Example/libraries/zf_driver/zf_driver_gpio.c:128
    uint8 io_group = (pin & 0xE0) >> 5;
     3da:	fdc42783          	lw	a5,-36(s0)
     3de:	8395                	srli	a5,a5,0x5
     3e0:	0ff7f793          	andi	a5,a5,255
     3e4:	8b9d                	andi	a5,a5,7
     3e6:	fef407a3          	sb	a5,-17(s0)
E:/wch307/CHV307_Library-master/Example/libraries/zf_driver/zf_driver_gpio.c:129
    uint8 io_pin = pin & 0x1F;
     3ea:	fdc42783          	lw	a5,-36(s0)
     3ee:	0ff7f793          	andi	a5,a5,255
     3f2:	8bfd                	andi	a5,a5,31
     3f4:	fef40723          	sb	a5,-18(s0)
E:/wch307/CHV307_Library-master/Example/libraries/zf_driver/zf_driver_gpio.c:132

    // GPIO总线使能
    if(0 == io_group)      RCC_APB2PeriphClockCmd(RCC_APB2Periph_GPIOA, ENABLE);
     3f8:	fef44783          	lbu	a5,-17(s0)
     3fc:	e791                	bnez	a5,408 <gpio_init+0x54>
E:/wch307/CHV307_Library-master/Example/libraries/zf_driver/zf_driver_gpio.c:132 (discriminator 1)
     3fe:	4585                	li	a1,1
     400:	4511                	li	a0,4
     402:	68a030ef          	jal	ra,3a8c <RCC_APB2PeriphClockCmd>
     406:	a891                	j	45a <gpio_init+0xa6>
E:/wch307/CHV307_Library-master/Example/libraries/zf_driver/zf_driver_gpio.c:133
    else if(1 == io_group) RCC_APB2PeriphClockCmd(RCC_APB2Periph_GPIOB, ENABLE);
     408:	fef44703          	lbu	a4,-17(s0)
     40c:	4785                	li	a5,1
     40e:	00f71763          	bne	a4,a5,41c <gpio_init+0x68>
E:/wch307/CHV307_Library-master/Example/libraries/zf_driver/zf_driver_gpio.c:133 (discriminator 1)
     412:	4585                	li	a1,1
     414:	4521                	li	a0,8
     416:	676030ef          	jal	ra,3a8c <RCC_APB2PeriphClockCmd>
     41a:	a081                	j	45a <gpio_init+0xa6>
E:/wch307/CHV307_Library-master/Example/libraries/zf_driver/zf_driver_gpio.c:134
    else if(2 == io_group) RCC_APB2PeriphClockCmd(RCC_APB2Periph_GPIOC, ENABLE);
     41c:	fef44703          	lbu	a4,-17(s0)
     420:	4789                	li	a5,2
     422:	00f71763          	bne	a4,a5,430 <gpio_init+0x7c>
E:/wch307/CHV307_Library-master/Example/libraries/zf_driver/zf_driver_gpio.c:134 (discriminator 1)
     426:	4585                	li	a1,1
     428:	4541                	li	a0,16
     42a:	662030ef          	jal	ra,3a8c <RCC_APB2PeriphClockCmd>
     42e:	a035                	j	45a <gpio_init+0xa6>
E:/wch307/CHV307_Library-master/Example/libraries/zf_driver/zf_driver_gpio.c:135
    else if(3 == io_group) RCC_APB2PeriphClockCmd(RCC_APB2Periph_GPIOD, ENABLE);
     430:	fef44703          	lbu	a4,-17(s0)
     434:	478d                	li	a5,3
     436:	00f71863          	bne	a4,a5,446 <gpio_init+0x92>
E:/wch307/CHV307_Library-master/Example/libraries/zf_driver/zf_driver_gpio.c:135 (discriminator 1)
     43a:	4585                	li	a1,1
     43c:	02000513          	li	a0,32
     440:	64c030ef          	jal	ra,3a8c <RCC_APB2PeriphClockCmd>
     444:	a819                	j	45a <gpio_init+0xa6>
E:/wch307/CHV307_Library-master/Example/libraries/zf_driver/zf_driver_gpio.c:136
    else if(4 == io_group) RCC_APB2PeriphClockCmd(RCC_APB2Periph_GPIOE, ENABLE);
     446:	fef44703          	lbu	a4,-17(s0)
     44a:	4791                	li	a5,4
     44c:	00f71763          	bne	a4,a5,45a <gpio_init+0xa6>
E:/wch307/CHV307_Library-master/Example/libraries/zf_driver/zf_driver_gpio.c:136 (discriminator 1)
     450:	4585                	li	a1,1
     452:	04000513          	li	a0,64
     456:	636030ef          	jal	ra,3a8c <RCC_APB2PeriphClockCmd>
E:/wch307/CHV307_Library-master/Example/libraries/zf_driver/zf_driver_gpio.c:139

    // 设置引脚号
    GPIO_InitStructure.GPIO_Pin = (uint16)(1 << io_pin);
     45a:	fee44783          	lbu	a5,-18(s0)
     45e:	4705                	li	a4,1
     460:	00f717b3          	sll	a5,a4,a5
     464:	07c2                	slli	a5,a5,0x10
     466:	83c1                	srli	a5,a5,0x10
     468:	fef41023          	sh	a5,-32(s0)
E:/wch307/CHV307_Library-master/Example/libraries/zf_driver/zf_driver_gpio.c:142

    // 只有输出需要设置速度
    if(GPO == dir)
     46c:	fd842703          	lw	a4,-40(s0)
     470:	4785                	li	a5,1
     472:	02f71763          	bne	a4,a5,4a0 <gpio_init+0xec>
E:/wch307/CHV307_Library-master/Example/libraries/zf_driver/zf_driver_gpio.c:144
    {
        if((uint16)mode >> 8 == 0) GPIO_InitStructure.GPIO_Speed = (GPIOSpeed_TypeDef)(GPIO_Speed_50MHz);    // 防止没有填写这个参数,默认设置50Mhz
     476:	fd042783          	lw	a5,-48(s0)
     47a:	07c2                	slli	a5,a5,0x10
     47c:	83c1                	srli	a5,a5,0x10
     47e:	83a1                	srli	a5,a5,0x8
     480:	07c2                	slli	a5,a5,0x10
     482:	83c1                	srli	a5,a5,0x10
     484:	e789                	bnez	a5,48e <gpio_init+0xda>
E:/wch307/CHV307_Library-master/Example/libraries/zf_driver/zf_driver_gpio.c:144 (discriminator 1)
     486:	478d                	li	a5,3
     488:	fef42223          	sw	a5,-28(s0)
     48c:	a811                	j	4a0 <gpio_init+0xec>
E:/wch307/CHV307_Library-master/Example/libraries/zf_driver/zf_driver_gpio.c:145
        else GPIO_InitStructure.GPIO_Speed = (gpio_speed_enum)((uint16)mode >> 8);                           // 已经填写了该参数。根据值来设置
     48e:	fd042783          	lw	a5,-48(s0)
     492:	07c2                	slli	a5,a5,0x10
     494:	83c1                	srli	a5,a5,0x10
     496:	83a1                	srli	a5,a5,0x8
     498:	07c2                	slli	a5,a5,0x10
     49a:	83c1                	srli	a5,a5,0x10
     49c:	fef42223          	sw	a5,-28(s0)
E:/wch307/CHV307_Library-master/Example/libraries/zf_driver/zf_driver_gpio.c:149
    }

    // 设置模式
    GPIO_InitStructure.GPIO_Mode = (GPIOMode_TypeDef)((uint16)mode & 0xFF);
     4a0:	fd042783          	lw	a5,-48(s0)
     4a4:	07c2                	slli	a5,a5,0x10
     4a6:	83c1                	srli	a5,a5,0x10
     4a8:	0ff7f793          	andi	a5,a5,255
     4ac:	fef42423          	sw	a5,-24(s0)
E:/wch307/CHV307_Library-master/Example/libraries/zf_driver/zf_driver_gpio.c:150
    GPIO_Init(gpio_group[io_group], &GPIO_InitStructure);
     4b0:	fef44703          	lbu	a4,-17(s0)
     4b4:	200007b7          	lui	a5,0x20000
     4b8:	070a                	slli	a4,a4,0x2
     4ba:	00078793          	mv	a5,a5
     4be:	97ba                	add	a5,a5,a4
     4c0:	439c                	lw	a5,0(a5)
     4c2:	fe040713          	addi	a4,s0,-32
     4c6:	85ba                	mv	a1,a4
     4c8:	853e                	mv	a0,a5
     4ca:	09a030ef          	jal	ra,3564 <GPIO_Init>
E:/wch307/CHV307_Library-master/Example/libraries/zf_driver/zf_driver_gpio.c:153

    // 只有输出需要设置引脚状态
    if(GPO == dir)
     4ce:	fd842703          	lw	a4,-40(s0)
     4d2:	4785                	li	a5,1
     4d4:	02f71963          	bne	a4,a5,506 <gpio_init+0x152>
E:/wch307/CHV307_Library-master/Example/libraries/zf_driver/zf_driver_gpio.c:155
    {
        GPIO_WriteBit(gpio_group[io_group], (uint16)(1 << io_pin), dat);
     4d8:	fef44703          	lbu	a4,-17(s0)
     4dc:	200007b7          	lui	a5,0x20000
     4e0:	070a                	slli	a4,a4,0x2
     4e2:	00078793          	mv	a5,a5
     4e6:	97ba                	add	a5,a5,a4
     4e8:	4394                	lw	a3,0(a5)
     4ea:	fee44783          	lbu	a5,-18(s0)
     4ee:	4705                	li	a4,1
     4f0:	00f717b3          	sll	a5,a4,a5
     4f4:	07c2                	slli	a5,a5,0x10
     4f6:	83c1                	srli	a5,a5,0x10
     4f8:	fd744703          	lbu	a4,-41(s0)
     4fc:	863a                	mv	a2,a4
     4fe:	85be                	mv	a1,a5
     500:	8536                	mv	a0,a3
     502:	28c030ef          	jal	ra,378e <GPIO_WriteBit>
E:/wch307/CHV307_Library-master/Example/libraries/zf_driver/zf_driver_gpio.c:157
    }
}
     506:	0001                	nop
     508:	50b2                	lw	ra,44(sp)
     50a:	5422                	lw	s0,40(sp)
     50c:	6145                	addi	sp,sp,48
     50e:	8082                	ret

00000510 <uart_write_byte>:
uart_write_byte():
E:/wch307/CHV307_Library-master/Example/libraries/zf_driver/zf_driver_uart.c:50
// 参数说明     dat         串口数据
// 返回参数     void
// 使用示例     uart_write_byte(UART_1, 0x43);        //串口1发送0x43。
//-------------------------------------------------------------------------------------------------------------------
void uart_write_byte(uart_index_enum uartn, const uint8 dat)
{
     510:	1101                	addi	sp,sp,-32
     512:	ce22                	sw	s0,28(sp)
     514:	1000                	addi	s0,sp,32
     516:	fea42623          	sw	a0,-20(s0)
     51a:	87ae                	mv	a5,a1
     51c:	fef405a3          	sb	a5,-21(s0)
E:/wch307/CHV307_Library-master/Example/libraries/zf_driver/zf_driver_uart.c:51
    while((((USART_TypeDef*)uart_index[uartn])->STATR & USART_FLAG_TXE)==0);
     520:	0001                	nop
E:/wch307/CHV307_Library-master/Example/libraries/zf_driver/zf_driver_uart.c:51 (discriminator 1)
     522:	67ad                	lui	a5,0xb
     524:	fec42703          	lw	a4,-20(s0)
     528:	070a                	slli	a4,a4,0x2
     52a:	da878793          	addi	a5,a5,-600 # ada8 <uart_index>
     52e:	97ba                	add	a5,a5,a4
     530:	439c                	lw	a5,0(a5)
     532:	0007d783          	lhu	a5,0(a5)
     536:	07c2                	slli	a5,a5,0x10
     538:	83c1                	srli	a5,a5,0x10
     53a:	0807f793          	andi	a5,a5,128
     53e:	d3f5                	beqz	a5,522 <uart_write_byte+0x12>
E:/wch307/CHV307_Library-master/Example/libraries/zf_driver/zf_driver_uart.c:52
    ((USART_TypeDef*)uart_index[uartn])->DATAR = dat;
     540:	67ad                	lui	a5,0xb
     542:	fec42703          	lw	a4,-20(s0)
     546:	070a                	slli	a4,a4,0x2
     548:	da878793          	addi	a5,a5,-600 # ada8 <uart_index>
     54c:	97ba                	add	a5,a5,a4
     54e:	439c                	lw	a5,0(a5)
     550:	873e                	mv	a4,a5
     552:	feb44783          	lbu	a5,-21(s0)
     556:	07c2                	slli	a5,a5,0x10
     558:	83c1                	srli	a5,a5,0x10
     55a:	00f71223          	sh	a5,4(a4)
E:/wch307/CHV307_Library-master/Example/libraries/zf_driver/zf_driver_uart.c:53
}
     55e:	0001                	nop
     560:	4472                	lw	s0,28(sp)
     562:	6105                	addi	sp,sp,32
     564:	8082                	ret

00000566 <uart_write_buffer>:
uart_write_buffer():
E:/wch307/CHV307_Library-master/Example/libraries/zf_driver/zf_driver_uart.c:64
// 参数说明     len         数据长度
// 返回参数     void
// 使用示例     uart_write_buffer(UART_1, buff, 10);     //串口1发送10个buff数组。
//-------------------------------------------------------------------------------------------------------------------
void uart_write_buffer(uart_index_enum uartn, const uint8 *buff, uint32 len)
{
     566:	1101                	addi	sp,sp,-32
     568:	ce06                	sw	ra,28(sp)
     56a:	cc22                	sw	s0,24(sp)
     56c:	1000                	addi	s0,sp,32
     56e:	fea42623          	sw	a0,-20(s0)
     572:	feb42423          	sw	a1,-24(s0)
     576:	fec42223          	sw	a2,-28(s0)
E:/wch307/CHV307_Library-master/Example/libraries/zf_driver/zf_driver_uart.c:65
    zf_assert(buff != NULL);
     57a:	fe842783          	lw	a5,-24(s0)
     57e:	00f037b3          	snez	a5,a5
     582:	0ff7f793          	andi	a5,a5,255
     586:	873e                	mv	a4,a5
     588:	04100613          	li	a2,65
     58c:	67ad                	lui	a5,0xb
     58e:	c2c78593          	addi	a1,a5,-980 # ac2c <_sbrk+0x20>
     592:	853a                	mv	a0,a4
     594:	7c3000ef          	jal	ra,1556 <debug_assert_handler>
E:/wch307/CHV307_Library-master/Example/libraries/zf_driver/zf_driver_uart.c:66
    while(len--)
     598:	a829                	j	5b2 <uart_write_buffer+0x4c>
E:/wch307/CHV307_Library-master/Example/libraries/zf_driver/zf_driver_uart.c:67
        uart_write_byte(uartn, *buff++);
     59a:	fe842783          	lw	a5,-24(s0)
     59e:	00178713          	addi	a4,a5,1
     5a2:	fee42423          	sw	a4,-24(s0)
     5a6:	0007c783          	lbu	a5,0(a5)
     5aa:	85be                	mv	a1,a5
     5ac:	fec42503          	lw	a0,-20(s0)
     5b0:	3785                	jal	510 <uart_write_byte>
E:/wch307/CHV307_Library-master/Example/libraries/zf_driver/zf_driver_uart.c:66
    while(len--)
     5b2:	fe442783          	lw	a5,-28(s0)
     5b6:	fff78713          	addi	a4,a5,-1
     5ba:	fee42223          	sw	a4,-28(s0)
     5be:	fff1                	bnez	a5,59a <uart_write_buffer+0x34>
E:/wch307/CHV307_Library-master/Example/libraries/zf_driver/zf_driver_uart.c:68
}
     5c0:	0001                	nop
     5c2:	40f2                	lw	ra,28(sp)
     5c4:	4462                	lw	s0,24(sp)
     5c6:	6105                	addi	sp,sp,32
     5c8:	8082                	ret

000005ca <uart_write_string>:
uart_write_string():
E:/wch307/CHV307_Library-master/Example/libraries/zf_driver/zf_driver_uart.c:79
// 参数说明     str         字符串首地址
// 返回参数     void
// 使用示例     uart_putstr(UART_1, (uint8 *)"12345")   //串口1发送12345这个字符串
//-------------------------------------------------------------------------------------------------------------------
void uart_write_string(uart_index_enum uartn, const char *str)
{
     5ca:	1101                	addi	sp,sp,-32
     5cc:	ce06                	sw	ra,28(sp)
     5ce:	cc22                	sw	s0,24(sp)
     5d0:	1000                	addi	s0,sp,32
     5d2:	fea42623          	sw	a0,-20(s0)
     5d6:	feb42423          	sw	a1,-24(s0)
E:/wch307/CHV307_Library-master/Example/libraries/zf_driver/zf_driver_uart.c:80
    zf_assert(str != NULL);
     5da:	fe842783          	lw	a5,-24(s0)
     5de:	00f037b3          	snez	a5,a5
     5e2:	0ff7f793          	andi	a5,a5,255
     5e6:	873e                	mv	a4,a5
     5e8:	05000613          	li	a2,80
     5ec:	67ad                	lui	a5,0xb
     5ee:	c2c78593          	addi	a1,a5,-980 # ac2c <_sbrk+0x20>
     5f2:	853a                	mv	a0,a4
     5f4:	763000ef          	jal	ra,1556 <debug_assert_handler>
E:/wch307/CHV307_Library-master/Example/libraries/zf_driver/zf_driver_uart.c:81
    while(*str)                                                                 // 一直循环到结尾
     5f8:	a839                	j	616 <uart_write_string+0x4c>
E:/wch307/CHV307_Library-master/Example/libraries/zf_driver/zf_driver_uart.c:83
    {
        uart_write_byte(uartn, *str++);
     5fa:	fe842783          	lw	a5,-24(s0)
     5fe:	00178713          	addi	a4,a5,1
     602:	fee42423          	sw	a4,-24(s0)
     606:	00078783          	lb	a5,0(a5)
     60a:	0ff7f793          	andi	a5,a5,255
     60e:	85be                	mv	a1,a5
     610:	fec42503          	lw	a0,-20(s0)
     614:	3df5                	jal	510 <uart_write_byte>
E:/wch307/CHV307_Library-master/Example/libraries/zf_driver/zf_driver_uart.c:81
    while(*str)                                                                 // 一直循环到结尾
     616:	fe842783          	lw	a5,-24(s0)
     61a:	00078783          	lb	a5,0(a5)
     61e:	fff1                	bnez	a5,5fa <uart_write_string+0x30>
E:/wch307/CHV307_Library-master/Example/libraries/zf_driver/zf_driver_uart.c:85
    }
}
     620:	0001                	nop
     622:	40f2                	lw	ra,28(sp)
     624:	4462                	lw	s0,24(sp)
     626:	6105                	addi	sp,sp,32
     628:	8082                	ret

0000062a <uart_rx_interrupt>:
uart_rx_interrupt():
E:/wch307/CHV307_Library-master/Example/libraries/zf_driver/zf_driver_uart.c:97
// 参数说明     status      使能或者失能
// 返回参数     void
// 使用示例     uart_rx_irq(UART_1, ENABLE);        //打开串口1接收中断
//-------------------------------------------------------------------------------------------------------------------
void uart_rx_interrupt(uart_index_enum uartn, uint8 status)
{
     62a:	1101                	addi	sp,sp,-32
     62c:	ce06                	sw	ra,28(sp)
     62e:	cc22                	sw	s0,24(sp)
     630:	1000                	addi	s0,sp,32
     632:	fea42623          	sw	a0,-20(s0)
     636:	87ae                	mv	a5,a1
     638:	fef405a3          	sb	a5,-21(s0)
E:/wch307/CHV307_Library-master/Example/libraries/zf_driver/zf_driver_uart.c:98
    USART_ITConfig(((USART_TypeDef*)uart_index[uartn]), USART_IT_RXNE, status);
     63c:	67ad                	lui	a5,0xb
     63e:	fec42703          	lw	a4,-20(s0)
     642:	070a                	slli	a4,a4,0x2
     644:	da878793          	addi	a5,a5,-600 # ada8 <uart_index>
     648:	97ba                	add	a5,a5,a4
     64a:	439c                	lw	a5,0(a5)
     64c:	873e                	mv	a4,a5
     64e:	feb44783          	lbu	a5,-21(s0)
     652:	863e                	mv	a2,a5
     654:	52500593          	li	a1,1317
     658:	853a                	mv	a0,a4
     65a:	7f0030ef          	jal	ra,3e4a <USART_ITConfig>
E:/wch307/CHV307_Library-master/Example/libraries/zf_driver/zf_driver_uart.c:101

    // 设置中断优先级
    interrupt_set_priority((uint32)((IRQn_Type)uart_irq[uartn]), 0);
     65e:	82818713          	addi	a4,gp,-2008 # 20000260 <uart_irq>
     662:	fec42783          	lw	a5,-20(s0)
     666:	97ba                	add	a5,a5,a4
     668:	0007c783          	lbu	a5,0(a5)
     66c:	4581                	li	a1,0
     66e:	853e                	mv	a0,a5
     670:	776010ef          	jal	ra,1de6 <interrupt_set_priority>
E:/wch307/CHV307_Library-master/Example/libraries/zf_driver/zf_driver_uart.c:103

    if(status)  interrupt_enable((IRQn_Type)uart_irq[uartn]);
     674:	feb44783          	lbu	a5,-21(s0)
     678:	cf81                	beqz	a5,690 <uart_rx_interrupt+0x66>
E:/wch307/CHV307_Library-master/Example/libraries/zf_driver/zf_driver_uart.c:103 (discriminator 1)
     67a:	82818713          	addi	a4,gp,-2008 # 20000260 <uart_irq>
     67e:	fec42783          	lw	a5,-20(s0)
     682:	97ba                	add	a5,a5,a4
     684:	0007c783          	lbu	a5,0(a5)
     688:	853e                	mv	a0,a5
     68a:	724010ef          	jal	ra,1dae <interrupt_enable>
E:/wch307/CHV307_Library-master/Example/libraries/zf_driver/zf_driver_uart.c:105 (discriminator 1)
    else        interrupt_disable((IRQn_Type)uart_irq[uartn]);
}
     68e:	a819                	j	6a4 <uart_rx_interrupt+0x7a>
E:/wch307/CHV307_Library-master/Example/libraries/zf_driver/zf_driver_uart.c:104
    else        interrupt_disable((IRQn_Type)uart_irq[uartn]);
     690:	82818713          	addi	a4,gp,-2008 # 20000260 <uart_irq>
     694:	fec42783          	lw	a5,-20(s0)
     698:	97ba                	add	a5,a5,a4
     69a:	0007c783          	lbu	a5,0(a5)
     69e:	853e                	mv	a0,a5
     6a0:	72a010ef          	jal	ra,1dca <interrupt_disable>
E:/wch307/CHV307_Library-master/Example/libraries/zf_driver/zf_driver_uart.c:105
}
     6a4:	0001                	nop
     6a6:	40f2                	lw	ra,28(sp)
     6a8:	4462                	lw	s0,24(sp)
     6aa:	6105                	addi	sp,sp,32
     6ac:	8082                	ret

000006ae <uart_query_byte>:
uart_query_byte():
E:/wch307/CHV307_Library-master/Example/libraries/zf_driver/zf_driver_uart.c:147
// 参数说明     *dat            接收数据的地址
// 返回参数     uint8           1：接收成功   0：未接收到数据
// 使用示例     uint8 dat; uart_query_byte(USART_1,&dat);       // 接收串口1数据  存在在dat变量里
//-------------------------------------------------------------------------------------------------------------------
uint8 uart_query_byte(uart_index_enum uartn, uint8 *dat)
{
     6ae:	1101                	addi	sp,sp,-32
     6b0:	ce22                	sw	s0,28(sp)
     6b2:	1000                	addi	s0,sp,32
     6b4:	fea42623          	sw	a0,-20(s0)
     6b8:	feb42423          	sw	a1,-24(s0)
E:/wch307/CHV307_Library-master/Example/libraries/zf_driver/zf_driver_uart.c:148
    if((((USART_TypeDef*)uart_index[uartn])->STATR & USART_FLAG_RXNE) != 0)
     6bc:	67ad                	lui	a5,0xb
     6be:	fec42703          	lw	a4,-20(s0)
     6c2:	070a                	slli	a4,a4,0x2
     6c4:	da878793          	addi	a5,a5,-600 # ada8 <uart_index>
     6c8:	97ba                	add	a5,a5,a4
     6ca:	439c                	lw	a5,0(a5)
     6cc:	0007d783          	lhu	a5,0(a5)
     6d0:	07c2                	slli	a5,a5,0x10
     6d2:	83c1                	srli	a5,a5,0x10
     6d4:	0207f793          	andi	a5,a5,32
     6d8:	c78d                	beqz	a5,702 <uart_query_byte+0x54>
E:/wch307/CHV307_Library-master/Example/libraries/zf_driver/zf_driver_uart.c:150
    {
        *dat = (((USART_TypeDef*)uart_index[uartn])->DATAR & 0xFF);
     6da:	67ad                	lui	a5,0xb
     6dc:	fec42703          	lw	a4,-20(s0)
     6e0:	070a                	slli	a4,a4,0x2
     6e2:	da878793          	addi	a5,a5,-600 # ada8 <uart_index>
     6e6:	97ba                	add	a5,a5,a4
     6e8:	439c                	lw	a5,0(a5)
     6ea:	0047d783          	lhu	a5,4(a5)
     6ee:	07c2                	slli	a5,a5,0x10
     6f0:	83c1                	srli	a5,a5,0x10
     6f2:	0ff7f713          	andi	a4,a5,255
     6f6:	fe842783          	lw	a5,-24(s0)
     6fa:	00e78023          	sb	a4,0(a5)
E:/wch307/CHV307_Library-master/Example/libraries/zf_driver/zf_driver_uart.c:151
        return 1;
     6fe:	4785                	li	a5,1
     700:	a011                	j	704 <uart_query_byte+0x56>
E:/wch307/CHV307_Library-master/Example/libraries/zf_driver/zf_driver_uart.c:153
    }
    return 0;
     702:	4781                	li	a5,0
E:/wch307/CHV307_Library-master/Example/libraries/zf_driver/zf_driver_uart.c:154
}
     704:	853e                	mv	a0,a5
     706:	4472                	lw	s0,28(sp)
     708:	6105                	addi	sp,sp,32
     70a:	8082                	ret

0000070c <uart_init>:
uart_init():
E:/wch307/CHV307_Library-master/Example/libraries/zf_driver/zf_driver_uart.c:166
// 参数说明     rx_pin      串口接收引脚号
// 返回参数     void
// 使用示例     uart_init(UART_1, 115200, UART1_TX_A9, UART1_RX_A10); //串口1初始化引脚号,TX为A9,RX为A10
//-------------------------------------------------------------------------------------------------------------------
void uart_init(uart_index_enum uart_n, uint32 baud, uart_pin_enum tx_pin, uart_pin_enum rx_pin)
{
     70c:	7179                	addi	sp,sp,-48
     70e:	d606                	sw	ra,44(sp)
     710:	d422                	sw	s0,40(sp)
     712:	1800                	addi	s0,sp,48
     714:	fca42e23          	sw	a0,-36(s0)
     718:	fcb42c23          	sw	a1,-40(s0)
     71c:	fcc42a23          	sw	a2,-44(s0)
     720:	fcd42823          	sw	a3,-48(s0)
E:/wch307/CHV307_Library-master/Example/libraries/zf_driver/zf_driver_uart.c:170
    // 如果程序在输出了断言信息 并且提示出错位置在这里
    // 就去查看你在什么地方调用这个函数 检查你的传入参数
    // RX和TX引脚需要传入同一组映射引脚，如果不同就会进断言
    zf_assert((tx_pin & (uart_n << 12)) == (rx_pin & (uart_n << 12)));      // tx_pin 与 rx_pin 必须与 uart_n 匹配
     724:	fd442703          	lw	a4,-44(s0)
     728:	fd042783          	lw	a5,-48(s0)
     72c:	8f3d                	xor	a4,a4,a5
     72e:	fdc42783          	lw	a5,-36(s0)
     732:	07b2                	slli	a5,a5,0xc
     734:	8ff9                	and	a5,a5,a4
     736:	0017b793          	seqz	a5,a5
     73a:	0ff7f793          	andi	a5,a5,255
     73e:	873e                	mv	a4,a5
     740:	0aa00613          	li	a2,170
     744:	67ad                	lui	a5,0xb
     746:	c2c78593          	addi	a1,a5,-980 # ac2c <_sbrk+0x20>
     74a:	853a                	mv	a0,a4
     74c:	60b000ef          	jal	ra,1556 <debug_assert_handler>
E:/wch307/CHV307_Library-master/Example/libraries/zf_driver/zf_driver_uart.c:171
    zf_assert((tx_pin >> 8) == (rx_pin >> 8));                              // tx_pin 与 rx_pin 必须成组传入
     750:	fd442783          	lw	a5,-44(s0)
     754:	0087d713          	srli	a4,a5,0x8
     758:	fd042783          	lw	a5,-48(s0)
     75c:	83a1                	srli	a5,a5,0x8
     75e:	40f707b3          	sub	a5,a4,a5
     762:	0017b793          	seqz	a5,a5
     766:	0ff7f793          	andi	a5,a5,255
     76a:	873e                	mv	a4,a5
     76c:	0ab00613          	li	a2,171
     770:	67ad                	lui	a5,0xb
     772:	c2c78593          	addi	a1,a5,-980 # ac2c <_sbrk+0x20>
     776:	853a                	mv	a0,a4
     778:	5df000ef          	jal	ra,1556 <debug_assert_handler>
E:/wch307/CHV307_Library-master/Example/libraries/zf_driver/zf_driver_uart.c:173

    gpio_init(tx_pin & 0xFF, GPO, 0, GPO_AF_PUSH_PULL);
     77c:	fd442783          	lw	a5,-44(s0)
     780:	0ff7f793          	andi	a5,a5,255
     784:	46e1                	li	a3,24
     786:	4601                	li	a2,0
     788:	4585                	li	a1,1
     78a:	853e                	mv	a0,a5
     78c:	3125                	jal	3b4 <gpio_init>
E:/wch307/CHV307_Library-master/Example/libraries/zf_driver/zf_driver_uart.c:174
    gpio_init(rx_pin & 0xFF, GPI, 0, GPI_PULL_UP);
     78e:	fd042783          	lw	a5,-48(s0)
     792:	0ff7f793          	andi	a5,a5,255
     796:	04800693          	li	a3,72
     79a:	4601                	li	a2,0
     79c:	4581                	li	a1,0
     79e:	853e                	mv	a0,a5
     7a0:	3911                	jal	3b4 <gpio_init>
E:/wch307/CHV307_Library-master/Example/libraries/zf_driver/zf_driver_uart.c:177

    // AFIO总线开启
    RCC_APB2PeriphClockCmd(RCC_APB2Periph_AFIO, ENABLE);
     7a2:	4585                	li	a1,1
     7a4:	4505                	li	a0,1
     7a6:	2e6030ef          	jal	ra,3a8c <RCC_APB2PeriphClockCmd>
E:/wch307/CHV307_Library-master/Example/libraries/zf_driver/zf_driver_uart.c:179

    switch(tx_pin & 0xFFFF)
     7aa:	fd442703          	lw	a4,-44(s0)
     7ae:	67c1                	lui	a5,0x10
     7b0:	17fd                	addi	a5,a5,-1
     7b2:	8ff9                	and	a5,a5,a4
     7b4:	670d                	lui	a4,0x3
     7b6:	38070713          	addi	a4,a4,896 # 3380 <uart_rx_interrupt_handler>
     7ba:	20e78763          	beq	a5,a4,9c8 <__stack_size+0x1c8>
     7be:	670d                	lui	a4,0x3
     7c0:	38070713          	addi	a4,a4,896 # 3380 <uart_rx_interrupt_handler>
     7c4:	04f76963          	bltu	a4,a5,816 <__stack_size+0x16>
     7c8:	6705                	lui	a4,0x1
     7ca:	16570713          	addi	a4,a4,357 # 1165 <debug_output+0x1b7>
     7ce:	16e78163          	beq	a5,a4,930 <__stack_size+0x130>
     7d2:	6705                	lui	a4,0x1
     7d4:	16570713          	addi	a4,a4,357 # 1165 <debug_output+0x1b7>
     7d8:	00f76f63          	bltu	a4,a5,7f6 <uart_init+0xea>
     7dc:	22f00713          	li	a4,559
     7e0:	0ce78a63          	beq	a5,a4,8b4 <__stack_size+0xb4>
     7e4:	30600713          	li	a4,774
     7e8:	10e78163          	beq	a5,a4,8ea <__stack_size+0xea>
     7ec:	12600713          	li	a4,294
     7f0:	08e78863          	beq	a5,a4,880 <__stack_size+0x80>
     7f4:	a665                	j	b9c <__stack_size+0x39c>
     7f6:	6709                	lui	a4,0x2
     7f8:	36870713          	addi	a4,a4,872 # 2368 <UART7_IRQHandler+0x4c>
     7fc:	16e78b63          	beq	a5,a4,972 <__stack_size+0x172>
     800:	670d                	lui	a4,0x3
     802:	12070713          	addi	a4,a4,288 # 3120 <TIM8_UP_IRQHandler+0xb2>
     806:	18e78763          	beq	a5,a4,994 <__stack_size+0x194>
     80a:	6709                	lui	a4,0x2
     80c:	14a70713          	addi	a4,a4,330 # 214a <UART4_IRQHandler+0x7c>
     810:	14e78063          	beq	a5,a4,950 <__stack_size+0x150>
     814:	a661                	j	b9c <__stack_size+0x39c>
     816:	6715                	lui	a4,0x5
     818:	38a70713          	addi	a4,a4,906 # 538a <__adddf3+0x45e>
     81c:	26e78e63          	beq	a5,a4,a98 <__stack_size+0x298>
     820:	6715                	lui	a4,0x5
     822:	38a70713          	addi	a4,a4,906 # 538a <__adddf3+0x45e>
     826:	02f76263          	bltu	a4,a5,84a <__stack_size+0x4a>
     82a:	6711                	lui	a4,0x4
     82c:	38870713          	addi	a4,a4,904 # 4388 <OTG_FS_IRQHandler+0x172>
     830:	20e78063          	beq	a5,a4,a30 <__stack_size+0x230>
     834:	6715                	lui	a4,0x5
     836:	12870713          	addi	a4,a4,296 # 5128 <__adddf3+0x1fc>
     83a:	22e78563          	beq	a5,a4,a64 <__stack_size+0x264>
     83e:	6711                	lui	a4,0x4
     840:	12470713          	addi	a4,a4,292 # 4124 <DevEP2_IN_Deal+0x14>
     844:	1ae78c63          	beq	a5,a4,9fc <__stack_size+0x1fc>
     848:	ae91                	j	b9c <__stack_size+0x39c>
     84a:	6719                	lui	a4,0x6
     84c:	38c70713          	addi	a4,a4,908 # 638c <__muldf3+0x64>
     850:	2ae78863          	beq	a5,a4,b00 <__stack_size+0x300>
     854:	6719                	lui	a4,0x6
     856:	38c70713          	addi	a4,a4,908 # 638c <__muldf3+0x64>
     85a:	00f76863          	bltu	a4,a5,86a <__stack_size+0x6a>
     85e:	6719                	lui	a4,0x6
     860:	10670713          	addi	a4,a4,262 # 6106 <__divdf3+0x7cc>
     864:	26e78463          	beq	a5,a4,acc <__stack_size+0x2cc>
     868:	ae15                	j	b9c <__stack_size+0x39c>
     86a:	671d                	lui	a4,0x7
     86c:	10e70713          	addi	a4,a4,270 # 710e <__subdf3+0x790>
     870:	2ce78263          	beq	a5,a4,b34 <__stack_size+0x334>
     874:	671d                	lui	a4,0x7
     876:	38e70713          	addi	a4,a4,910 # 738e <__subdf3+0xa10>
     87a:	2ee78763          	beq	a5,a4,b68 <__stack_size+0x368>
     87e:	ae39                	j	b9c <__stack_size+0x39c>
E:/wch307/CHV307_Library-master/Example/libraries/zf_driver/zf_driver_uart.c:182
    {
        case UART1_MAP1_TX_B6:
           AFIO->PCFR2 &= ~(0x01<<26);
     880:	400107b7          	lui	a5,0x40010
     884:	4fd4                	lw	a3,28(a5)
     886:	400107b7          	lui	a5,0x40010
     88a:	fc000737          	lui	a4,0xfc000
     88e:	177d                	addi	a4,a4,-1
     890:	8f75                	and	a4,a4,a3
     892:	cfd8                	sw	a4,28(a5)
E:/wch307/CHV307_Library-master/Example/libraries/zf_driver/zf_driver_uart.c:183
           AFIO->PCFR1 &= ~(0x01<<2);
     894:	400107b7          	lui	a5,0x40010
     898:	43d8                	lw	a4,4(a5)
     89a:	400107b7          	lui	a5,0x40010
     89e:	9b6d                	andi	a4,a4,-5
     8a0:	c3d8                	sw	a4,4(a5)
E:/wch307/CHV307_Library-master/Example/libraries/zf_driver/zf_driver_uart.c:184
           AFIO->PCFR1 |=  (0x01<<2);
     8a2:	400107b7          	lui	a5,0x40010
     8a6:	43d8                	lw	a4,4(a5)
     8a8:	400107b7          	lui	a5,0x40010
     8ac:	00476713          	ori	a4,a4,4
     8b0:	c3d8                	sw	a4,4(a5)
E:/wch307/CHV307_Library-master/Example/libraries/zf_driver/zf_driver_uart.c:185
           break;
     8b2:	a4ed                	j	b9c <__stack_size+0x39c>
E:/wch307/CHV307_Library-master/Example/libraries/zf_driver/zf_driver_uart.c:187
        case UART1_MAP2_TX_B15:
            AFIO->PCFR2 &= ~(0x01<<26);
     8b4:	400107b7          	lui	a5,0x40010
     8b8:	4fd4                	lw	a3,28(a5)
     8ba:	400107b7          	lui	a5,0x40010
     8be:	fc000737          	lui	a4,0xfc000
     8c2:	177d                	addi	a4,a4,-1
     8c4:	8f75                	and	a4,a4,a3
     8c6:	cfd8                	sw	a4,28(a5)
E:/wch307/CHV307_Library-master/Example/libraries/zf_driver/zf_driver_uart.c:188
            AFIO->PCFR2 |=  (0x01<<26);
     8c8:	400107b7          	lui	a5,0x40010
     8cc:	4fd4                	lw	a3,28(a5)
     8ce:	400107b7          	lui	a5,0x40010
     8d2:	04000737          	lui	a4,0x4000
     8d6:	8f55                	or	a4,a4,a3
     8d8:	cfd8                	sw	a4,28(a5)
E:/wch307/CHV307_Library-master/Example/libraries/zf_driver/zf_driver_uart.c:189
            AFIO->PCFR1 &= ~(0x01<<2);
     8da:	400107b7          	lui	a5,0x40010
     8de:	43d8                	lw	a4,4(a5)
     8e0:	400107b7          	lui	a5,0x40010
     8e4:	9b6d                	andi	a4,a4,-5
     8e6:	c3d8                	sw	a4,4(a5)
E:/wch307/CHV307_Library-master/Example/libraries/zf_driver/zf_driver_uart.c:190
           break;
     8e8:	ac55                	j	b9c <__stack_size+0x39c>
E:/wch307/CHV307_Library-master/Example/libraries/zf_driver/zf_driver_uart.c:192
        case UART1_MAP3_TX_A6:
            AFIO->PCFR2 &= ~(0x01<<26);
     8ea:	400107b7          	lui	a5,0x40010
     8ee:	4fd4                	lw	a3,28(a5)
     8f0:	400107b7          	lui	a5,0x40010
     8f4:	fc000737          	lui	a4,0xfc000
     8f8:	177d                	addi	a4,a4,-1
     8fa:	8f75                	and	a4,a4,a3
     8fc:	cfd8                	sw	a4,28(a5)
E:/wch307/CHV307_Library-master/Example/libraries/zf_driver/zf_driver_uart.c:193
            AFIO->PCFR2 |=  (0x01<<26);
     8fe:	400107b7          	lui	a5,0x40010
     902:	4fd4                	lw	a3,28(a5)
     904:	400107b7          	lui	a5,0x40010
     908:	04000737          	lui	a4,0x4000
     90c:	8f55                	or	a4,a4,a3
     90e:	cfd8                	sw	a4,28(a5)
E:/wch307/CHV307_Library-master/Example/libraries/zf_driver/zf_driver_uart.c:194
            AFIO->PCFR1 &= ~(0x01<<2);
     910:	400107b7          	lui	a5,0x40010
     914:	43d8                	lw	a4,4(a5)
     916:	400107b7          	lui	a5,0x40010
     91a:	9b6d                	andi	a4,a4,-5
     91c:	c3d8                	sw	a4,4(a5)
E:/wch307/CHV307_Library-master/Example/libraries/zf_driver/zf_driver_uart.c:195
            AFIO->PCFR1 |=  (0x01<<2);
     91e:	400107b7          	lui	a5,0x40010
     922:	43d8                	lw	a4,4(a5)
     924:	400107b7          	lui	a5,0x40010
     928:	00476713          	ori	a4,a4,4
     92c:	c3d8                	sw	a4,4(a5)
E:/wch307/CHV307_Library-master/Example/libraries/zf_driver/zf_driver_uart.c:196
           break;
     92e:	a4bd                	j	b9c <__stack_size+0x39c>
E:/wch307/CHV307_Library-master/Example/libraries/zf_driver/zf_driver_uart.c:199

        case UART2_MAP1_TX_D5:
            AFIO->PCFR1 &= ~(0x01<<3);
     930:	400107b7          	lui	a5,0x40010
     934:	43d8                	lw	a4,4(a5)
     936:	400107b7          	lui	a5,0x40010
     93a:	9b5d                	andi	a4,a4,-9
     93c:	c3d8                	sw	a4,4(a5)
E:/wch307/CHV307_Library-master/Example/libraries/zf_driver/zf_driver_uart.c:200
            AFIO->PCFR1 |=  (0x01<<3);
     93e:	400107b7          	lui	a5,0x40010
     942:	43d8                	lw	a4,4(a5)
     944:	400107b7          	lui	a5,0x40010
     948:	00876713          	ori	a4,a4,8
     94c:	c3d8                	sw	a4,4(a5)
E:/wch307/CHV307_Library-master/Example/libraries/zf_driver/zf_driver_uart.c:201
           break;
     94e:	a4b9                	j	b9c <__stack_size+0x39c>
E:/wch307/CHV307_Library-master/Example/libraries/zf_driver/zf_driver_uart.c:204

        case UART3_MAP1_TX_C10:
            AFIO->PCFR1 &= ~(0x03<<4);
     950:	400107b7          	lui	a5,0x40010
     954:	43d8                	lw	a4,4(a5)
     956:	400107b7          	lui	a5,0x40010
     95a:	fcf77713          	andi	a4,a4,-49
     95e:	c3d8                	sw	a4,4(a5)
E:/wch307/CHV307_Library-master/Example/libraries/zf_driver/zf_driver_uart.c:205
            AFIO->PCFR1 |=  (0x01<<4);
     960:	400107b7          	lui	a5,0x40010
     964:	43d8                	lw	a4,4(a5)
     966:	400107b7          	lui	a5,0x40010
     96a:	01076713          	ori	a4,a4,16
     96e:	c3d8                	sw	a4,4(a5)
E:/wch307/CHV307_Library-master/Example/libraries/zf_driver/zf_driver_uart.c:206
           break;
     970:	a435                	j	b9c <__stack_size+0x39c>
E:/wch307/CHV307_Library-master/Example/libraries/zf_driver/zf_driver_uart.c:209

        case UART3_MAP2_TX_D8:
            AFIO->PCFR1 &= ~(0x03<<4);
     972:	400107b7          	lui	a5,0x40010
     976:	43d8                	lw	a4,4(a5)
     978:	400107b7          	lui	a5,0x40010
     97c:	fcf77713          	andi	a4,a4,-49
     980:	c3d8                	sw	a4,4(a5)
E:/wch307/CHV307_Library-master/Example/libraries/zf_driver/zf_driver_uart.c:210
            AFIO->PCFR1 |=  (0x03<<4);
     982:	400107b7          	lui	a5,0x40010
     986:	43d8                	lw	a4,4(a5)
     988:	400107b7          	lui	a5,0x40010
     98c:	03076713          	ori	a4,a4,48
     990:	c3d8                	sw	a4,4(a5)
E:/wch307/CHV307_Library-master/Example/libraries/zf_driver/zf_driver_uart.c:211
           break;
     992:	a429                	j	b9c <__stack_size+0x39c>
E:/wch307/CHV307_Library-master/Example/libraries/zf_driver/zf_driver_uart.c:214

        case UART4_MAP1_TX_B0:
            AFIO->PCFR2 &= ~(0x03<<16);
     994:	400107b7          	lui	a5,0x40010
     998:	4fd4                	lw	a3,28(a5)
     99a:	400107b7          	lui	a5,0x40010
     99e:	fffd0737          	lui	a4,0xfffd0
     9a2:	177d                	addi	a4,a4,-1
     9a4:	8f75                	and	a4,a4,a3
     9a6:	cfd8                	sw	a4,28(a5)
E:/wch307/CHV307_Library-master/Example/libraries/zf_driver/zf_driver_uart.c:215
            AFIO->PCFR2 |=  (((tx_pin >> 8) & 0x03 ) << 16);
     9a8:	400107b7          	lui	a5,0x40010
     9ac:	4fd4                	lw	a3,28(a5)
     9ae:	fd442783          	lw	a5,-44(s0)
     9b2:	83a1                	srli	a5,a5,0x8
     9b4:	01079713          	slli	a4,a5,0x10
     9b8:	000307b7          	lui	a5,0x30
     9bc:	8f7d                	and	a4,a4,a5
     9be:	400107b7          	lui	a5,0x40010
     9c2:	8f55                	or	a4,a4,a3
     9c4:	cfd8                	sw	a4,28(a5)
E:/wch307/CHV307_Library-master/Example/libraries/zf_driver/zf_driver_uart.c:216
           break;
     9c6:	aad9                	j	b9c <__stack_size+0x39c>
E:/wch307/CHV307_Library-master/Example/libraries/zf_driver/zf_driver_uart.c:219

        case UART4_MAP3_TX_E0:
            AFIO->PCFR2 &= ~(0x03<<16);
     9c8:	400107b7          	lui	a5,0x40010
     9cc:	4fd4                	lw	a3,28(a5)
     9ce:	400107b7          	lui	a5,0x40010
     9d2:	fffd0737          	lui	a4,0xfffd0
     9d6:	177d                	addi	a4,a4,-1
     9d8:	8f75                	and	a4,a4,a3
     9da:	cfd8                	sw	a4,28(a5)
E:/wch307/CHV307_Library-master/Example/libraries/zf_driver/zf_driver_uart.c:220
            AFIO->PCFR2 |=  (((tx_pin >> 8) & 0x03 ) << 16);
     9dc:	400107b7          	lui	a5,0x40010
     9e0:	4fd4                	lw	a3,28(a5)
     9e2:	fd442783          	lw	a5,-44(s0)
     9e6:	83a1                	srli	a5,a5,0x8
     9e8:	01079713          	slli	a4,a5,0x10
     9ec:	000307b7          	lui	a5,0x30
     9f0:	8f7d                	and	a4,a4,a5
     9f2:	400107b7          	lui	a5,0x40010
     9f6:	8f55                	or	a4,a4,a3
     9f8:	cfd8                	sw	a4,28(a5)
E:/wch307/CHV307_Library-master/Example/libraries/zf_driver/zf_driver_uart.c:221
           break;
     9fa:	a24d                	j	b9c <__stack_size+0x39c>
E:/wch307/CHV307_Library-master/Example/libraries/zf_driver/zf_driver_uart.c:224

        case UART5_MAP1_TX_B4:
            AFIO->PCFR2 &= ~(0x03<<18);
     9fc:	400107b7          	lui	a5,0x40010
     a00:	4fd4                	lw	a3,28(a5)
     a02:	400107b7          	lui	a5,0x40010
     a06:	fff40737          	lui	a4,0xfff40
     a0a:	177d                	addi	a4,a4,-1
     a0c:	8f75                	and	a4,a4,a3
     a0e:	cfd8                	sw	a4,28(a5)
E:/wch307/CHV307_Library-master/Example/libraries/zf_driver/zf_driver_uart.c:225
            AFIO->PCFR2 |=  (((tx_pin >> 8) & 0x03 ) << 18);
     a10:	400107b7          	lui	a5,0x40010
     a14:	4fd4                	lw	a3,28(a5)
     a16:	fd442783          	lw	a5,-44(s0)
     a1a:	83a1                	srli	a5,a5,0x8
     a1c:	01279713          	slli	a4,a5,0x12
     a20:	000c07b7          	lui	a5,0xc0
     a24:	8f7d                	and	a4,a4,a5
     a26:	400107b7          	lui	a5,0x40010
     a2a:	8f55                	or	a4,a4,a3
     a2c:	cfd8                	sw	a4,28(a5)
E:/wch307/CHV307_Library-master/Example/libraries/zf_driver/zf_driver_uart.c:226
           break;
     a2e:	a2bd                	j	b9c <__stack_size+0x39c>
E:/wch307/CHV307_Library-master/Example/libraries/zf_driver/zf_driver_uart.c:229

        case UART5_MAP3_TX_E8:
            AFIO->PCFR2 &= ~(0x03<<18);
     a30:	400107b7          	lui	a5,0x40010
     a34:	4fd4                	lw	a3,28(a5)
     a36:	400107b7          	lui	a5,0x40010
     a3a:	fff40737          	lui	a4,0xfff40
     a3e:	177d                	addi	a4,a4,-1
     a40:	8f75                	and	a4,a4,a3
     a42:	cfd8                	sw	a4,28(a5)
E:/wch307/CHV307_Library-master/Example/libraries/zf_driver/zf_driver_uart.c:230
            AFIO->PCFR2 |=  (((tx_pin >> 8) & 0x03 ) << 18);
     a44:	400107b7          	lui	a5,0x40010
     a48:	4fd4                	lw	a3,28(a5)
     a4a:	fd442783          	lw	a5,-44(s0)
     a4e:	83a1                	srli	a5,a5,0x8
     a50:	01279713          	slli	a4,a5,0x12
     a54:	000c07b7          	lui	a5,0xc0
     a58:	8f7d                	and	a4,a4,a5
     a5a:	400107b7          	lui	a5,0x40010
     a5e:	8f55                	or	a4,a4,a3
     a60:	cfd8                	sw	a4,28(a5)
E:/wch307/CHV307_Library-master/Example/libraries/zf_driver/zf_driver_uart.c:231
           break;
     a62:	aa2d                	j	b9c <__stack_size+0x39c>
E:/wch307/CHV307_Library-master/Example/libraries/zf_driver/zf_driver_uart.c:234

        case UART6_MAP1_TX_B8:
            AFIO->PCFR2 &= ~(0x03<<20);
     a64:	400107b7          	lui	a5,0x40010
     a68:	4fd4                	lw	a3,28(a5)
     a6a:	400107b7          	lui	a5,0x40010
     a6e:	ffd00737          	lui	a4,0xffd00
     a72:	177d                	addi	a4,a4,-1
     a74:	8f75                	and	a4,a4,a3
     a76:	cfd8                	sw	a4,28(a5)
E:/wch307/CHV307_Library-master/Example/libraries/zf_driver/zf_driver_uart.c:235
            AFIO->PCFR2 |=  (((tx_pin >> 8) & 0x03 ) << 20);
     a78:	400107b7          	lui	a5,0x40010
     a7c:	4fd4                	lw	a3,28(a5)
     a7e:	fd442783          	lw	a5,-44(s0)
     a82:	83a1                	srli	a5,a5,0x8
     a84:	01479713          	slli	a4,a5,0x14
     a88:	003007b7          	lui	a5,0x300
     a8c:	8f7d                	and	a4,a4,a5
     a8e:	400107b7          	lui	a5,0x40010
     a92:	8f55                	or	a4,a4,a3
     a94:	cfd8                	sw	a4,28(a5)
E:/wch307/CHV307_Library-master/Example/libraries/zf_driver/zf_driver_uart.c:236
           break;
     a96:	a219                	j	b9c <__stack_size+0x39c>
E:/wch307/CHV307_Library-master/Example/libraries/zf_driver/zf_driver_uart.c:239

        case UART6_MAP3_TX_E10:
            AFIO->PCFR2 &= ~(0x03<<20);
     a98:	400107b7          	lui	a5,0x40010
     a9c:	4fd4                	lw	a3,28(a5)
     a9e:	400107b7          	lui	a5,0x40010
     aa2:	ffd00737          	lui	a4,0xffd00
     aa6:	177d                	addi	a4,a4,-1
     aa8:	8f75                	and	a4,a4,a3
     aaa:	cfd8                	sw	a4,28(a5)
E:/wch307/CHV307_Library-master/Example/libraries/zf_driver/zf_driver_uart.c:240
            AFIO->PCFR2 |=  (((tx_pin >> 8) & 0x03 ) << 20);
     aac:	400107b7          	lui	a5,0x40010
     ab0:	4fd4                	lw	a3,28(a5)
     ab2:	fd442783          	lw	a5,-44(s0)
     ab6:	83a1                	srli	a5,a5,0x8
     ab8:	01479713          	slli	a4,a5,0x14
     abc:	003007b7          	lui	a5,0x300
     ac0:	8f7d                	and	a4,a4,a5
     ac2:	400107b7          	lui	a5,0x40010
     ac6:	8f55                	or	a4,a4,a3
     ac8:	cfd8                	sw	a4,28(a5)
E:/wch307/CHV307_Library-master/Example/libraries/zf_driver/zf_driver_uart.c:241
           break;
     aca:	a8c9                	j	b9c <__stack_size+0x39c>
E:/wch307/CHV307_Library-master/Example/libraries/zf_driver/zf_driver_uart.c:244

        case UART7_MAP1_TX_A6:
            AFIO->PCFR2 &= ~(0x03<<22);
     acc:	400107b7          	lui	a5,0x40010
     ad0:	4fd4                	lw	a3,28(a5)
     ad2:	400107b7          	lui	a5,0x40010
     ad6:	ff400737          	lui	a4,0xff400
     ada:	177d                	addi	a4,a4,-1
     adc:	8f75                	and	a4,a4,a3
     ade:	cfd8                	sw	a4,28(a5)
E:/wch307/CHV307_Library-master/Example/libraries/zf_driver/zf_driver_uart.c:245
            AFIO->PCFR2 |=  (((tx_pin >> 8) & 0x03 ) << 22);
     ae0:	400107b7          	lui	a5,0x40010
     ae4:	4fd4                	lw	a3,28(a5)
     ae6:	fd442783          	lw	a5,-44(s0)
     aea:	83a1                	srli	a5,a5,0x8
     aec:	01679713          	slli	a4,a5,0x16
     af0:	00c007b7          	lui	a5,0xc00
     af4:	8f7d                	and	a4,a4,a5
     af6:	400107b7          	lui	a5,0x40010
     afa:	8f55                	or	a4,a4,a3
     afc:	cfd8                	sw	a4,28(a5)
E:/wch307/CHV307_Library-master/Example/libraries/zf_driver/zf_driver_uart.c:246
           break;
     afe:	a879                	j	b9c <__stack_size+0x39c>
E:/wch307/CHV307_Library-master/Example/libraries/zf_driver/zf_driver_uart.c:249

        case UART7_MAP3_TX_E12:
            AFIO->PCFR2 &= ~(0x03<<22);
     b00:	400107b7          	lui	a5,0x40010
     b04:	4fd4                	lw	a3,28(a5)
     b06:	400107b7          	lui	a5,0x40010
     b0a:	ff400737          	lui	a4,0xff400
     b0e:	177d                	addi	a4,a4,-1
     b10:	8f75                	and	a4,a4,a3
     b12:	cfd8                	sw	a4,28(a5)
E:/wch307/CHV307_Library-master/Example/libraries/zf_driver/zf_driver_uart.c:250
            AFIO->PCFR2 |=  (((tx_pin >> 8) & 0x03 ) << 22);
     b14:	400107b7          	lui	a5,0x40010
     b18:	4fd4                	lw	a3,28(a5)
     b1a:	fd442783          	lw	a5,-44(s0)
     b1e:	83a1                	srli	a5,a5,0x8
     b20:	01679713          	slli	a4,a5,0x16
     b24:	00c007b7          	lui	a5,0xc00
     b28:	8f7d                	and	a4,a4,a5
     b2a:	400107b7          	lui	a5,0x40010
     b2e:	8f55                	or	a4,a4,a3
     b30:	cfd8                	sw	a4,28(a5)
E:/wch307/CHV307_Library-master/Example/libraries/zf_driver/zf_driver_uart.c:251
           break;
     b32:	a0ad                	j	b9c <__stack_size+0x39c>
E:/wch307/CHV307_Library-master/Example/libraries/zf_driver/zf_driver_uart.c:254

        case UART8_MAP1_TX_A14:
            AFIO->PCFR2 &= ~(0x03<<24);
     b34:	400107b7          	lui	a5,0x40010
     b38:	4fd4                	lw	a3,28(a5)
     b3a:	400107b7          	lui	a5,0x40010
     b3e:	fd000737          	lui	a4,0xfd000
     b42:	177d                	addi	a4,a4,-1
     b44:	8f75                	and	a4,a4,a3
     b46:	cfd8                	sw	a4,28(a5)
E:/wch307/CHV307_Library-master/Example/libraries/zf_driver/zf_driver_uart.c:255
            AFIO->PCFR2 |=  (((tx_pin >> 8) & 0x03 ) << 24);
     b48:	400107b7          	lui	a5,0x40010
     b4c:	4fd4                	lw	a3,28(a5)
     b4e:	fd442783          	lw	a5,-44(s0)
     b52:	83a1                	srli	a5,a5,0x8
     b54:	01879713          	slli	a4,a5,0x18
     b58:	030007b7          	lui	a5,0x3000
     b5c:	8f7d                	and	a4,a4,a5
     b5e:	400107b7          	lui	a5,0x40010
     b62:	8f55                	or	a4,a4,a3
     b64:	cfd8                	sw	a4,28(a5)
E:/wch307/CHV307_Library-master/Example/libraries/zf_driver/zf_driver_uart.c:256
           break;
     b66:	a81d                	j	b9c <__stack_size+0x39c>
E:/wch307/CHV307_Library-master/Example/libraries/zf_driver/zf_driver_uart.c:259

        case UART8_MAP3_TX_E14:
            AFIO->PCFR2 &= ~(0x03<<24);
     b68:	400107b7          	lui	a5,0x40010
     b6c:	4fd4                	lw	a3,28(a5)
     b6e:	400107b7          	lui	a5,0x40010
     b72:	fd000737          	lui	a4,0xfd000
     b76:	177d                	addi	a4,a4,-1
     b78:	8f75                	and	a4,a4,a3
     b7a:	cfd8                	sw	a4,28(a5)
E:/wch307/CHV307_Library-master/Example/libraries/zf_driver/zf_driver_uart.c:260
            AFIO->PCFR2 |=  (((tx_pin >> 8) & 0x03 ) << 24);
     b7c:	400107b7          	lui	a5,0x40010
     b80:	4fd4                	lw	a3,28(a5)
     b82:	fd442783          	lw	a5,-44(s0)
     b86:	83a1                	srli	a5,a5,0x8
     b88:	01879713          	slli	a4,a5,0x18
     b8c:	030007b7          	lui	a5,0x3000
     b90:	8f7d                	and	a4,a4,a5
     b92:	400107b7          	lui	a5,0x40010
     b96:	8f55                	or	a4,a4,a3
     b98:	cfd8                	sw	a4,28(a5)
E:/wch307/CHV307_Library-master/Example/libraries/zf_driver/zf_driver_uart.c:261
           break;
     b9a:	0001                	nop
E:/wch307/CHV307_Library-master/Example/libraries/zf_driver/zf_driver_uart.c:266
    }


    // 串口总线使能
    if(UART_1 == uart_n)        RCC_APB2PeriphClockCmd(RCC_APB2Periph_USART1, ENABLE);
     b9c:	fdc42783          	lw	a5,-36(s0)
     ba0:	e791                	bnez	a5,bac <__stack_size+0x3ac>
E:/wch307/CHV307_Library-master/Example/libraries/zf_driver/zf_driver_uart.c:266 (discriminator 1)
     ba2:	4585                	li	a1,1
     ba4:	6511                	lui	a0,0x4
     ba6:	6e7020ef          	jal	ra,3a8c <RCC_APB2PeriphClockCmd>
     baa:	a869                	j	c44 <__stack_size+0x444>
E:/wch307/CHV307_Library-master/Example/libraries/zf_driver/zf_driver_uart.c:267
    else if(UART_2 == uart_n)   RCC_APB1PeriphClockCmd(RCC_APB1Periph_USART2, ENABLE);
     bac:	fdc42703          	lw	a4,-36(s0)
     bb0:	4785                	li	a5,1
     bb2:	00f71863          	bne	a4,a5,bc2 <__stack_size+0x3c2>
E:/wch307/CHV307_Library-master/Example/libraries/zf_driver/zf_driver_uart.c:267 (discriminator 1)
     bb6:	4585                	li	a1,1
     bb8:	00020537          	lui	a0,0x20
     bbc:	717020ef          	jal	ra,3ad2 <RCC_APB1PeriphClockCmd>
     bc0:	a051                	j	c44 <__stack_size+0x444>
E:/wch307/CHV307_Library-master/Example/libraries/zf_driver/zf_driver_uart.c:268
    else if(UART_3 == uart_n)   RCC_APB1PeriphClockCmd(RCC_APB1Periph_USART3, ENABLE);
     bc2:	fdc42703          	lw	a4,-36(s0)
     bc6:	4789                	li	a5,2
     bc8:	00f71863          	bne	a4,a5,bd8 <__stack_size+0x3d8>
E:/wch307/CHV307_Library-master/Example/libraries/zf_driver/zf_driver_uart.c:268 (discriminator 1)
     bcc:	4585                	li	a1,1
     bce:	00040537          	lui	a0,0x40
     bd2:	701020ef          	jal	ra,3ad2 <RCC_APB1PeriphClockCmd>
     bd6:	a0bd                	j	c44 <__stack_size+0x444>
E:/wch307/CHV307_Library-master/Example/libraries/zf_driver/zf_driver_uart.c:269
    else if(UART_4 == uart_n)   RCC_APB1PeriphClockCmd(RCC_APB1Periph_UART4,  ENABLE);
     bd8:	fdc42703          	lw	a4,-36(s0)
     bdc:	478d                	li	a5,3
     bde:	00f71863          	bne	a4,a5,bee <__stack_size+0x3ee>
E:/wch307/CHV307_Library-master/Example/libraries/zf_driver/zf_driver_uart.c:269 (discriminator 1)
     be2:	4585                	li	a1,1
     be4:	00080537          	lui	a0,0x80
     be8:	6eb020ef          	jal	ra,3ad2 <RCC_APB1PeriphClockCmd>
     bec:	a8a1                	j	c44 <__stack_size+0x444>
E:/wch307/CHV307_Library-master/Example/libraries/zf_driver/zf_driver_uart.c:270
    else if(UART_5 == uart_n)   RCC_APB1PeriphClockCmd(RCC_APB1Periph_UART5,  ENABLE);
     bee:	fdc42703          	lw	a4,-36(s0)
     bf2:	4791                	li	a5,4
     bf4:	00f71863          	bne	a4,a5,c04 <__stack_size+0x404>
E:/wch307/CHV307_Library-master/Example/libraries/zf_driver/zf_driver_uart.c:270 (discriminator 1)
     bf8:	4585                	li	a1,1
     bfa:	00100537          	lui	a0,0x100
     bfe:	6d5020ef          	jal	ra,3ad2 <RCC_APB1PeriphClockCmd>
     c02:	a089                	j	c44 <__stack_size+0x444>
E:/wch307/CHV307_Library-master/Example/libraries/zf_driver/zf_driver_uart.c:271
    else if(UART_6 == uart_n)   RCC_APB1PeriphClockCmd(RCC_APB1Periph_UART6,  ENABLE);
     c04:	fdc42703          	lw	a4,-36(s0)
     c08:	4795                	li	a5,5
     c0a:	00f71863          	bne	a4,a5,c1a <__stack_size+0x41a>
E:/wch307/CHV307_Library-master/Example/libraries/zf_driver/zf_driver_uart.c:271 (discriminator 1)
     c0e:	4585                	li	a1,1
     c10:	04000513          	li	a0,64
     c14:	6bf020ef          	jal	ra,3ad2 <RCC_APB1PeriphClockCmd>
     c18:	a035                	j	c44 <__stack_size+0x444>
E:/wch307/CHV307_Library-master/Example/libraries/zf_driver/zf_driver_uart.c:272
    else if(UART_7 == uart_n)   RCC_APB1PeriphClockCmd(RCC_APB1Periph_UART7,  ENABLE);
     c1a:	fdc42703          	lw	a4,-36(s0)
     c1e:	4799                	li	a5,6
     c20:	00f71863          	bne	a4,a5,c30 <__stack_size+0x430>
E:/wch307/CHV307_Library-master/Example/libraries/zf_driver/zf_driver_uart.c:272 (discriminator 1)
     c24:	4585                	li	a1,1
     c26:	08000513          	li	a0,128
     c2a:	6a9020ef          	jal	ra,3ad2 <RCC_APB1PeriphClockCmd>
     c2e:	a819                	j	c44 <__stack_size+0x444>
E:/wch307/CHV307_Library-master/Example/libraries/zf_driver/zf_driver_uart.c:273
    else if(UART_8 == uart_n)   RCC_APB1PeriphClockCmd(RCC_APB1Periph_UART8,  ENABLE);
     c30:	fdc42703          	lw	a4,-36(s0)
     c34:	479d                	li	a5,7
     c36:	00f71763          	bne	a4,a5,c44 <__stack_size+0x444>
E:/wch307/CHV307_Library-master/Example/libraries/zf_driver/zf_driver_uart.c:273 (discriminator 1)
     c3a:	4585                	li	a1,1
     c3c:	10000513          	li	a0,256
     c40:	693020ef          	jal	ra,3ad2 <RCC_APB1PeriphClockCmd>
E:/wch307/CHV307_Library-master/Example/libraries/zf_driver/zf_driver_uart.c:276

    // 串口参数配置
    USART_InitTypeDef USART_InitStructure = {0};
     c44:	fe042023          	sw	zero,-32(s0)
     c48:	fe042223          	sw	zero,-28(s0)
     c4c:	fe042423          	sw	zero,-24(s0)
     c50:	fe042623          	sw	zero,-20(s0)
E:/wch307/CHV307_Library-master/Example/libraries/zf_driver/zf_driver_uart.c:277
    USART_InitStructure.USART_BaudRate = baud;
     c54:	fd842783          	lw	a5,-40(s0)
     c58:	fef42023          	sw	a5,-32(s0)
E:/wch307/CHV307_Library-master/Example/libraries/zf_driver/zf_driver_uart.c:278
    USART_InitStructure.USART_WordLength = USART_WordLength_8b;
     c5c:	fe041223          	sh	zero,-28(s0)
E:/wch307/CHV307_Library-master/Example/libraries/zf_driver/zf_driver_uart.c:279
    USART_InitStructure.USART_StopBits = USART_StopBits_1;
     c60:	fe041323          	sh	zero,-26(s0)
E:/wch307/CHV307_Library-master/Example/libraries/zf_driver/zf_driver_uart.c:280
    USART_InitStructure.USART_Parity = USART_Parity_No;
     c64:	fe041423          	sh	zero,-24(s0)
E:/wch307/CHV307_Library-master/Example/libraries/zf_driver/zf_driver_uart.c:281
    USART_InitStructure.USART_HardwareFlowControl = USART_HardwareFlowControl_None;
     c68:	fe041623          	sh	zero,-20(s0)
E:/wch307/CHV307_Library-master/Example/libraries/zf_driver/zf_driver_uart.c:282
    USART_InitStructure.USART_Mode = USART_Mode_Tx | USART_Mode_Rx;
     c6c:	47b1                	li	a5,12
     c6e:	fef41523          	sh	a5,-22(s0)
E:/wch307/CHV307_Library-master/Example/libraries/zf_driver/zf_driver_uart.c:285

    // 使能串口
    USART_Init((USART_TypeDef*)uart_index[uart_n], &USART_InitStructure);
     c72:	67ad                	lui	a5,0xb
     c74:	fdc42703          	lw	a4,-36(s0)
     c78:	070a                	slli	a4,a4,0x2
     c7a:	da878793          	addi	a5,a5,-600 # ada8 <uart_index>
     c7e:	97ba                	add	a5,a5,a4
     c80:	439c                	lw	a5,0(a5)
     c82:	873e                	mv	a4,a5
     c84:	fe040793          	addi	a5,s0,-32
     c88:	85be                	mv	a1,a5
     c8a:	853a                	mv	a0,a4
     c8c:	72b020ef          	jal	ra,3bb6 <USART_Init>
E:/wch307/CHV307_Library-master/Example/libraries/zf_driver/zf_driver_uart.c:286
    USART_Cmd((USART_TypeDef*)uart_index[uart_n], ENABLE);
     c90:	67ad                	lui	a5,0xb
     c92:	fdc42703          	lw	a4,-36(s0)
     c96:	070a                	slli	a4,a4,0x2
     c98:	da878793          	addi	a5,a5,-600 # ada8 <uart_index>
     c9c:	97ba                	add	a5,a5,a4
     c9e:	439c                	lw	a5,0(a5)
     ca0:	4585                	li	a1,1
     ca2:	853e                	mv	a0,a5
     ca4:	146030ef          	jal	ra,3dea <USART_Cmd>
E:/wch307/CHV307_Library-master/Example/libraries/zf_driver/zf_driver_uart.c:288

}
     ca8:	0001                	nop
     caa:	50b2                	lw	ra,44(sp)
     cac:	5422                	lw	s0,40(sp)
     cae:	6145                	addi	sp,sp,48
     cb0:	8082                	ret

00000cb2 <type_default_callback>:
type_default_callback():
E:/wch307/CHV307_Library-master/Example/libraries/zf_device/zf_device_type.c:56
// 返回参数     void
// 使用示例
// 备注信息     保护性冗余设计 防止在没有初始化设备的时候跑飞
//-------------------------------------------------------------------------------------------------------------------
static void type_default_callback (void)
{
     cb2:	1141                	addi	sp,sp,-16
     cb4:	c622                	sw	s0,12(sp)
     cb6:	0800                	addi	s0,sp,16
E:/wch307/CHV307_Library-master/Example/libraries/zf_device/zf_device_type.c:57
}
     cb8:	0001                	nop
     cba:	4432                	lw	s0,12(sp)
     cbc:	0141                	addi	sp,sp,16
     cbe:	8082                	ret

00000cc0 <clock_reset>:
clock_reset():
E:/wch307/CHV307_Library-master/Example/libraries/zf_common/zf_common_clock.c:50
// 函数简介      核心时钟恢复初始设置 内部调用
// 参数说明     void
// 返回参数     void
//-------------------------------------------------------------------------------------------------------------------
void clock_reset(void)
{
     cc0:	1141                	addi	sp,sp,-16
     cc2:	c622                	sw	s0,12(sp)
     cc4:	0800                	addi	s0,sp,16
E:/wch307/CHV307_Library-master/Example/libraries/zf_common/zf_common_clock.c:51
    RCC->CTLR  |= (uint32) 0x00000001;      //使能HSI振荡器
     cc6:	400217b7          	lui	a5,0x40021
     cca:	4398                	lw	a4,0(a5)
     ccc:	400217b7          	lui	a5,0x40021
     cd0:	00176713          	ori	a4,a4,1
     cd4:	c398                	sw	a4,0(a5)
E:/wch307/CHV307_Library-master/Example/libraries/zf_common/zf_common_clock.c:52
    RCC->CFGR0 &= (uint32) 0xF8FF0000;
     cd6:	400217b7          	lui	a5,0x40021
     cda:	43d4                	lw	a3,4(a5)
     cdc:	400217b7          	lui	a5,0x40021
     ce0:	f8ff0737          	lui	a4,0xf8ff0
     ce4:	8f75                	and	a4,a4,a3
     ce6:	c3d8                	sw	a4,4(a5)
E:/wch307/CHV307_Library-master/Example/libraries/zf_common/zf_common_clock.c:53
    RCC->CTLR  &= (uint32) 0xFEF6FFFF;
     ce8:	400217b7          	lui	a5,0x40021
     cec:	4394                	lw	a3,0(a5)
     cee:	400217b7          	lui	a5,0x40021
     cf2:	fef70737          	lui	a4,0xfef70
     cf6:	177d                	addi	a4,a4,-1
     cf8:	8f75                	and	a4,a4,a3
     cfa:	c398                	sw	a4,0(a5)
E:/wch307/CHV307_Library-master/Example/libraries/zf_common/zf_common_clock.c:54
    RCC->CTLR  &= (uint32) 0xFFFBFFFF;
     cfc:	400217b7          	lui	a5,0x40021
     d00:	4394                	lw	a3,0(a5)
     d02:	400217b7          	lui	a5,0x40021
     d06:	fffc0737          	lui	a4,0xfffc0
     d0a:	177d                	addi	a4,a4,-1
     d0c:	8f75                	and	a4,a4,a3
     d0e:	c398                	sw	a4,0(a5)
E:/wch307/CHV307_Library-master/Example/libraries/zf_common/zf_common_clock.c:55
    RCC->CFGR0 &= (uint32) 0xFF80FFFF;
     d10:	400217b7          	lui	a5,0x40021
     d14:	43d4                	lw	a3,4(a5)
     d16:	400217b7          	lui	a5,0x40021
     d1a:	ff810737          	lui	a4,0xff810
     d1e:	177d                	addi	a4,a4,-1
     d20:	8f75                	and	a4,a4,a3
     d22:	c3d8                	sw	a4,4(a5)
E:/wch307/CHV307_Library-master/Example/libraries/zf_common/zf_common_clock.c:56
    RCC->INTR   = (uint32) 0x009F0000;      // 禁用所有中断并清除挂起位
     d24:	400217b7          	lui	a5,0x40021
     d28:	009f0737          	lui	a4,0x9f0
     d2c:	c798                	sw	a4,8(a5)
E:/wch307/CHV307_Library-master/Example/libraries/zf_common/zf_common_clock.c:57
}
     d2e:	0001                	nop
     d30:	4432                	lw	s0,12(sp)
     d32:	0141                	addi	sp,sp,16
     d34:	8082                	ret

00000d36 <clock_set_freq>:
clock_set_freq():
E:/wch307/CHV307_Library-master/Example/libraries/zf_common/zf_common_clock.c:65
// 函数简介      核心时钟设置
// 参数说明     clock           时钟频率 推荐使用 zf_common_clock.h 中 system_clock_enum 定义的选项
// 返回参数     void
//-------------------------------------------------------------------------------------------------------------------
void clock_set_freq(uint32 clock)
{
     d36:	7179                	addi	sp,sp,-48
     d38:	d606                	sw	ra,44(sp)
     d3a:	d422                	sw	s0,40(sp)
     d3c:	1800                	addi	s0,sp,48
     d3e:	fca42e23          	sw	a0,-36(s0)
E:/wch307/CHV307_Library-master/Example/libraries/zf_common/zf_common_clock.c:66
    clock_reset();
     d42:	3fbd                	jal	cc0 <clock_reset>
E:/wch307/CHV307_Library-master/Example/libraries/zf_common/zf_common_clock.c:67
    __IO uint32_t StartUpCounter = 0, HSEStatus = 0;
     d44:	fe042623          	sw	zero,-20(s0)
     d48:	fe042423          	sw	zero,-24(s0)
E:/wch307/CHV307_Library-master/Example/libraries/zf_common/zf_common_clock.c:69

    RCC->CTLR |= ((uint32_t) RCC_HSEON);
     d4c:	400217b7          	lui	a5,0x40021
     d50:	4394                	lw	a3,0(a5)
     d52:	400217b7          	lui	a5,0x40021
     d56:	6741                	lui	a4,0x10
     d58:	8f55                	or	a4,a4,a3
     d5a:	c398                	sw	a4,0(a5)
E:/wch307/CHV307_Library-master/Example/libraries/zf_common/zf_common_clock.c:73 (discriminator 2)

    /* Wait till HSE is ready and if Time out is reached exit */
    do {
        HSEStatus = RCC->CTLR & RCC_HSERDY;
     d5c:	400217b7          	lui	a5,0x40021
     d60:	4398                	lw	a4,0(a5)
     d62:	000207b7          	lui	a5,0x20
     d66:	8ff9                	and	a5,a5,a4
     d68:	fef42423          	sw	a5,-24(s0)
E:/wch307/CHV307_Library-master/Example/libraries/zf_common/zf_common_clock.c:74 (discriminator 2)
        StartUpCounter++;
     d6c:	fec42783          	lw	a5,-20(s0)
     d70:	0785                	addi	a5,a5,1
     d72:	fef42623          	sw	a5,-20(s0)
E:/wch307/CHV307_Library-master/Example/libraries/zf_common/zf_common_clock.c:75 (discriminator 2)
    } while ((HSEStatus == 0) && (StartUpCounter != HSE_STARTUP_TIMEOUT));
     d76:	fe842783          	lw	a5,-24(s0)
     d7a:	e791                	bnez	a5,d86 <clock_set_freq+0x50>
E:/wch307/CHV307_Library-master/Example/libraries/zf_common/zf_common_clock.c:75 (discriminator 1)
     d7c:	fec42703          	lw	a4,-20(s0)
     d80:	6785                	lui	a5,0x1
     d82:	fcf71de3          	bne	a4,a5,d5c <clock_set_freq+0x26>
E:/wch307/CHV307_Library-master/Example/libraries/zf_common/zf_common_clock.c:77

    if ((RCC->CTLR & RCC_HSERDY) != RESET)
     d86:	400217b7          	lui	a5,0x40021
     d8a:	4398                	lw	a4,0(a5)
     d8c:	000207b7          	lui	a5,0x20
     d90:	8ff9                	and	a5,a5,a4
     d92:	c789                	beqz	a5,d9c <clock_set_freq+0x66>
E:/wch307/CHV307_Library-master/Example/libraries/zf_common/zf_common_clock.c:79
    {
        HSEStatus = (uint32_t) 0x01;
     d94:	4785                	li	a5,1
     d96:	fef42423          	sw	a5,-24(s0)
     d9a:	a019                	j	da0 <clock_set_freq+0x6a>
E:/wch307/CHV307_Library-master/Example/libraries/zf_common/zf_common_clock.c:83
    }
    else
    {
        HSEStatus = (uint32_t) 0x00;
     d9c:	fe042423          	sw	zero,-24(s0)
E:/wch307/CHV307_Library-master/Example/libraries/zf_common/zf_common_clock.c:86
    }

    if (HSEStatus == (uint32_t) 0x01)
     da0:	fe842703          	lw	a4,-24(s0)
     da4:	4785                	li	a5,1
     da6:	16f71263          	bne	a4,a5,f0a <clock_set_freq+0x1d4>
E:/wch307/CHV307_Library-master/Example/libraries/zf_common/zf_common_clock.c:97
//        /* Flash 2 wait state */
//        FLASH->ACTLR &= (uint32_t)((uint32_t)~FLASH_ACTLR_LATENCY);   ((uint8_t)0x03)
//        FLASH->ACTLR |= (uint32_t)FLASH_ACTLR_LATENCY_2;              ((uint8_t)0x02)

        /* HCLK = SYSCLK */
        RCC->CFGR0 |= (uint32_t) RCC_HPRE_DIV1;
     daa:	40021737          	lui	a4,0x40021
     dae:	400217b7          	lui	a5,0x40021
     db2:	4358                	lw	a4,4(a4)
     db4:	c3d8                	sw	a4,4(a5)
E:/wch307/CHV307_Library-master/Example/libraries/zf_common/zf_common_clock.c:99
        /* PCLK2 = HCLK */
        RCC->CFGR0 |= (uint32_t) RCC_PPRE2_DIV1;
     db6:	40021737          	lui	a4,0x40021
     dba:	400217b7          	lui	a5,0x40021
     dbe:	4358                	lw	a4,4(a4)
     dc0:	c3d8                	sw	a4,4(a5)
E:/wch307/CHV307_Library-master/Example/libraries/zf_common/zf_common_clock.c:101
        /* PCLK1 = HCLK */
        RCC->CFGR0 |= (uint32_t) RCC_PPRE1_DIV1;
     dc2:	40021737          	lui	a4,0x40021
     dc6:	400217b7          	lui	a5,0x40021
     dca:	4358                	lw	a4,4(a4)
     dcc:	c3d8                	sw	a4,4(a5)
E:/wch307/CHV307_Library-master/Example/libraries/zf_common/zf_common_clock.c:104

        /*  PLL configuration: PLLCLK = HSE * ? = ? MHz */
        RCC->CFGR0 &= (uint32) ((uint32) ~(RCC_PLLSRC | RCC_PLLXTPRE
     dce:	400217b7          	lui	a5,0x40021
     dd2:	43d4                	lw	a3,4(a5)
     dd4:	400217b7          	lui	a5,0x40021
     dd8:	ffc10737          	lui	a4,0xffc10
     ddc:	177d                	addi	a4,a4,-1
     dde:	8f75                	and	a4,a4,a3
     de0:	c3d8                	sw	a4,4(a5)
E:/wch307/CHV307_Library-master/Example/libraries/zf_common/zf_common_clock.c:107
                | RCC_PLLMULL));

        if (clock == SYSTEM_CLOCK_144M)
     de2:	fdc42703          	lw	a4,-36(s0)
     de6:	089547b7          	lui	a5,0x8954
     dea:	40078793          	addi	a5,a5,1024 # 8954400 <_data_lma+0x894902c>
     dee:	00f71b63          	bne	a4,a5,e04 <clock_set_freq+0xce>
E:/wch307/CHV307_Library-master/Example/libraries/zf_common/zf_common_clock.c:108
            RCC->CFGR0 |= (uint32) (RCC_PLLSRC_HSE | RCC_PLLXTPRE_HSE
     df2:	400217b7          	lui	a5,0x40021
     df6:	43d4                	lw	a3,4(a5)
     df8:	400217b7          	lui	a5,0x40021
     dfc:	6741                	lui	a4,0x10
     dfe:	8f55                	or	a4,a4,a3
     e00:	c3d8                	sw	a4,4(a5)
     e02:	a855                	j	eb6 <clock_set_freq+0x180>
E:/wch307/CHV307_Library-master/Example/libraries/zf_common/zf_common_clock.c:110
                    | RCC_PLLMULL18_EXTEN);
        else if (clock == SYSTEM_CLOCK_120M)
     e04:	fdc42703          	lw	a4,-36(s0)
     e08:	072717b7          	lui	a5,0x7271
     e0c:	e0078793          	addi	a5,a5,-512 # 7270e00 <_data_lma+0x7265a2c>
     e10:	00f71c63          	bne	a4,a5,e28 <clock_set_freq+0xf2>
E:/wch307/CHV307_Library-master/Example/libraries/zf_common/zf_common_clock.c:111
            RCC->CFGR0 |= (uint32) (RCC_PLLSRC_HSE | RCC_PLLXTPRE_HSE
     e14:	400217b7          	lui	a5,0x40021
     e18:	43d4                	lw	a3,4(a5)
     e1a:	400217b7          	lui	a5,0x40021
     e1e:	00390737          	lui	a4,0x390
     e22:	8f55                	or	a4,a4,a3
     e24:	c3d8                	sw	a4,4(a5)
     e26:	a841                	j	eb6 <clock_set_freq+0x180>
E:/wch307/CHV307_Library-master/Example/libraries/zf_common/zf_common_clock.c:113
                    | RCC_PLLMULL15_EXTEN);
        else if (clock == SYSTEM_CLOCK_96M)
     e28:	fdc42703          	lw	a4,-36(s0)
     e2c:	05b8e7b7          	lui	a5,0x5b8e
     e30:	80078793          	addi	a5,a5,-2048 # 5b8d800 <_data_lma+0x5b8242c>
     e34:	00f71c63          	bne	a4,a5,e4c <clock_set_freq+0x116>
E:/wch307/CHV307_Library-master/Example/libraries/zf_common/zf_common_clock.c:114
            RCC->CFGR0 |= (uint32) (RCC_PLLSRC_HSE | RCC_PLLXTPRE_HSE
     e38:	400217b7          	lui	a5,0x40021
     e3c:	43d4                	lw	a3,4(a5)
     e3e:	400217b7          	lui	a5,0x40021
     e42:	00290737          	lui	a4,0x290
     e46:	8f55                	or	a4,a4,a3
     e48:	c3d8                	sw	a4,4(a5)
     e4a:	a0b5                	j	eb6 <clock_set_freq+0x180>
E:/wch307/CHV307_Library-master/Example/libraries/zf_common/zf_common_clock.c:116
                    | RCC_PLLMULL12_EXTEN);
        else if (clock == SYSTEM_CLOCK_72M)
     e4c:	fdc42703          	lw	a4,-36(s0)
     e50:	044aa7b7          	lui	a5,0x44aa
     e54:	20078793          	addi	a5,a5,512 # 44aa200 <_data_lma+0x449ee2c>
     e58:	00f71c63          	bne	a4,a5,e70 <clock_set_freq+0x13a>
E:/wch307/CHV307_Library-master/Example/libraries/zf_common/zf_common_clock.c:117
            RCC->CFGR0 |= (uint32) (RCC_PLLSRC_HSE | RCC_PLLXTPRE_HSE
     e5c:	400217b7          	lui	a5,0x40021
     e60:	43d4                	lw	a3,4(a5)
     e62:	400217b7          	lui	a5,0x40021
     e66:	001d0737          	lui	a4,0x1d0
     e6a:	8f55                	or	a4,a4,a3
     e6c:	c3d8                	sw	a4,4(a5)
     e6e:	a0a1                	j	eb6 <clock_set_freq+0x180>
E:/wch307/CHV307_Library-master/Example/libraries/zf_common/zf_common_clock.c:119
                    | RCC_PLLMULL9_EXTEN);
        else if (clock == SYSTEM_CLOCK_48M)
     e70:	fdc42703          	lw	a4,-36(s0)
     e74:	02dc77b7          	lui	a5,0x2dc7
     e78:	c0078793          	addi	a5,a5,-1024 # 2dc6c00 <_data_lma+0x2dbb82c>
     e7c:	00f71c63          	bne	a4,a5,e94 <clock_set_freq+0x15e>
E:/wch307/CHV307_Library-master/Example/libraries/zf_common/zf_common_clock.c:120
            RCC->CFGR0 |= (uint32) (RCC_PLLSRC_HSE | RCC_PLLXTPRE_HSE
     e80:	400217b7          	lui	a5,0x40021
     e84:	43d4                	lw	a3,4(a5)
     e86:	400217b7          	lui	a5,0x40021
     e8a:	00110737          	lui	a4,0x110
     e8e:	8f55                	or	a4,a4,a3
     e90:	c3d8                	sw	a4,4(a5)
     e92:	a015                	j	eb6 <clock_set_freq+0x180>
E:/wch307/CHV307_Library-master/Example/libraries/zf_common/zf_common_clock.c:122
                    | RCC_PLLMULL6_EXTEN);
        else if (clock == SYSTEM_CLOCK_24M)
     e94:	fdc42703          	lw	a4,-36(s0)
     e98:	016e37b7          	lui	a5,0x16e3
     e9c:	60078793          	addi	a5,a5,1536 # 16e3600 <_data_lma+0x16d822c>
     ea0:	00f71b63          	bne	a4,a5,eb6 <clock_set_freq+0x180>
E:/wch307/CHV307_Library-master/Example/libraries/zf_common/zf_common_clock.c:123
            RCC->CFGR0 |= (uint32) (RCC_PLLSRC_HSE | RCC_PLLXTPRE_HSE
     ea4:	400217b7          	lui	a5,0x40021
     ea8:	43d4                	lw	a3,4(a5)
     eaa:	400217b7          	lui	a5,0x40021
     eae:	00050737          	lui	a4,0x50
     eb2:	8f55                	or	a4,a4,a3
     eb4:	c3d8                	sw	a4,4(a5)
E:/wch307/CHV307_Library-master/Example/libraries/zf_common/zf_common_clock.c:127
                    | RCC_PLLMULL3_EXTEN);

        /* Enable PLL */
        RCC->CTLR |= RCC_PLLON;
     eb6:	400217b7          	lui	a5,0x40021
     eba:	4394                	lw	a3,0(a5)
     ebc:	400217b7          	lui	a5,0x40021
     ec0:	01000737          	lui	a4,0x1000
     ec4:	8f55                	or	a4,a4,a3
     ec6:	c398                	sw	a4,0(a5)
E:/wch307/CHV307_Library-master/Example/libraries/zf_common/zf_common_clock.c:129
        /* Wait till PLL is ready */
        while((RCC->CTLR & RCC_PLLRDY) == 0)
     ec8:	0001                	nop
E:/wch307/CHV307_Library-master/Example/libraries/zf_common/zf_common_clock.c:129 (discriminator 1)
     eca:	400217b7          	lui	a5,0x40021
     ece:	4398                	lw	a4,0(a5)
     ed0:	020007b7          	lui	a5,0x2000
     ed4:	8ff9                	and	a5,a5,a4
     ed6:	dbf5                	beqz	a5,eca <clock_set_freq+0x194>
E:/wch307/CHV307_Library-master/Example/libraries/zf_common/zf_common_clock.c:133
        {
        }
        /* Select PLL as system clock source */
        RCC->CFGR0 &= (uint32_t) ((uint32_t) ~(RCC_SW));
     ed8:	400217b7          	lui	a5,0x40021
     edc:	43d8                	lw	a4,4(a5)
     ede:	400217b7          	lui	a5,0x40021
     ee2:	9b71                	andi	a4,a4,-4
     ee4:	c3d8                	sw	a4,4(a5)
E:/wch307/CHV307_Library-master/Example/libraries/zf_common/zf_common_clock.c:134
        RCC->CFGR0 |= (uint32_t) RCC_SW_PLL;
     ee6:	400217b7          	lui	a5,0x40021
     eea:	43d8                	lw	a4,4(a5)
     eec:	400217b7          	lui	a5,0x40021
     ef0:	00276713          	ori	a4,a4,2
     ef4:	c3d8                	sw	a4,4(a5)
E:/wch307/CHV307_Library-master/Example/libraries/zf_common/zf_common_clock.c:136
        /* Wait till PLL is used as system clock source */
        while ((RCC->CFGR0 & (uint32_t)RCC_SWS) != (uint32_t)0x08)
     ef6:	0001                	nop
E:/wch307/CHV307_Library-master/Example/libraries/zf_common/zf_common_clock.c:136 (discriminator 1)
     ef8:	400217b7          	lui	a5,0x40021
     efc:	43dc                	lw	a5,4(a5)
     efe:	00c7f713          	andi	a4,a5,12
     f02:	47a1                	li	a5,8
     f04:	fef71ae3          	bne	a4,a5,ef8 <clock_set_freq+0x1c2>
E:/wch307/CHV307_Library-master/Example/libraries/zf_common/zf_common_clock.c:149
        /*
         * If HSE fails to start-up, the application will have wrong clock
         * configuration. User can add here some code to deal with this error
         */
    }
}
     f08:	a011                	j	f0c <clock_set_freq+0x1d6>
E:/wch307/CHV307_Library-master/Example/libraries/zf_common/zf_common_clock.c:142 (discriminator 1)
        while(1);
     f0a:	a001                	j	f0a <clock_set_freq+0x1d4>
E:/wch307/CHV307_Library-master/Example/libraries/zf_common/zf_common_clock.c:149
}
     f0c:	50b2                	lw	ra,44(sp)
     f0e:	5422                	lw	s0,40(sp)
     f10:	6145                	addi	sp,sp,48
     f12:	8082                	ret

00000f14 <clock_init>:
clock_init():
E:/wch307/CHV307_Library-master/Example/libraries/zf_common/zf_common_clock.c:158
// 参数说明     clock           时钟频率 推荐使用 zf_common_clock.h 中 system_clock_enum 定义的选项
// 返回参数     void
// 使用示例     clock_init(SYSTEM_CLOCK_144M);                   // 初始化核心时钟为 144MHz
//-------------------------------------------------------------------------------------------------------------------
void clock_init(uint32 clock)
{
     f14:	1101                	addi	sp,sp,-32
     f16:	ce06                	sw	ra,28(sp)
     f18:	cc22                	sw	s0,24(sp)
     f1a:	1000                	addi	s0,sp,32
     f1c:	fea42623          	sw	a0,-20(s0)
E:/wch307/CHV307_Library-master/Example/libraries/zf_common/zf_common_clock.c:160

    system_clock = clock;                                            // 记录核心时钟频率
     f20:	fec42703          	lw	a4,-20(s0)
     f24:	80e1a623          	sw	a4,-2036(gp) # 20000244 <system_clock>
E:/wch307/CHV307_Library-master/Example/libraries/zf_common/zf_common_clock.c:161
    clock_reset();
     f28:	3b61                	jal	cc0 <clock_reset>
E:/wch307/CHV307_Library-master/Example/libraries/zf_common/zf_common_clock.c:162
    clock_set_freq(clock);
     f2a:	fec42503          	lw	a0,-20(s0)
     f2e:	3521                	jal	d36 <clock_set_freq>
E:/wch307/CHV307_Library-master/Example/libraries/zf_common/zf_common_clock.c:164

    interrupt_init();
     f30:	739000ef          	jal	ra,1e68 <interrupt_init>
E:/wch307/CHV307_Library-master/Example/libraries/zf_common/zf_common_clock.c:167


}
     f34:	0001                	nop
     f36:	40f2                	lw	ra,28(sp)
     f38:	4462                	lw	s0,24(sp)
     f3a:	6105                	addi	sp,sp,32
     f3c:	8082                	ret

00000f3e <__NOP>:
__NOP():
E:\wch307\CHV307_Library-master\Example\libraries\sdk\Core/core_riscv.h:148
 * @brief   nop
 *
 * @return  none
 */
RV_STATIC_INLINE void __NOP()
{
     f3e:	1141                	addi	sp,sp,-16
     f40:	c622                	sw	s0,12(sp)
     f42:	0800                	addi	s0,sp,16
E:\wch307\CHV307_Library-master\Example\libraries\sdk\Core/core_riscv.h:149
  __asm volatile ("nop");
     f44:	0001                	nop
E:\wch307\CHV307_Library-master\Example\libraries\sdk\Core/core_riscv.h:150
}
     f46:	0001                	nop
     f48:	4432                	lw	s0,12(sp)
     f4a:	0141                	addi	sp,sp,16
     f4c:	8082                	ret

00000f4e <debug_delay>:
debug_delay():
E:/wch307/CHV307_Library-master/Example/libraries/zf_common/zf_common_debug.c:61
// 参数说明     *file       文件名
// 参数说明     line        目标行数
// 返回参数     void
//-------------------------------------------------------------------------------------------------------------------
static void debug_delay (void)
{
     f4e:	1101                	addi	sp,sp,-32
     f50:	ce06                	sw	ra,28(sp)
     f52:	cc22                	sw	s0,24(sp)
     f54:	1000                	addi	s0,sp,32
E:/wch307/CHV307_Library-master/Example/libraries/zf_common/zf_common_debug.c:62
    vuint32 loop_1 = 0, loop_2 = 0;
     f56:	fe042623          	sw	zero,-20(s0)
     f5a:	fe042423          	sw	zero,-24(s0)
E:/wch307/CHV307_Library-master/Example/libraries/zf_common/zf_common_debug.c:63
    for(loop_1 = 0; loop_1 <= 0xFF; loop_1 ++)
     f5e:	fe042623          	sw	zero,-20(s0)
     f62:	a025                	j	f8a <debug_delay+0x3c>
E:/wch307/CHV307_Library-master/Example/libraries/zf_common/zf_common_debug.c:64
        for(loop_2 = 0; loop_2 <= 0xFFFF; loop_2 ++)
     f64:	fe042423          	sw	zero,-24(s0)
     f68:	a039                	j	f76 <debug_delay+0x28>
E:/wch307/CHV307_Library-master/Example/libraries/zf_common/zf_common_debug.c:65 (discriminator 3)
            __NOP();
     f6a:	3fd1                	jal	f3e <__NOP>
E:/wch307/CHV307_Library-master/Example/libraries/zf_common/zf_common_debug.c:64 (discriminator 3)
        for(loop_2 = 0; loop_2 <= 0xFFFF; loop_2 ++)
     f6c:	fe842783          	lw	a5,-24(s0)
     f70:	0785                	addi	a5,a5,1
     f72:	fef42423          	sw	a5,-24(s0)
E:/wch307/CHV307_Library-master/Example/libraries/zf_common/zf_common_debug.c:64 (discriminator 1)
     f76:	fe842703          	lw	a4,-24(s0)
     f7a:	67c1                	lui	a5,0x10
     f7c:	fef767e3          	bltu	a4,a5,f6a <debug_delay+0x1c>
E:/wch307/CHV307_Library-master/Example/libraries/zf_common/zf_common_debug.c:63 (discriminator 2)
    for(loop_1 = 0; loop_1 <= 0xFF; loop_1 ++)
     f80:	fec42783          	lw	a5,-20(s0)
     f84:	0785                	addi	a5,a5,1
     f86:	fef42623          	sw	a5,-20(s0)
E:/wch307/CHV307_Library-master/Example/libraries/zf_common/zf_common_debug.c:63 (discriminator 1)
     f8a:	fec42703          	lw	a4,-20(s0)
     f8e:	0ff00793          	li	a5,255
     f92:	fce7f9e3          	bgeu	a5,a4,f64 <debug_delay+0x16>
E:/wch307/CHV307_Library-master/Example/libraries/zf_common/zf_common_debug.c:66
}
     f96:	0001                	nop
     f98:	40f2                	lw	ra,28(sp)
     f9a:	4462                	lw	s0,24(sp)
     f9c:	6105                	addi	sp,sp,32
     f9e:	8082                	ret

00000fa0 <debug_protective_handler>:
debug_protective_handler():
E:/wch307/CHV307_Library-master/Example/libraries/zf_common/zf_common_debug.c:77
// 返回参数     void
// 使用示例     debug_protective_handler();
// 备注信息     本函数在文件内部调用 用户不用关注 也不可修改
//-------------------------------------------------------------------------------------------------------------------
static void debug_protective_handler (void)
{
     fa0:	1141                	addi	sp,sp,-16
     fa2:	c622                	sw	s0,12(sp)
     fa4:	0800                	addi	s0,sp,16
E:/wch307/CHV307_Library-master/Example/libraries/zf_common/zf_common_debug.c:79
   // 暂未更新
}
     fa6:	0001                	nop
     fa8:	4432                	lw	s0,12(sp)
     faa:	0141                	addi	sp,sp,16
     fac:	8082                	ret

00000fae <debug_output>:
debug_output():
E:/wch307/CHV307_Library-master/Example/libraries/zf_common/zf_common_debug.c:104
// 返回参数     void
// 使用示例     debug_output("Log message", file, line, str);
// 备注信息     本函数在文件内部调用 用户不用关注 也不可修改
//-------------------------------------------------------------------------------------------------------------------
static void debug_output (char *type, char *file, int line, char *str)
{
     fae:	d9010113          	addi	sp,sp,-624
     fb2:	26112623          	sw	ra,620(sp)
     fb6:	26812423          	sw	s0,616(sp)
     fba:	26912223          	sw	s1,612(sp)
     fbe:	1c80                	addi	s0,sp,624
     fc0:	d8a42e23          	sw	a0,-612(s0)
     fc4:	d8b42c23          	sw	a1,-616(s0)
     fc8:	d8c42a23          	sw	a2,-620(s0)
     fcc:	d8d42823          	sw	a3,-624(s0)
E:/wch307/CHV307_Library-master/Example/libraries/zf_common/zf_common_debug.c:106
    char *file_str;
    vuint16 i = 0, j = 0;
     fd0:	fe041523          	sh	zero,-22(s0)
     fd4:	fe041423          	sh	zero,-24(s0)
E:/wch307/CHV307_Library-master/Example/libraries/zf_common/zf_common_debug.c:107
    vint16 len_origin = 0;
     fd8:	fe041323          	sh	zero,-26(s0)
E:/wch307/CHV307_Library-master/Example/libraries/zf_common/zf_common_debug.c:108
    vint16 show_len = 0;
     fdc:	fe041223          	sh	zero,-28(s0)
E:/wch307/CHV307_Library-master/Example/libraries/zf_common/zf_common_debug.c:109
    vint16 show_line_index = 0;
     fe0:	fe041123          	sh	zero,-30(s0)
E:/wch307/CHV307_Library-master/Example/libraries/zf_common/zf_common_debug.c:110
    len_origin = strlen(file);
     fe4:	d9842503          	lw	a0,-616(s0)
     fe8:	1f6070ef          	jal	ra,81de <strlen>
     fec:	87aa                	mv	a5,a0
     fee:	07c2                	slli	a5,a5,0x10
     ff0:	87c1                	srai	a5,a5,0x10
     ff2:	fef41323          	sh	a5,-26(s0)
E:/wch307/CHV307_Library-master/Example/libraries/zf_common/zf_common_debug.c:115

    char output_buffer[256];
    char file_path_buffer[64];

    if(debug_output_info.type_index)
     ff6:	8741d783          	lhu	a5,-1932(gp) # 200002ac <debug_output_info>
     ffa:	c789                	beqz	a5,1004 <debug_output+0x56>
E:/wch307/CHV307_Library-master/Example/libraries/zf_common/zf_common_debug.c:117
    {
        debug_output_info.output_screen_clear();
     ffc:	87418793          	addi	a5,gp,-1932 # 200002ac <debug_output_info>
    1000:	4b9c                	lw	a5,16(a5)
    1002:	9782                	jalr	a5
E:/wch307/CHV307_Library-master/Example/libraries/zf_common/zf_common_debug.c:120
    }

    if(zf_debug_init_flag)
    1004:	8381c783          	lbu	a5,-1992(gp) # 20000270 <_edata>
    1008:	0ff7f793          	andi	a5,a5,255
    100c:	4a078d63          	beqz	a5,14c6 <debug_output+0x518>
E:/wch307/CHV307_Library-master/Example/libraries/zf_common/zf_common_debug.c:122
    {
        if(debug_output_info.type_index)
    1010:	8741d783          	lhu	a5,-1932(gp) # 200002ac <debug_output_info>
    1014:	44078763          	beqz	a5,1462 <debug_output+0x4b4>
E:/wch307/CHV307_Library-master/Example/libraries/zf_common/zf_common_debug.c:127
        {
            // 需要分行将文件的路径和行数输出
            // <不输出完整路径 只输出一级目录 例如 src/main.c>
            // 输出 line : xxxx
            debug_output_info.output_screen(0, show_line_index ++, type);
    1018:	87418793          	addi	a5,gp,-1932 # 200002ac <debug_output_info>
    101c:	47d4                	lw	a3,12(a5)
    101e:	fe245783          	lhu	a5,-30(s0)
    1022:	01079713          	slli	a4,a5,0x10
    1026:	8741                	srai	a4,a4,0x10
    1028:	01071793          	slli	a5,a4,0x10
    102c:	83c1                	srli	a5,a5,0x10
    102e:	0785                	addi	a5,a5,1
    1030:	07c2                	slli	a5,a5,0x10
    1032:	83c1                	srli	a5,a5,0x10
    1034:	07c2                	slli	a5,a5,0x10
    1036:	87c1                	srai	a5,a5,0x10
    1038:	fef41123          	sh	a5,-30(s0)
    103c:	01071793          	slli	a5,a4,0x10
    1040:	83c1                	srli	a5,a5,0x10
    1042:	d9c42603          	lw	a2,-612(s0)
    1046:	85be                	mv	a1,a5
    1048:	4501                	li	a0,0
    104a:	9682                	jalr	a3
E:/wch307/CHV307_Library-master/Example/libraries/zf_common/zf_common_debug.c:129

            file_str = file;
    104c:	d9842783          	lw	a5,-616(s0)
    1050:	fef42623          	sw	a5,-20(s0)
E:/wch307/CHV307_Library-master/Example/libraries/zf_common/zf_common_debug.c:130
            len_origin = strlen(file);
    1054:	d9842503          	lw	a0,-616(s0)
    1058:	186070ef          	jal	ra,81de <strlen>
    105c:	87aa                	mv	a5,a0
    105e:	07c2                	slli	a5,a5,0x10
    1060:	87c1                	srai	a5,a5,0x10
    1062:	fef41323          	sh	a5,-26(s0)
E:/wch307/CHV307_Library-master/Example/libraries/zf_common/zf_common_debug.c:131
            show_len = (debug_output_info.display_x_max / debug_output_info.font_x_size);
    1066:	87418793          	addi	a5,gp,-1932 # 200002ac <debug_output_info>
    106a:	0027d783          	lhu	a5,2(a5) # 10002 <_data_lma+0x4c2e>
    106e:	873e                	mv	a4,a5
    1070:	87418793          	addi	a5,gp,-1932 # 200002ac <debug_output_info>
    1074:	0067c783          	lbu	a5,6(a5)
    1078:	02f747b3          	div	a5,a4,a5
    107c:	07c2                	slli	a5,a5,0x10
    107e:	87c1                	srai	a5,a5,0x10
    1080:	fef41223          	sh	a5,-28(s0)
E:/wch307/CHV307_Library-master/Example/libraries/zf_common/zf_common_debug.c:133

            while(*file_str++ != '\0');
    1084:	0001                	nop
E:/wch307/CHV307_Library-master/Example/libraries/zf_common/zf_common_debug.c:133 (discriminator 1)
    1086:	fec42783          	lw	a5,-20(s0)
    108a:	00178713          	addi	a4,a5,1
    108e:	fee42623          	sw	a4,-20(s0)
    1092:	00078783          	lb	a5,0(a5)
    1096:	fbe5                	bnez	a5,1086 <debug_output+0xd8>
E:/wch307/CHV307_Library-master/Example/libraries/zf_common/zf_common_debug.c:136

            // 只取一级目录 如果文件放在盘符根目录 或者 MDK 的工程根目录 就会直接输出当前目录
            for(j = 0; (j < 2) && (len_origin >= 0); len_origin --)             // 查找两个 '/'
    1098:	fe041423          	sh	zero,-24(s0)
    109c:	a8a1                	j	10f4 <debug_output+0x146>
E:/wch307/CHV307_Library-master/Example/libraries/zf_common/zf_common_debug.c:138
            {
                file_str --;
    109e:	fec42783          	lw	a5,-20(s0)
    10a2:	17fd                	addi	a5,a5,-1
    10a4:	fef42623          	sw	a5,-20(s0)
E:/wch307/CHV307_Library-master/Example/libraries/zf_common/zf_common_debug.c:139
                if((*file_str == '/') || (*file_str == 0x5C))
    10a8:	fec42783          	lw	a5,-20(s0)
    10ac:	00078703          	lb	a4,0(a5)
    10b0:	02f00793          	li	a5,47
    10b4:	00f70a63          	beq	a4,a5,10c8 <debug_output+0x11a>
E:/wch307/CHV307_Library-master/Example/libraries/zf_common/zf_common_debug.c:139 (discriminator 1)
    10b8:	fec42783          	lw	a5,-20(s0)
    10bc:	00078703          	lb	a4,0(a5)
    10c0:	05c00793          	li	a5,92
    10c4:	00f71b63          	bne	a4,a5,10da <debug_output+0x12c>
E:/wch307/CHV307_Library-master/Example/libraries/zf_common/zf_common_debug.c:141
                {
                    j ++;
    10c8:	fe845783          	lhu	a5,-24(s0)
    10cc:	07c2                	slli	a5,a5,0x10
    10ce:	83c1                	srli	a5,a5,0x10
    10d0:	0785                	addi	a5,a5,1
    10d2:	07c2                	slli	a5,a5,0x10
    10d4:	83c1                	srli	a5,a5,0x10
    10d6:	fef41423          	sh	a5,-24(s0)
E:/wch307/CHV307_Library-master/Example/libraries/zf_common/zf_common_debug.c:136 (discriminator 2)
            for(j = 0; (j < 2) && (len_origin >= 0); len_origin --)             // 查找两个 '/'
    10da:	fe645783          	lhu	a5,-26(s0)
    10de:	07c2                	slli	a5,a5,0x10
    10e0:	87c1                	srai	a5,a5,0x10
    10e2:	07c2                	slli	a5,a5,0x10
    10e4:	83c1                	srli	a5,a5,0x10
    10e6:	17fd                	addi	a5,a5,-1
    10e8:	07c2                	slli	a5,a5,0x10
    10ea:	83c1                	srli	a5,a5,0x10
    10ec:	07c2                	slli	a5,a5,0x10
    10ee:	87c1                	srai	a5,a5,0x10
    10f0:	fef41323          	sh	a5,-26(s0)
E:/wch307/CHV307_Library-master/Example/libraries/zf_common/zf_common_debug.c:136 (discriminator 1)
    10f4:	fe845783          	lhu	a5,-24(s0)
    10f8:	01079713          	slli	a4,a5,0x10
    10fc:	8341                	srli	a4,a4,0x10
    10fe:	4785                	li	a5,1
    1100:	00e7e863          	bltu	a5,a4,1110 <debug_output+0x162>
E:/wch307/CHV307_Library-master/Example/libraries/zf_common/zf_common_debug.c:136 (discriminator 3)
    1104:	fe645783          	lhu	a5,-26(s0)
    1108:	07c2                	slli	a5,a5,0x10
    110a:	87c1                	srai	a5,a5,0x10
    110c:	f807d9e3          	bgez	a5,109e <debug_output+0xf0>
E:/wch307/CHV307_Library-master/Example/libraries/zf_common/zf_common_debug.c:146
                }
            }

            // 文件路径保存到数组中
            if(len_origin >= 0)
    1110:	fe645783          	lhu	a5,-26(s0)
    1114:	07c2                	slli	a5,a5,0x10
    1116:	87c1                	srai	a5,a5,0x10
    1118:	0207c263          	bltz	a5,113c <debug_output+0x18e>
E:/wch307/CHV307_Library-master/Example/libraries/zf_common/zf_common_debug.c:148
            {
                file_str ++;
    111c:	fec42783          	lw	a5,-20(s0)
    1120:	0785                	addi	a5,a5,1
    1122:	fef42623          	sw	a5,-20(s0)
E:/wch307/CHV307_Library-master/Example/libraries/zf_common/zf_common_debug.c:149
                sprintf(output_buffer, "file: %s", file_str);
    1126:	ee040713          	addi	a4,s0,-288
    112a:	fec42603          	lw	a2,-20(s0)
    112e:	67ad                	lui	a5,0xb
    1130:	c7c78593          	addi	a1,a5,-900 # ac7c <_sbrk+0x70>
    1134:	853a                	mv	a0,a4
    1136:	062070ef          	jal	ra,8198 <siprintf>
    113a:	a81d                	j	1170 <debug_output+0x1c2>
E:/wch307/CHV307_Library-master/Example/libraries/zf_common/zf_common_debug.c:153
            }
            else
            {
                if(0 == j)
    113c:	fe845783          	lhu	a5,-24(s0)
    1140:	07c2                	slli	a5,a5,0x10
    1142:	83c1                	srli	a5,a5,0x10
    1144:	ef81                	bnez	a5,115c <debug_output+0x1ae>
E:/wch307/CHV307_Library-master/Example/libraries/zf_common/zf_common_debug.c:155
                {
                    sprintf(output_buffer, "file: mdk/%s", file_str);
    1146:	ee040713          	addi	a4,s0,-288
    114a:	fec42603          	lw	a2,-20(s0)
    114e:	67ad                	lui	a5,0xb
    1150:	c8878593          	addi	a1,a5,-888 # ac88 <_sbrk+0x7c>
    1154:	853a                	mv	a0,a4
    1156:	042070ef          	jal	ra,8198 <siprintf>
    115a:	a819                	j	1170 <debug_output+0x1c2>
E:/wch307/CHV307_Library-master/Example/libraries/zf_common/zf_common_debug.c:159
                }
                else
                {
                    sprintf(output_buffer, "file: %s", file_str);
    115c:	ee040713          	addi	a4,s0,-288
    1160:	fec42603          	lw	a2,-20(s0)
    1164:	67ad                	lui	a5,0xb
    1166:	c7c78593          	addi	a1,a5,-900 # ac7c <_sbrk+0x70>
    116a:	853a                	mv	a0,a4
    116c:	02c070ef          	jal	ra,8198 <siprintf>
E:/wch307/CHV307_Library-master/Example/libraries/zf_common/zf_common_debug.c:164
                }
            }

            // 屏幕显示路径
            for(i = 0; i < ((strlen(output_buffer) / show_len) + 1); i ++)
    1170:	fe041523          	sh	zero,-22(s0)
    1174:	aa21                	j	128c <debug_output+0x2de>
E:/wch307/CHV307_Library-master/Example/libraries/zf_common/zf_common_debug.c:166
            {
                for(j = 0; j < show_len; j ++)
    1176:	fe041423          	sh	zero,-24(s0)
    117a:	a059                	j	1200 <debug_output+0x252>
E:/wch307/CHV307_Library-master/Example/libraries/zf_common/zf_common_debug.c:168
                {
                    if(strlen(output_buffer) < (j + i * show_len))
    117c:	ee040793          	addi	a5,s0,-288
    1180:	853e                	mv	a0,a5
    1182:	05c070ef          	jal	ra,81de <strlen>
    1186:	872a                	mv	a4,a0
    1188:	fe845783          	lhu	a5,-24(s0)
    118c:	07c2                	slli	a5,a5,0x10
    118e:	83c1                	srli	a5,a5,0x10
    1190:	86be                	mv	a3,a5
    1192:	fea45783          	lhu	a5,-22(s0)
    1196:	07c2                	slli	a5,a5,0x10
    1198:	83c1                	srli	a5,a5,0x10
    119a:	863e                	mv	a2,a5
    119c:	fe445783          	lhu	a5,-28(s0)
    11a0:	07c2                	slli	a5,a5,0x10
    11a2:	87c1                	srai	a5,a5,0x10
    11a4:	02f607b3          	mul	a5,a2,a5
    11a8:	97b6                	add	a5,a5,a3
    11aa:	06f76763          	bltu	a4,a5,1218 <debug_output+0x26a>
E:/wch307/CHV307_Library-master/Example/libraries/zf_common/zf_common_debug.c:172 (discriminator 2)
                    {
                        break;
                    }
                    file_path_buffer[j] = output_buffer[j + i * show_len];
    11ae:	fe845783          	lhu	a5,-24(s0)
    11b2:	07c2                	slli	a5,a5,0x10
    11b4:	83c1                	srli	a5,a5,0x10
    11b6:	873e                	mv	a4,a5
    11b8:	fea45783          	lhu	a5,-22(s0)
    11bc:	07c2                	slli	a5,a5,0x10
    11be:	83c1                	srli	a5,a5,0x10
    11c0:	86be                	mv	a3,a5
    11c2:	fe445783          	lhu	a5,-28(s0)
    11c6:	07c2                	slli	a5,a5,0x10
    11c8:	87c1                	srai	a5,a5,0x10
    11ca:	02f687b3          	mul	a5,a3,a5
    11ce:	97ba                	add	a5,a5,a4
    11d0:	fe845703          	lhu	a4,-24(s0)
    11d4:	0742                	slli	a4,a4,0x10
    11d6:	8341                	srli	a4,a4,0x10
    11d8:	86ba                	mv	a3,a4
    11da:	ff040713          	addi	a4,s0,-16
    11de:	97ba                	add	a5,a5,a4
    11e0:	ef078703          	lb	a4,-272(a5)
    11e4:	ff040793          	addi	a5,s0,-16
    11e8:	97b6                	add	a5,a5,a3
    11ea:	eae78823          	sb	a4,-336(a5)
E:/wch307/CHV307_Library-master/Example/libraries/zf_common/zf_common_debug.c:166 (discriminator 2)
                for(j = 0; j < show_len; j ++)
    11ee:	fe845783          	lhu	a5,-24(s0)
    11f2:	07c2                	slli	a5,a5,0x10
    11f4:	83c1                	srli	a5,a5,0x10
    11f6:	0785                	addi	a5,a5,1
    11f8:	07c2                	slli	a5,a5,0x10
    11fa:	83c1                	srli	a5,a5,0x10
    11fc:	fef41423          	sh	a5,-24(s0)
E:/wch307/CHV307_Library-master/Example/libraries/zf_common/zf_common_debug.c:166 (discriminator 1)
    1200:	fe845783          	lhu	a5,-24(s0)
    1204:	07c2                	slli	a5,a5,0x10
    1206:	83c1                	srli	a5,a5,0x10
    1208:	873e                	mv	a4,a5
    120a:	fe445783          	lhu	a5,-28(s0)
    120e:	07c2                	slli	a5,a5,0x10
    1210:	87c1                	srai	a5,a5,0x10
    1212:	f6f745e3          	blt	a4,a5,117c <debug_output+0x1ce>
    1216:	a011                	j	121a <debug_output+0x26c>
E:/wch307/CHV307_Library-master/Example/libraries/zf_common/zf_common_debug.c:170
                        break;
    1218:	0001                	nop
E:/wch307/CHV307_Library-master/Example/libraries/zf_common/zf_common_debug.c:175 (discriminator 2)
                }

                file_path_buffer[j] = '\0';                                     // 末尾添加\0
    121a:	fe845783          	lhu	a5,-24(s0)
    121e:	07c2                	slli	a5,a5,0x10
    1220:	83c1                	srli	a5,a5,0x10
    1222:	ff040713          	addi	a4,s0,-16
    1226:	97ba                	add	a5,a5,a4
    1228:	ea078823          	sb	zero,-336(a5)
E:/wch307/CHV307_Library-master/Example/libraries/zf_common/zf_common_debug.c:177 (discriminator 2)

                debug_output_info.output_screen(0, debug_output_info.font_y_size * show_line_index ++, file_path_buffer);
    122c:	87418793          	addi	a5,gp,-1932 # 200002ac <debug_output_info>
    1230:	00c7a803          	lw	a6,12(a5)
    1234:	87418793          	addi	a5,gp,-1932 # 200002ac <debug_output_info>
    1238:	0077c783          	lbu	a5,7(a5)
    123c:	01079713          	slli	a4,a5,0x10
    1240:	8341                	srli	a4,a4,0x10
    1242:	fe245783          	lhu	a5,-30(s0)
    1246:	01079693          	slli	a3,a5,0x10
    124a:	86c1                	srai	a3,a3,0x10
    124c:	01069793          	slli	a5,a3,0x10
    1250:	83c1                	srli	a5,a5,0x10
    1252:	0785                	addi	a5,a5,1
    1254:	07c2                	slli	a5,a5,0x10
    1256:	83c1                	srli	a5,a5,0x10
    1258:	07c2                	slli	a5,a5,0x10
    125a:	87c1                	srai	a5,a5,0x10
    125c:	fef41123          	sh	a5,-30(s0)
    1260:	01069793          	slli	a5,a3,0x10
    1264:	83c1                	srli	a5,a5,0x10
    1266:	02f707b3          	mul	a5,a4,a5
    126a:	07c2                	slli	a5,a5,0x10
    126c:	83c1                	srli	a5,a5,0x10
    126e:	ea040713          	addi	a4,s0,-352
    1272:	863a                	mv	a2,a4
    1274:	85be                	mv	a1,a5
    1276:	4501                	li	a0,0
    1278:	9802                	jalr	a6
E:/wch307/CHV307_Library-master/Example/libraries/zf_common/zf_common_debug.c:164 (discriminator 2)
            for(i = 0; i < ((strlen(output_buffer) / show_len) + 1); i ++)
    127a:	fea45783          	lhu	a5,-22(s0)
    127e:	07c2                	slli	a5,a5,0x10
    1280:	83c1                	srli	a5,a5,0x10
    1282:	0785                	addi	a5,a5,1
    1284:	07c2                	slli	a5,a5,0x10
    1286:	83c1                	srli	a5,a5,0x10
    1288:	fef41523          	sh	a5,-22(s0)
E:/wch307/CHV307_Library-master/Example/libraries/zf_common/zf_common_debug.c:164 (discriminator 1)
    128c:	fea45783          	lhu	a5,-22(s0)
    1290:	07c2                	slli	a5,a5,0x10
    1292:	83c1                	srli	a5,a5,0x10
    1294:	84be                	mv	s1,a5
    1296:	ee040793          	addi	a5,s0,-288
    129a:	853e                	mv	a0,a5
    129c:	743060ef          	jal	ra,81de <strlen>
    12a0:	872a                	mv	a4,a0
    12a2:	fe445783          	lhu	a5,-28(s0)
    12a6:	07c2                	slli	a5,a5,0x10
    12a8:	87c1                	srai	a5,a5,0x10
    12aa:	02f757b3          	divu	a5,a4,a5
    12ae:	0785                	addi	a5,a5,1
    12b0:	ecf4e3e3          	bltu	s1,a5,1176 <debug_output+0x1c8>
E:/wch307/CHV307_Library-master/Example/libraries/zf_common/zf_common_debug.c:181
            }

            // 屏幕显示行号
            sprintf(output_buffer, "line: %d", line);
    12b4:	ee040713          	addi	a4,s0,-288
    12b8:	d9442603          	lw	a2,-620(s0)
    12bc:	67ad                	lui	a5,0xb
    12be:	c9878593          	addi	a1,a5,-872 # ac98 <_sbrk+0x8c>
    12c2:	853a                	mv	a0,a4
    12c4:	6d5060ef          	jal	ra,8198 <siprintf>
E:/wch307/CHV307_Library-master/Example/libraries/zf_common/zf_common_debug.c:182
            debug_output_info.output_screen(0, debug_output_info.font_y_size * show_line_index ++, output_buffer);
    12c8:	87418793          	addi	a5,gp,-1932 # 200002ac <debug_output_info>
    12cc:	00c7a803          	lw	a6,12(a5)
    12d0:	87418793          	addi	a5,gp,-1932 # 200002ac <debug_output_info>
    12d4:	0077c783          	lbu	a5,7(a5)
    12d8:	01079713          	slli	a4,a5,0x10
    12dc:	8341                	srli	a4,a4,0x10
    12de:	fe245783          	lhu	a5,-30(s0)
    12e2:	01079693          	slli	a3,a5,0x10
    12e6:	86c1                	srai	a3,a3,0x10
    12e8:	01069793          	slli	a5,a3,0x10
    12ec:	83c1                	srli	a5,a5,0x10
    12ee:	0785                	addi	a5,a5,1
    12f0:	07c2                	slli	a5,a5,0x10
    12f2:	83c1                	srli	a5,a5,0x10
    12f4:	07c2                	slli	a5,a5,0x10
    12f6:	87c1                	srai	a5,a5,0x10
    12f8:	fef41123          	sh	a5,-30(s0)
    12fc:	01069793          	slli	a5,a3,0x10
    1300:	83c1                	srli	a5,a5,0x10
    1302:	02f707b3          	mul	a5,a4,a5
    1306:	07c2                	slli	a5,a5,0x10
    1308:	83c1                	srli	a5,a5,0x10
    130a:	ee040713          	addi	a4,s0,-288
    130e:	863a                	mv	a2,a4
    1310:	85be                	mv	a1,a5
    1312:	4501                	li	a0,0
    1314:	9802                	jalr	a6
E:/wch307/CHV307_Library-master/Example/libraries/zf_common/zf_common_debug.c:185

            // 屏幕显示 Log 如果有的话
            if(NULL != str)
    1316:	d9042783          	lw	a5,-624(s0)
    131a:	1a078663          	beqz	a5,14c6 <debug_output+0x518>
E:/wch307/CHV307_Library-master/Example/libraries/zf_common/zf_common_debug.c:187
            {
                for(i = 0; i < ((strlen(str) / show_len) + 1); i ++)
    131e:	fe041523          	sh	zero,-22(s0)
    1322:	aa21                	j	143a <debug_output+0x48c>
E:/wch307/CHV307_Library-master/Example/libraries/zf_common/zf_common_debug.c:189
                {
                    for(j = 0; j < show_len; j ++)
    1324:	fe041423          	sh	zero,-24(s0)
    1328:	a059                	j	13ae <debug_output+0x400>
E:/wch307/CHV307_Library-master/Example/libraries/zf_common/zf_common_debug.c:191
                    {
                        if(strlen(str) < (j + i * show_len))
    132a:	d9042503          	lw	a0,-624(s0)
    132e:	6b1060ef          	jal	ra,81de <strlen>
    1332:	872a                	mv	a4,a0
    1334:	fe845783          	lhu	a5,-24(s0)
    1338:	07c2                	slli	a5,a5,0x10
    133a:	83c1                	srli	a5,a5,0x10
    133c:	86be                	mv	a3,a5
    133e:	fea45783          	lhu	a5,-22(s0)
    1342:	07c2                	slli	a5,a5,0x10
    1344:	83c1                	srli	a5,a5,0x10
    1346:	863e                	mv	a2,a5
    1348:	fe445783          	lhu	a5,-28(s0)
    134c:	07c2                	slli	a5,a5,0x10
    134e:	87c1                	srai	a5,a5,0x10
    1350:	02f607b3          	mul	a5,a2,a5
    1354:	97b6                	add	a5,a5,a3
    1356:	06f76863          	bltu	a4,a5,13c6 <debug_output+0x418>
E:/wch307/CHV307_Library-master/Example/libraries/zf_common/zf_common_debug.c:195 (discriminator 2)
                        {
                            break;
                        }
                        file_path_buffer[j] = str[j + i * show_len];
    135a:	fe845783          	lhu	a5,-24(s0)
    135e:	07c2                	slli	a5,a5,0x10
    1360:	83c1                	srli	a5,a5,0x10
    1362:	873e                	mv	a4,a5
    1364:	fea45783          	lhu	a5,-22(s0)
    1368:	07c2                	slli	a5,a5,0x10
    136a:	83c1                	srli	a5,a5,0x10
    136c:	86be                	mv	a3,a5
    136e:	fe445783          	lhu	a5,-28(s0)
    1372:	07c2                	slli	a5,a5,0x10
    1374:	87c1                	srai	a5,a5,0x10
    1376:	02f687b3          	mul	a5,a3,a5
    137a:	97ba                	add	a5,a5,a4
    137c:	873e                	mv	a4,a5
    137e:	d9042783          	lw	a5,-624(s0)
    1382:	97ba                	add	a5,a5,a4
    1384:	fe845703          	lhu	a4,-24(s0)
    1388:	0742                	slli	a4,a4,0x10
    138a:	8341                	srli	a4,a4,0x10
    138c:	86ba                	mv	a3,a4
    138e:	00078703          	lb	a4,0(a5)
    1392:	ff040793          	addi	a5,s0,-16
    1396:	97b6                	add	a5,a5,a3
    1398:	eae78823          	sb	a4,-336(a5)
E:/wch307/CHV307_Library-master/Example/libraries/zf_common/zf_common_debug.c:189 (discriminator 2)
                    for(j = 0; j < show_len; j ++)
    139c:	fe845783          	lhu	a5,-24(s0)
    13a0:	07c2                	slli	a5,a5,0x10
    13a2:	83c1                	srli	a5,a5,0x10
    13a4:	0785                	addi	a5,a5,1
    13a6:	07c2                	slli	a5,a5,0x10
    13a8:	83c1                	srli	a5,a5,0x10
    13aa:	fef41423          	sh	a5,-24(s0)
E:/wch307/CHV307_Library-master/Example/libraries/zf_common/zf_common_debug.c:189 (discriminator 1)
    13ae:	fe845783          	lhu	a5,-24(s0)
    13b2:	07c2                	slli	a5,a5,0x10
    13b4:	83c1                	srli	a5,a5,0x10
    13b6:	873e                	mv	a4,a5
    13b8:	fe445783          	lhu	a5,-28(s0)
    13bc:	07c2                	slli	a5,a5,0x10
    13be:	87c1                	srai	a5,a5,0x10
    13c0:	f6f745e3          	blt	a4,a5,132a <debug_output+0x37c>
    13c4:	a011                	j	13c8 <debug_output+0x41a>
E:/wch307/CHV307_Library-master/Example/libraries/zf_common/zf_common_debug.c:193
                            break;
    13c6:	0001                	nop
E:/wch307/CHV307_Library-master/Example/libraries/zf_common/zf_common_debug.c:198 (discriminator 2)
                    }

                    file_path_buffer[j] = '\0';                                 // 末尾添加\0
    13c8:	fe845783          	lhu	a5,-24(s0)
    13cc:	07c2                	slli	a5,a5,0x10
    13ce:	83c1                	srli	a5,a5,0x10
    13d0:	ff040713          	addi	a4,s0,-16
    13d4:	97ba                	add	a5,a5,a4
    13d6:	ea078823          	sb	zero,-336(a5)
E:/wch307/CHV307_Library-master/Example/libraries/zf_common/zf_common_debug.c:200 (discriminator 2)

                    debug_output_info.output_screen(0, debug_output_info.font_y_size * show_line_index ++, file_path_buffer);
    13da:	87418793          	addi	a5,gp,-1932 # 200002ac <debug_output_info>
    13de:	00c7a803          	lw	a6,12(a5)
    13e2:	87418793          	addi	a5,gp,-1932 # 200002ac <debug_output_info>
    13e6:	0077c783          	lbu	a5,7(a5)
    13ea:	01079713          	slli	a4,a5,0x10
    13ee:	8341                	srli	a4,a4,0x10
    13f0:	fe245783          	lhu	a5,-30(s0)
    13f4:	01079693          	slli	a3,a5,0x10
    13f8:	86c1                	srai	a3,a3,0x10
    13fa:	01069793          	slli	a5,a3,0x10
    13fe:	83c1                	srli	a5,a5,0x10
    1400:	0785                	addi	a5,a5,1
    1402:	07c2                	slli	a5,a5,0x10
    1404:	83c1                	srli	a5,a5,0x10
    1406:	07c2                	slli	a5,a5,0x10
    1408:	87c1                	srai	a5,a5,0x10
    140a:	fef41123          	sh	a5,-30(s0)
    140e:	01069793          	slli	a5,a3,0x10
    1412:	83c1                	srli	a5,a5,0x10
    1414:	02f707b3          	mul	a5,a4,a5
    1418:	07c2                	slli	a5,a5,0x10
    141a:	83c1                	srli	a5,a5,0x10
    141c:	ea040713          	addi	a4,s0,-352
    1420:	863a                	mv	a2,a4
    1422:	85be                	mv	a1,a5
    1424:	4501                	li	a0,0
    1426:	9802                	jalr	a6
E:/wch307/CHV307_Library-master/Example/libraries/zf_common/zf_common_debug.c:187 (discriminator 2)
                for(i = 0; i < ((strlen(str) / show_len) + 1); i ++)
    1428:	fea45783          	lhu	a5,-22(s0)
    142c:	07c2                	slli	a5,a5,0x10
    142e:	83c1                	srli	a5,a5,0x10
    1430:	0785                	addi	a5,a5,1
    1432:	07c2                	slli	a5,a5,0x10
    1434:	83c1                	srli	a5,a5,0x10
    1436:	fef41523          	sh	a5,-22(s0)
E:/wch307/CHV307_Library-master/Example/libraries/zf_common/zf_common_debug.c:187 (discriminator 1)
    143a:	fea45783          	lhu	a5,-22(s0)
    143e:	07c2                	slli	a5,a5,0x10
    1440:	83c1                	srli	a5,a5,0x10
    1442:	84be                	mv	s1,a5
    1444:	d9042503          	lw	a0,-624(s0)
    1448:	597060ef          	jal	ra,81de <strlen>
    144c:	872a                	mv	a4,a0
    144e:	fe445783          	lhu	a5,-28(s0)
    1452:	07c2                	slli	a5,a5,0x10
    1454:	87c1                	srai	a5,a5,0x10
    1456:	02f757b3          	divu	a5,a4,a5
    145a:	0785                	addi	a5,a5,1
    145c:	ecf4e4e3          	bltu	s1,a5,1324 <debug_output+0x376>
E:/wch307/CHV307_Library-master/Example/libraries/zf_common/zf_common_debug.c:220
                sprintf(output_buffer, "\r\nfile %s line %d.\r\n", file, line);
            }
            debug_output_info.output_uart(output_buffer);
        }
    }
}
    1460:	a09d                	j	14c6 <debug_output+0x518>
E:/wch307/CHV307_Library-master/Example/libraries/zf_common/zf_common_debug.c:207
            memset(output_buffer, 0, 256);
    1462:	da040793          	addi	a5,s0,-608
    1466:	10000613          	li	a2,256
    146a:	4581                	li	a1,0
    146c:	853e                	mv	a0,a5
    146e:	d93fe0ef          	jal	ra,200 <memset>
E:/wch307/CHV307_Library-master/Example/libraries/zf_common/zf_common_debug.c:208
            debug_output_info.output_uart(type);
    1472:	87418793          	addi	a5,gp,-1932 # 200002ac <debug_output_info>
    1476:	479c                	lw	a5,8(a5)
    1478:	d9c42503          	lw	a0,-612(s0)
    147c:	9782                	jalr	a5
E:/wch307/CHV307_Library-master/Example/libraries/zf_common/zf_common_debug.c:209
            if(NULL != str)
    147e:	d9042783          	lw	a5,-624(s0)
    1482:	cf99                	beqz	a5,14a0 <debug_output+0x4f2>
E:/wch307/CHV307_Library-master/Example/libraries/zf_common/zf_common_debug.c:211
                sprintf(output_buffer, "\r\nfile %s line %d: %s.\r\n", file, line, str);
    1484:	da040513          	addi	a0,s0,-608
    1488:	d9042703          	lw	a4,-624(s0)
    148c:	d9442683          	lw	a3,-620(s0)
    1490:	d9842603          	lw	a2,-616(s0)
    1494:	67ad                	lui	a5,0xb
    1496:	ca478593          	addi	a1,a5,-860 # aca4 <_sbrk+0x98>
    149a:	4ff060ef          	jal	ra,8198 <siprintf>
    149e:	a829                	j	14b8 <debug_output+0x50a>
E:/wch307/CHV307_Library-master/Example/libraries/zf_common/zf_common_debug.c:215
                sprintf(output_buffer, "\r\nfile %s line %d.\r\n", file, line);
    14a0:	da040713          	addi	a4,s0,-608
    14a4:	d9442683          	lw	a3,-620(s0)
    14a8:	d9842603          	lw	a2,-616(s0)
    14ac:	67ad                	lui	a5,0xb
    14ae:	cc078593          	addi	a1,a5,-832 # acc0 <_sbrk+0xb4>
    14b2:	853a                	mv	a0,a4
    14b4:	4e5060ef          	jal	ra,8198 <siprintf>
E:/wch307/CHV307_Library-master/Example/libraries/zf_common/zf_common_debug.c:217 (discriminator 2)
            debug_output_info.output_uart(output_buffer);
    14b8:	87418793          	addi	a5,gp,-1932 # 200002ac <debug_output_info>
    14bc:	4798                	lw	a4,8(a5)
    14be:	da040793          	addi	a5,s0,-608
    14c2:	853e                	mv	a0,a5
    14c4:	9702                	jalr	a4
E:/wch307/CHV307_Library-master/Example/libraries/zf_common/zf_common_debug.c:220
}
    14c6:	0001                	nop
    14c8:	26c12083          	lw	ra,620(sp)
    14cc:	26812403          	lw	s0,616(sp)
    14d0:	26412483          	lw	s1,612(sp)
    14d4:	27010113          	addi	sp,sp,624
    14d8:	8082                	ret

000014da <_write>:
_write():
E:/wch307/CHV307_Library-master/Example/libraries/zf_common/zf_common_debug.c:267
//  @since      v1.0
// 备注信息              重定向printf到DEBUG串口上
//-------------------------------------------------------------------------------------------------------------------
#if (1 == PRINTF_ENABLE)
int _write(int fd, char *buf, int size)
{
    14da:	7179                	addi	sp,sp,-48
    14dc:	d606                	sw	ra,44(sp)
    14de:	d422                	sw	s0,40(sp)
    14e0:	1800                	addi	s0,sp,48
    14e2:	fca42e23          	sw	a0,-36(s0)
    14e6:	fcb42c23          	sw	a1,-40(s0)
    14ea:	fcc42a23          	sw	a2,-44(s0)
E:/wch307/CHV307_Library-master/Example/libraries/zf_common/zf_common_debug.c:269
    int i;
    for(i=0; i<size; i++)
    14ee:	fe042623          	sw	zero,-20(s0)
    14f2:	a0a9                	j	153c <_write+0x62>
E:/wch307/CHV307_Library-master/Example/libraries/zf_common/zf_common_debug.c:271
    {
        while (USART_GetFlagStatus((USART_TypeDef*)uart_index[DEBUG_UART_INDEX], USART_FLAG_TC) == RESET);
    14f4:	0001                	nop
E:/wch307/CHV307_Library-master/Example/libraries/zf_common/zf_common_debug.c:271 (discriminator 1)
    14f6:	67ad                	lui	a5,0xb
    14f8:	da878793          	addi	a5,a5,-600 # ada8 <uart_index>
    14fc:	479c                	lw	a5,8(a5)
    14fe:	04000593          	li	a1,64
    1502:	853e                	mv	a0,a5
    1504:	239020ef          	jal	ra,3f3c <USART_GetFlagStatus>
    1508:	87aa                	mv	a5,a0
    150a:	d7f5                	beqz	a5,14f6 <_write+0x1c>
E:/wch307/CHV307_Library-master/Example/libraries/zf_common/zf_common_debug.c:272 (discriminator 2)
        USART_SendData((USART_TypeDef*)uart_index[DEBUG_UART_INDEX], *buf++);
    150c:	67ad                	lui	a5,0xb
    150e:	da878793          	addi	a5,a5,-600 # ada8 <uart_index>
    1512:	479c                	lw	a5,8(a5)
    1514:	86be                	mv	a3,a5
    1516:	fd842783          	lw	a5,-40(s0)
    151a:	00178713          	addi	a4,a5,1
    151e:	fce42c23          	sw	a4,-40(s0)
    1522:	00078783          	lb	a5,0(a5)
    1526:	07c2                	slli	a5,a5,0x10
    1528:	83c1                	srli	a5,a5,0x10
    152a:	85be                	mv	a1,a5
    152c:	8536                	mv	a0,a3
    152e:	1e1020ef          	jal	ra,3f0e <USART_SendData>
E:/wch307/CHV307_Library-master/Example/libraries/zf_common/zf_common_debug.c:269 (discriminator 2)
    for(i=0; i<size; i++)
    1532:	fec42783          	lw	a5,-20(s0)
    1536:	0785                	addi	a5,a5,1
    1538:	fef42623          	sw	a5,-20(s0)
E:/wch307/CHV307_Library-master/Example/libraries/zf_common/zf_common_debug.c:269 (discriminator 1)
    153c:	fec42703          	lw	a4,-20(s0)
    1540:	fd442783          	lw	a5,-44(s0)
    1544:	faf748e3          	blt	a4,a5,14f4 <_write+0x1a>
E:/wch307/CHV307_Library-master/Example/libraries/zf_common/zf_common_debug.c:274
    }
    return size;
    1548:	fd442783          	lw	a5,-44(s0)
E:/wch307/CHV307_Library-master/Example/libraries/zf_common/zf_common_debug.c:275
}
    154c:	853e                	mv	a0,a5
    154e:	50b2                	lw	ra,44(sp)
    1550:	5422                	lw	s0,40(sp)
    1552:	6145                	addi	sp,sp,48
    1554:	8082                	ret

00001556 <debug_assert_handler>:
debug_assert_handler():
E:/wch307/CHV307_Library-master/Example/libraries/zf_common/zf_common_debug.c:314
// 使用示例     zf_assert(0);
// 备注信息     这个函数不是直接调用的 此部分不允许用户更改
//              使用 zf_commmon_debug.h 中的 zf_assert(x) 接口
//-------------------------------------------------------------------------------------------------------------------
void debug_assert_handler (uint8 pass, char *file, int line)
{
    1556:	1101                	addi	sp,sp,-32
    1558:	ce06                	sw	ra,28(sp)
    155a:	cc22                	sw	s0,24(sp)
    155c:	1000                	addi	s0,sp,32
    155e:	87aa                	mv	a5,a0
    1560:	feb42423          	sw	a1,-24(s0)
    1564:	fec42223          	sw	a2,-28(s0)
    1568:	fef407a3          	sb	a5,-17(s0)
E:/wch307/CHV307_Library-master/Example/libraries/zf_common/zf_common_debug.c:317
    do
    {
       if(pass || !zf_debug_assert_enable)
    156c:	fef44783          	lbu	a5,-17(s0)
    1570:	ef9d                	bnez	a5,15ae <debug_assert_handler+0x58>
E:/wch307/CHV307_Library-master/Example/libraries/zf_common/zf_common_debug.c:317 (discriminator 1)
    1572:	8101c783          	lbu	a5,-2032(gp) # 20000248 <zf_debug_assert_enable>
    1576:	0ff7f793          	andi	a5,a5,255
    157a:	cb95                	beqz	a5,15ae <debug_assert_handler+0x58>
E:/wch307/CHV307_Library-master/Example/libraries/zf_common/zf_common_debug.c:324
           break;
       }

       static uint8 assert_nest_index = 0;

       if(0 != assert_nest_index)
    157c:	8391c783          	lbu	a5,-1991(gp) # 20000271 <assert_nest_index.5017>
    1580:	c391                	beqz	a5,1584 <debug_assert_handler+0x2e>
E:/wch307/CHV307_Library-master/Example/libraries/zf_common/zf_common_debug.c:326 (discriminator 1)
       {
           while(1);
    1582:	a001                	j	1582 <debug_assert_handler+0x2c>
E:/wch307/CHV307_Library-master/Example/libraries/zf_common/zf_common_debug.c:328
       }
       assert_nest_index ++;
    1584:	8391c783          	lbu	a5,-1991(gp) # 20000271 <assert_nest_index.5017>
    1588:	0785                	addi	a5,a5,1
    158a:	0ff7f713          	andi	a4,a5,255
    158e:	82e18ca3          	sb	a4,-1991(gp) # 20000271 <assert_nest_index.5017>
E:/wch307/CHV307_Library-master/Example/libraries/zf_common/zf_common_debug.c:330

       interrupt_global_disable();
    1592:	0ad000ef          	jal	ra,1e3e <interrupt_global_disable>
E:/wch307/CHV307_Library-master/Example/libraries/zf_common/zf_common_debug.c:331
       debug_protective_handler();
    1596:	3429                	jal	fa0 <debug_protective_handler>
E:/wch307/CHV307_Library-master/Example/libraries/zf_common/zf_common_debug.c:348 (discriminator 1)
           // 那就看看这个 file 的字符串值和 line 的行数
           // 那代表报错的文件路径名称和对应报错行数

           // 再去调试看看是为什么参数出错

           debug_output("Assert error", file, line, NULL);
    1598:	4681                	li	a3,0
    159a:	fe442603          	lw	a2,-28(s0)
    159e:	fe842583          	lw	a1,-24(s0)
    15a2:	67ad                	lui	a5,0xb
    15a4:	cd878513          	addi	a0,a5,-808 # acd8 <_sbrk+0xcc>
    15a8:	3419                	jal	fae <debug_output>
E:/wch307/CHV307_Library-master/Example/libraries/zf_common/zf_common_debug.c:349 (discriminator 1)
           debug_delay();
    15aa:	3255                	jal	f4e <debug_delay>
E:/wch307/CHV307_Library-master/Example/libraries/zf_common/zf_common_debug.c:348 (discriminator 1)
           debug_output("Assert error", file, line, NULL);
    15ac:	b7f5                	j	1598 <debug_assert_handler+0x42>
E:/wch307/CHV307_Library-master/Example/libraries/zf_common/zf_common_debug.c:352
       }
   }while(0);
}
    15ae:	0001                	nop
    15b0:	40f2                	lw	ra,28(sp)
    15b2:	4462                	lw	s0,24(sp)
    15b4:	6105                	addi	sp,sp,32
    15b6:	8082                	ret

000015b8 <fifo_head_offset>:
fifo_head_offset():
E:/wch307/CHV307_Library-master/Example/libraries/zf_common/zf_common_fifo.c:48
// 返回参数     void
// 使用示例     fifo_head_offset(fifo, 1);
// 备注信息     本函数在文件内部调用 用户不用关注 也不可修改
//-------------------------------------------------------------------------------------------------------------------
static void fifo_head_offset (fifo_struct *fifo, uint32 offset)
{
    15b8:	1101                	addi	sp,sp,-32
    15ba:	ce22                	sw	s0,28(sp)
    15bc:	1000                	addi	s0,sp,32
    15be:	fea42623          	sw	a0,-20(s0)
    15c2:	feb42423          	sw	a1,-24(s0)
E:/wch307/CHV307_Library-master/Example/libraries/zf_common/zf_common_fifo.c:49
    fifo->head += offset;
    15c6:	fec42783          	lw	a5,-20(s0)
    15ca:	47d8                	lw	a4,12(a5)
    15cc:	fe842783          	lw	a5,-24(s0)
    15d0:	973e                	add	a4,a4,a5
    15d2:	fec42783          	lw	a5,-20(s0)
    15d6:	c7d8                	sw	a4,12(a5)
E:/wch307/CHV307_Library-master/Example/libraries/zf_common/zf_common_fifo.c:51
    
    while(fifo->max <= fifo->head)                                              // 如果范围超过则减缓冲区大小 直到小于最大缓冲区大小
    15d8:	a819                	j	15ee <fifo_head_offset+0x36>
E:/wch307/CHV307_Library-master/Example/libraries/zf_common/zf_common_fifo.c:53
    {
        fifo->head -= fifo->max;
    15da:	fec42783          	lw	a5,-20(s0)
    15de:	47d8                	lw	a4,12(a5)
    15e0:	fec42783          	lw	a5,-20(s0)
    15e4:	4f9c                	lw	a5,24(a5)
    15e6:	8f1d                	sub	a4,a4,a5
    15e8:	fec42783          	lw	a5,-20(s0)
    15ec:	c7d8                	sw	a4,12(a5)
E:/wch307/CHV307_Library-master/Example/libraries/zf_common/zf_common_fifo.c:51
    while(fifo->max <= fifo->head)                                              // 如果范围超过则减缓冲区大小 直到小于最大缓冲区大小
    15ee:	fec42783          	lw	a5,-20(s0)
    15f2:	4f98                	lw	a4,24(a5)
    15f4:	fec42783          	lw	a5,-20(s0)
    15f8:	47dc                	lw	a5,12(a5)
    15fa:	fee7f0e3          	bgeu	a5,a4,15da <fifo_head_offset+0x22>
E:/wch307/CHV307_Library-master/Example/libraries/zf_common/zf_common_fifo.c:55
    }
}
    15fe:	0001                	nop
    1600:	4472                	lw	s0,28(sp)
    1602:	6105                	addi	sp,sp,32
    1604:	8082                	ret

00001606 <fifo_end_offset>:
fifo_end_offset():
E:/wch307/CHV307_Library-master/Example/libraries/zf_common/zf_common_fifo.c:66
// 返回参数     void
// 使用示例     fifo_end_offset(fifo, 1);
// 备注信息     本函数在文件内部调用 用户不用关注 也不可修改
//-------------------------------------------------------------------------------------------------------------------
static void fifo_end_offset (fifo_struct *fifo, uint32 offset)
{
    1606:	1101                	addi	sp,sp,-32
    1608:	ce22                	sw	s0,28(sp)
    160a:	1000                	addi	s0,sp,32
    160c:	fea42623          	sw	a0,-20(s0)
    1610:	feb42423          	sw	a1,-24(s0)
E:/wch307/CHV307_Library-master/Example/libraries/zf_common/zf_common_fifo.c:67
    fifo->end += offset;
    1614:	fec42783          	lw	a5,-20(s0)
    1618:	4b98                	lw	a4,16(a5)
    161a:	fe842783          	lw	a5,-24(s0)
    161e:	973e                	add	a4,a4,a5
    1620:	fec42783          	lw	a5,-20(s0)
    1624:	cb98                	sw	a4,16(a5)
E:/wch307/CHV307_Library-master/Example/libraries/zf_common/zf_common_fifo.c:69
    
    while(fifo->max <= fifo->end)                                               // 如果范围超过则减缓冲区大小 直到小于最大缓冲区大小
    1626:	a819                	j	163c <fifo_end_offset+0x36>
E:/wch307/CHV307_Library-master/Example/libraries/zf_common/zf_common_fifo.c:71
    {
        fifo->end -= fifo->max;
    1628:	fec42783          	lw	a5,-20(s0)
    162c:	4b98                	lw	a4,16(a5)
    162e:	fec42783          	lw	a5,-20(s0)
    1632:	4f9c                	lw	a5,24(a5)
    1634:	8f1d                	sub	a4,a4,a5
    1636:	fec42783          	lw	a5,-20(s0)
    163a:	cb98                	sw	a4,16(a5)
E:/wch307/CHV307_Library-master/Example/libraries/zf_common/zf_common_fifo.c:69
    while(fifo->max <= fifo->end)                                               // 如果范围超过则减缓冲区大小 直到小于最大缓冲区大小
    163c:	fec42783          	lw	a5,-20(s0)
    1640:	4f98                	lw	a4,24(a5)
    1642:	fec42783          	lw	a5,-20(s0)
    1646:	4b9c                	lw	a5,16(a5)
    1648:	fee7f0e3          	bgeu	a5,a4,1628 <fifo_end_offset+0x22>
E:/wch307/CHV307_Library-master/Example/libraries/zf_common/zf_common_fifo.c:73
    }
}
    164c:	0001                	nop
    164e:	4472                	lw	s0,28(sp)
    1650:	6105                	addi	sp,sp,32
    1652:	8082                	ret

00001654 <fifo_used>:
fifo_used():
E:/wch307/CHV307_Library-master/Example/libraries/zf_common/zf_common_fifo.c:123
// 返回参数     uint32              已使用长度
// 使用示例     uint32 len = fifo_used(fifo);
// 备注信息
//-------------------------------------------------------------------------------------------------------------------
uint32 fifo_used (fifo_struct *fifo)
{
    1654:	1101                	addi	sp,sp,-32
    1656:	ce06                	sw	ra,28(sp)
    1658:	cc22                	sw	s0,24(sp)
    165a:	1000                	addi	s0,sp,32
    165c:	fea42623          	sw	a0,-20(s0)
E:/wch307/CHV307_Library-master/Example/libraries/zf_common/zf_common_fifo.c:124
    zf_assert(fifo != NULL);
    1660:	fec42783          	lw	a5,-20(s0)
    1664:	00f037b3          	snez	a5,a5
    1668:	0ff7f793          	andi	a5,a5,255
    166c:	873e                	mv	a4,a5
    166e:	07c00613          	li	a2,124
    1672:	67ad                	lui	a5,0xb
    1674:	cf478593          	addi	a1,a5,-780 # acf4 <_sbrk+0xe8>
    1678:	853a                	mv	a0,a4
    167a:	3df1                	jal	1556 <debug_assert_handler>
E:/wch307/CHV307_Library-master/Example/libraries/zf_common/zf_common_fifo.c:125
    return (fifo->max - fifo->size);
    167c:	fec42783          	lw	a5,-20(s0)
    1680:	4f98                	lw	a4,24(a5)
    1682:	fec42783          	lw	a5,-20(s0)
    1686:	4bdc                	lw	a5,20(a5)
    1688:	40f707b3          	sub	a5,a4,a5
E:/wch307/CHV307_Library-master/Example/libraries/zf_common/zf_common_fifo.c:126
}
    168c:	853e                	mv	a0,a5
    168e:	40f2                	lw	ra,28(sp)
    1690:	4462                	lw	s0,24(sp)
    1692:	6105                	addi	sp,sp,32
    1694:	8082                	ret

00001696 <fifo_write_buffer>:
fifo_write_buffer():
E:/wch307/CHV307_Library-master/Example/libraries/zf_common/zf_common_fifo.c:187
// 返回参数     fifo_state_enum     操作状态
// 使用示例     zf_log(fifo_write_buffer(&fifo, data, 32) == FIFO_SUCCESS, "fifo_write_buffer error");
// 备注信息
//-------------------------------------------------------------------------------------------------------------------
fifo_state_enum fifo_write_buffer (fifo_struct *fifo, void *dat, uint32 length)
{
    1696:	7179                	addi	sp,sp,-48
    1698:	d606                	sw	ra,44(sp)
    169a:	d422                	sw	s0,40(sp)
    169c:	1800                	addi	s0,sp,48
    169e:	fca42e23          	sw	a0,-36(s0)
    16a2:	fcb42c23          	sw	a1,-40(s0)
    16a6:	fcc42a23          	sw	a2,-44(s0)
E:/wch307/CHV307_Library-master/Example/libraries/zf_common/zf_common_fifo.c:188
    zf_assert(fifo != NULL);
    16aa:	fdc42783          	lw	a5,-36(s0)
    16ae:	00f037b3          	snez	a5,a5
    16b2:	0ff7f793          	andi	a5,a5,255
    16b6:	873e                	mv	a4,a5
    16b8:	0bc00613          	li	a2,188
    16bc:	67ad                	lui	a5,0xb
    16be:	cf478593          	addi	a1,a5,-780 # acf4 <_sbrk+0xe8>
    16c2:	853a                	mv	a0,a4
    16c4:	3d49                	jal	1556 <debug_assert_handler>
E:/wch307/CHV307_Library-master/Example/libraries/zf_common/zf_common_fifo.c:189
    fifo_state_enum return_state = FIFO_SUCCESS;
    16c6:	fe042623          	sw	zero,-20(s0)
E:/wch307/CHV307_Library-master/Example/libraries/zf_common/zf_common_fifo.c:190
    uint32 temp_length = 0;
    16ca:	fe042423          	sw	zero,-24(s0)
E:/wch307/CHV307_Library-master/Example/libraries/zf_common/zf_common_fifo.c:194
    
    do
    {
        if(NULL == dat)
    16ce:	fd842783          	lw	a5,-40(s0)
    16d2:	e789                	bnez	a5,16dc <fifo_write_buffer+0x46>
E:/wch307/CHV307_Library-master/Example/libraries/zf_common/zf_common_fifo.c:196
        {
            return_state = FIFO_BUFFER_NULL;
    16d4:	478d                	li	a5,3
    16d6:	fef42623          	sw	a5,-20(s0)
E:/wch307/CHV307_Library-master/Example/libraries/zf_common/zf_common_fifo.c:197
            break;
    16da:	ac79                	j	1978 <fifo_write_buffer+0x2e2>
E:/wch307/CHV307_Library-master/Example/libraries/zf_common/zf_common_fifo.c:199
        }
        if(FIFO_WRITE & fifo->execution)
    16dc:	fdc42783          	lw	a5,-36(s0)
    16e0:	0007c783          	lbu	a5,0(a5)
    16e4:	8b89                	andi	a5,a5,2
    16e6:	0ff7f793          	andi	a5,a5,255
    16ea:	c789                	beqz	a5,16f4 <fifo_write_buffer+0x5e>
E:/wch307/CHV307_Library-master/Example/libraries/zf_common/zf_common_fifo.c:201
        {
            return_state = FIFO_WRITE_UNDO;
    16ec:	4785                	li	a5,1
    16ee:	fef42623          	sw	a5,-20(s0)
E:/wch307/CHV307_Library-master/Example/libraries/zf_common/zf_common_fifo.c:202
            break;
    16f2:	a459                	j	1978 <fifo_write_buffer+0x2e2>
E:/wch307/CHV307_Library-master/Example/libraries/zf_common/zf_common_fifo.c:204
        }
        fifo->execution |= FIFO_WRITE;
    16f4:	fdc42783          	lw	a5,-36(s0)
    16f8:	0007c783          	lbu	a5,0(a5)
    16fc:	0027e793          	ori	a5,a5,2
    1700:	0ff7f713          	andi	a4,a5,255
    1704:	fdc42783          	lw	a5,-36(s0)
    1708:	00e78023          	sb	a4,0(a5)
E:/wch307/CHV307_Library-master/Example/libraries/zf_common/zf_common_fifo.c:206

        if(length <= fifo->size)                                                 // 剩余空间足够装下本次数据
    170c:	fdc42783          	lw	a5,-36(s0)
    1710:	4bdc                	lw	a5,20(a5)
    1712:	fd442703          	lw	a4,-44(s0)
    1716:	24e7e363          	bltu	a5,a4,195c <fifo_write_buffer+0x2c6>
E:/wch307/CHV307_Library-master/Example/libraries/zf_common/zf_common_fifo.c:208
        {
            temp_length = fifo->max - fifo->head;                               // 计算头指针距离缓冲区尾还有多少空间
    171a:	fdc42783          	lw	a5,-36(s0)
    171e:	4f98                	lw	a4,24(a5)
    1720:	fdc42783          	lw	a5,-36(s0)
    1724:	47dc                	lw	a5,12(a5)
    1726:	40f707b3          	sub	a5,a4,a5
    172a:	fef42423          	sw	a5,-24(s0)
E:/wch307/CHV307_Library-master/Example/libraries/zf_common/zf_common_fifo.c:210

            if(length > temp_length)                                            // 距离缓冲区尾长度不足写入数据 环形缓冲区分段操作
    172e:	fd442703          	lw	a4,-44(s0)
    1732:	fe842783          	lw	a5,-24(s0)
    1736:	16e7fc63          	bgeu	a5,a4,18ae <fifo_write_buffer+0x218>
E:/wch307/CHV307_Library-master/Example/libraries/zf_common/zf_common_fifo.c:212
            {
                switch(fifo->type)
    173a:	fdc42783          	lw	a5,-36(s0)
    173e:	43dc                	lw	a5,4(a5)
    1740:	4705                	li	a4,1
    1742:	06e78d63          	beq	a5,a4,17bc <fifo_write_buffer+0x126>
    1746:	c789                	beqz	a5,1750 <fifo_write_buffer+0xba>
    1748:	4709                	li	a4,2
    174a:	0ee78563          	beq	a5,a4,1834 <fifo_write_buffer+0x19e>
    174e:	aaed                	j	1948 <fifo_write_buffer+0x2b2>
E:/wch307/CHV307_Library-master/Example/libraries/zf_common/zf_common_fifo.c:216
                {
                    case FIFO_DATA_8BIT:
                        memcpy(
                            &(((uint8 *)fifo->buffer)[fifo->head]),
    1750:	fdc42783          	lw	a5,-36(s0)
    1754:	4798                	lw	a4,8(a5)
    1756:	fdc42783          	lw	a5,-36(s0)
    175a:	47dc                	lw	a5,12(a5)
E:/wch307/CHV307_Library-master/Example/libraries/zf_common/zf_common_fifo.c:215
                        memcpy(
    175c:	97ba                	add	a5,a5,a4
    175e:	fe842603          	lw	a2,-24(s0)
    1762:	fd842583          	lw	a1,-40(s0)
    1766:	853e                	mv	a0,a5
    1768:	743050ef          	jal	ra,76aa <memcpy>
E:/wch307/CHV307_Library-master/Example/libraries/zf_common/zf_common_fifo.c:218
                            dat, temp_length);                                  // 拷贝第一段数据
                        fifo_head_offset(fifo, temp_length);                    // 头指针偏移
    176c:	fe842583          	lw	a1,-24(s0)
    1770:	fdc42503          	lw	a0,-36(s0)
    1774:	3591                	jal	15b8 <fifo_head_offset>
E:/wch307/CHV307_Library-master/Example/libraries/zf_common/zf_common_fifo.c:220
                        memcpy(
                            &(((uint8 *)fifo->buffer)[fifo->head]),
    1776:	fdc42783          	lw	a5,-36(s0)
    177a:	4798                	lw	a4,8(a5)
    177c:	fdc42783          	lw	a5,-36(s0)
    1780:	47dc                	lw	a5,12(a5)
E:/wch307/CHV307_Library-master/Example/libraries/zf_common/zf_common_fifo.c:219
                        memcpy(
    1782:	00f706b3          	add	a3,a4,a5
    1786:	fd842703          	lw	a4,-40(s0)
    178a:	fe842783          	lw	a5,-24(s0)
    178e:	00f705b3          	add	a1,a4,a5
    1792:	fd442703          	lw	a4,-44(s0)
    1796:	fe842783          	lw	a5,-24(s0)
    179a:	40f707b3          	sub	a5,a4,a5
    179e:	863e                	mv	a2,a5
    17a0:	8536                	mv	a0,a3
    17a2:	709050ef          	jal	ra,76aa <memcpy>
E:/wch307/CHV307_Library-master/Example/libraries/zf_common/zf_common_fifo.c:223
                            &(((uint8 *)dat)[temp_length]),
                            length - temp_length);                              // 拷贝第二段数据
                        fifo_head_offset(fifo, length - temp_length);           // 头指针偏移
    17a6:	fd442703          	lw	a4,-44(s0)
    17aa:	fe842783          	lw	a5,-24(s0)
    17ae:	40f707b3          	sub	a5,a4,a5
    17b2:	85be                	mv	a1,a5
    17b4:	fdc42503          	lw	a0,-36(s0)
    17b8:	3501                	jal	15b8 <fifo_head_offset>
E:/wch307/CHV307_Library-master/Example/libraries/zf_common/zf_common_fifo.c:224
                        break;
    17ba:	a279                	j	1948 <fifo_write_buffer+0x2b2>
E:/wch307/CHV307_Library-master/Example/libraries/zf_common/zf_common_fifo.c:227
                    case FIFO_DATA_16BIT:
                        memcpy(
                            &(((uint16 *)fifo->buffer)[fifo->head]),
    17bc:	fdc42783          	lw	a5,-36(s0)
    17c0:	4798                	lw	a4,8(a5)
    17c2:	fdc42783          	lw	a5,-36(s0)
    17c6:	47dc                	lw	a5,12(a5)
    17c8:	0786                	slli	a5,a5,0x1
E:/wch307/CHV307_Library-master/Example/libraries/zf_common/zf_common_fifo.c:226
                        memcpy(
    17ca:	973e                	add	a4,a4,a5
    17cc:	fe842783          	lw	a5,-24(s0)
    17d0:	0786                	slli	a5,a5,0x1
    17d2:	863e                	mv	a2,a5
    17d4:	fd842583          	lw	a1,-40(s0)
    17d8:	853a                	mv	a0,a4
    17da:	6d1050ef          	jal	ra,76aa <memcpy>
E:/wch307/CHV307_Library-master/Example/libraries/zf_common/zf_common_fifo.c:229
                            dat, temp_length * 2);                              // 拷贝第一段数据
                        fifo_head_offset(fifo, temp_length);                    // 头指针偏移
    17de:	fe842583          	lw	a1,-24(s0)
    17e2:	fdc42503          	lw	a0,-36(s0)
    17e6:	3bc9                	jal	15b8 <fifo_head_offset>
E:/wch307/CHV307_Library-master/Example/libraries/zf_common/zf_common_fifo.c:231
                        memcpy(
                            &(((uint16 *)fifo->buffer)[fifo->head]),
    17e8:	fdc42783          	lw	a5,-36(s0)
    17ec:	4798                	lw	a4,8(a5)
    17ee:	fdc42783          	lw	a5,-36(s0)
    17f2:	47dc                	lw	a5,12(a5)
    17f4:	0786                	slli	a5,a5,0x1
E:/wch307/CHV307_Library-master/Example/libraries/zf_common/zf_common_fifo.c:230
                        memcpy(
    17f6:	00f706b3          	add	a3,a4,a5
E:/wch307/CHV307_Library-master/Example/libraries/zf_common/zf_common_fifo.c:232
                            &(((uint16 *)dat)[temp_length]),
    17fa:	fe842783          	lw	a5,-24(s0)
    17fe:	0786                	slli	a5,a5,0x1
E:/wch307/CHV307_Library-master/Example/libraries/zf_common/zf_common_fifo.c:230
                        memcpy(
    1800:	fd842703          	lw	a4,-40(s0)
    1804:	00f705b3          	add	a1,a4,a5
E:/wch307/CHV307_Library-master/Example/libraries/zf_common/zf_common_fifo.c:233
                            (length - temp_length) * 2);                        // 拷贝第二段数据
    1808:	fd442703          	lw	a4,-44(s0)
    180c:	fe842783          	lw	a5,-24(s0)
    1810:	40f707b3          	sub	a5,a4,a5
E:/wch307/CHV307_Library-master/Example/libraries/zf_common/zf_common_fifo.c:230
                        memcpy(
    1814:	0786                	slli	a5,a5,0x1
    1816:	863e                	mv	a2,a5
    1818:	8536                	mv	a0,a3
    181a:	691050ef          	jal	ra,76aa <memcpy>
E:/wch307/CHV307_Library-master/Example/libraries/zf_common/zf_common_fifo.c:234
                        fifo_head_offset(fifo, length - temp_length);           // 头指针偏移
    181e:	fd442703          	lw	a4,-44(s0)
    1822:	fe842783          	lw	a5,-24(s0)
    1826:	40f707b3          	sub	a5,a4,a5
    182a:	85be                	mv	a1,a5
    182c:	fdc42503          	lw	a0,-36(s0)
    1830:	3361                	jal	15b8 <fifo_head_offset>
E:/wch307/CHV307_Library-master/Example/libraries/zf_common/zf_common_fifo.c:235
                        break;
    1832:	aa19                	j	1948 <fifo_write_buffer+0x2b2>
E:/wch307/CHV307_Library-master/Example/libraries/zf_common/zf_common_fifo.c:238
                    case FIFO_DATA_32BIT:
                        memcpy(
                            &(((uint32 *)fifo->buffer)[fifo->head]),
    1834:	fdc42783          	lw	a5,-36(s0)
    1838:	4798                	lw	a4,8(a5)
    183a:	fdc42783          	lw	a5,-36(s0)
    183e:	47dc                	lw	a5,12(a5)
    1840:	078a                	slli	a5,a5,0x2
E:/wch307/CHV307_Library-master/Example/libraries/zf_common/zf_common_fifo.c:237
                        memcpy(
    1842:	973e                	add	a4,a4,a5
    1844:	fe842783          	lw	a5,-24(s0)
    1848:	078a                	slli	a5,a5,0x2
    184a:	863e                	mv	a2,a5
    184c:	fd842583          	lw	a1,-40(s0)
    1850:	853a                	mv	a0,a4
    1852:	659050ef          	jal	ra,76aa <memcpy>
E:/wch307/CHV307_Library-master/Example/libraries/zf_common/zf_common_fifo.c:240
                            dat, temp_length * 4);                              // 拷贝第一段数据
                        fifo_head_offset(fifo, temp_length);                    // 头指针偏移
    1856:	fe842583          	lw	a1,-24(s0)
    185a:	fdc42503          	lw	a0,-36(s0)
    185e:	3ba9                	jal	15b8 <fifo_head_offset>
E:/wch307/CHV307_Library-master/Example/libraries/zf_common/zf_common_fifo.c:242
                        memcpy(
                            &(((uint32 *)fifo->buffer)[fifo->head]),
    1860:	fdc42783          	lw	a5,-36(s0)
    1864:	4798                	lw	a4,8(a5)
    1866:	fdc42783          	lw	a5,-36(s0)
    186a:	47dc                	lw	a5,12(a5)
    186c:	078a                	slli	a5,a5,0x2
E:/wch307/CHV307_Library-master/Example/libraries/zf_common/zf_common_fifo.c:241
                        memcpy(
    186e:	00f706b3          	add	a3,a4,a5
E:/wch307/CHV307_Library-master/Example/libraries/zf_common/zf_common_fifo.c:243
                            &(((uint32 *)dat)[temp_length]),
    1872:	fe842783          	lw	a5,-24(s0)
    1876:	078a                	slli	a5,a5,0x2
E:/wch307/CHV307_Library-master/Example/libraries/zf_common/zf_common_fifo.c:241
                        memcpy(
    1878:	fd842703          	lw	a4,-40(s0)
    187c:	00f705b3          	add	a1,a4,a5
E:/wch307/CHV307_Library-master/Example/libraries/zf_common/zf_common_fifo.c:244
                            (length - temp_length) * 4);                        // 拷贝第二段数据
    1880:	fd442703          	lw	a4,-44(s0)
    1884:	fe842783          	lw	a5,-24(s0)
    1888:	40f707b3          	sub	a5,a4,a5
E:/wch307/CHV307_Library-master/Example/libraries/zf_common/zf_common_fifo.c:241
                        memcpy(
    188c:	078a                	slli	a5,a5,0x2
    188e:	863e                	mv	a2,a5
    1890:	8536                	mv	a0,a3
    1892:	619050ef          	jal	ra,76aa <memcpy>
E:/wch307/CHV307_Library-master/Example/libraries/zf_common/zf_common_fifo.c:245
                        fifo_head_offset(fifo, length - temp_length);           // 头指针偏移
    1896:	fd442703          	lw	a4,-44(s0)
    189a:	fe842783          	lw	a5,-24(s0)
    189e:	40f707b3          	sub	a5,a4,a5
    18a2:	85be                	mv	a1,a5
    18a4:	fdc42503          	lw	a0,-36(s0)
    18a8:	3b01                	jal	15b8 <fifo_head_offset>
E:/wch307/CHV307_Library-master/Example/libraries/zf_common/zf_common_fifo.c:246
                        break;
    18aa:	0001                	nop
    18ac:	a871                	j	1948 <fifo_write_buffer+0x2b2>
E:/wch307/CHV307_Library-master/Example/libraries/zf_common/zf_common_fifo.c:251
                }
            }
            else
            {
                switch(fifo->type)
    18ae:	fdc42783          	lw	a5,-36(s0)
    18b2:	43dc                	lw	a5,4(a5)
    18b4:	4705                	li	a4,1
    18b6:	02e78b63          	beq	a5,a4,18ec <fifo_write_buffer+0x256>
    18ba:	c789                	beqz	a5,18c4 <fifo_write_buffer+0x22e>
    18bc:	4709                	li	a4,2
    18be:	04e78e63          	beq	a5,a4,191a <fifo_write_buffer+0x284>
    18c2:	a059                	j	1948 <fifo_write_buffer+0x2b2>
E:/wch307/CHV307_Library-master/Example/libraries/zf_common/zf_common_fifo.c:255
                {
                    case FIFO_DATA_8BIT:
                        memcpy(
                            &(((uint8 *)fifo->buffer)[fifo->head]),
    18c4:	fdc42783          	lw	a5,-36(s0)
    18c8:	4798                	lw	a4,8(a5)
    18ca:	fdc42783          	lw	a5,-36(s0)
    18ce:	47dc                	lw	a5,12(a5)
E:/wch307/CHV307_Library-master/Example/libraries/zf_common/zf_common_fifo.c:254
                        memcpy(
    18d0:	97ba                	add	a5,a5,a4
    18d2:	fd442603          	lw	a2,-44(s0)
    18d6:	fd842583          	lw	a1,-40(s0)
    18da:	853e                	mv	a0,a5
    18dc:	5cf050ef          	jal	ra,76aa <memcpy>
E:/wch307/CHV307_Library-master/Example/libraries/zf_common/zf_common_fifo.c:257
                            dat, length);                                       // 一次完整写入
                        fifo_head_offset(fifo, length);                         // 头指针偏移
    18e0:	fd442583          	lw	a1,-44(s0)
    18e4:	fdc42503          	lw	a0,-36(s0)
    18e8:	39c1                	jal	15b8 <fifo_head_offset>
E:/wch307/CHV307_Library-master/Example/libraries/zf_common/zf_common_fifo.c:258
                        break;
    18ea:	a8b9                	j	1948 <fifo_write_buffer+0x2b2>
E:/wch307/CHV307_Library-master/Example/libraries/zf_common/zf_common_fifo.c:261
                    case FIFO_DATA_16BIT:
                        memcpy(
                            &(((uint16 *)fifo->buffer)[fifo->head]),
    18ec:	fdc42783          	lw	a5,-36(s0)
    18f0:	4798                	lw	a4,8(a5)
    18f2:	fdc42783          	lw	a5,-36(s0)
    18f6:	47dc                	lw	a5,12(a5)
    18f8:	0786                	slli	a5,a5,0x1
E:/wch307/CHV307_Library-master/Example/libraries/zf_common/zf_common_fifo.c:260
                        memcpy(
    18fa:	973e                	add	a4,a4,a5
    18fc:	fd442783          	lw	a5,-44(s0)
    1900:	0786                	slli	a5,a5,0x1
    1902:	863e                	mv	a2,a5
    1904:	fd842583          	lw	a1,-40(s0)
    1908:	853a                	mv	a0,a4
    190a:	5a1050ef          	jal	ra,76aa <memcpy>
E:/wch307/CHV307_Library-master/Example/libraries/zf_common/zf_common_fifo.c:263
                            dat, length * 2);                                   // 一次完整写入
                        fifo_head_offset(fifo, length);                         // 头指针偏移
    190e:	fd442583          	lw	a1,-44(s0)
    1912:	fdc42503          	lw	a0,-36(s0)
    1916:	314d                	jal	15b8 <fifo_head_offset>
E:/wch307/CHV307_Library-master/Example/libraries/zf_common/zf_common_fifo.c:264
                        break;
    1918:	a805                	j	1948 <fifo_write_buffer+0x2b2>
E:/wch307/CHV307_Library-master/Example/libraries/zf_common/zf_common_fifo.c:267
                    case FIFO_DATA_32BIT:
                        memcpy(
                            &(((uint32 *)fifo->buffer)[fifo->head]),
    191a:	fdc42783          	lw	a5,-36(s0)
    191e:	4798                	lw	a4,8(a5)
    1920:	fdc42783          	lw	a5,-36(s0)
    1924:	47dc                	lw	a5,12(a5)
    1926:	078a                	slli	a5,a5,0x2
E:/wch307/CHV307_Library-master/Example/libraries/zf_common/zf_common_fifo.c:266
                        memcpy(
    1928:	973e                	add	a4,a4,a5
    192a:	fd442783          	lw	a5,-44(s0)
    192e:	078a                	slli	a5,a5,0x2
    1930:	863e                	mv	a2,a5
    1932:	fd842583          	lw	a1,-40(s0)
    1936:	853a                	mv	a0,a4
    1938:	573050ef          	jal	ra,76aa <memcpy>
E:/wch307/CHV307_Library-master/Example/libraries/zf_common/zf_common_fifo.c:269
                            dat, length * 4);                                   // 一次完整写入
                        fifo_head_offset(fifo, length);                         // 头指针偏移
    193c:	fd442583          	lw	a1,-44(s0)
    1940:	fdc42503          	lw	a0,-36(s0)
    1944:	3995                	jal	15b8 <fifo_head_offset>
E:/wch307/CHV307_Library-master/Example/libraries/zf_common/zf_common_fifo.c:270
                        break;
    1946:	0001                	nop
E:/wch307/CHV307_Library-master/Example/libraries/zf_common/zf_common_fifo.c:276
                }
//                memcpy(&fifo->buffer[fifo->head], dat, length);                 // 一次完整写入
//                fifo_head_offset(fifo, length);                                 // 头指针偏移
            }

            fifo->size -= length;                                               // 缓冲区剩余长度减小
    1948:	fdc42783          	lw	a5,-36(s0)
    194c:	4bd8                	lw	a4,20(a5)
    194e:	fd442783          	lw	a5,-44(s0)
    1952:	8f1d                	sub	a4,a4,a5
    1954:	fdc42783          	lw	a5,-36(s0)
    1958:	cbd8                	sw	a4,20(a5)
    195a:	a021                	j	1962 <fifo_write_buffer+0x2cc>
E:/wch307/CHV307_Library-master/Example/libraries/zf_common/zf_common_fifo.c:280
        }
        else
        {
            return_state = FIFO_SPACE_NO_ENOUGH;
    195c:	4791                	li	a5,4
    195e:	fef42623          	sw	a5,-20(s0)
E:/wch307/CHV307_Library-master/Example/libraries/zf_common/zf_common_fifo.c:282
        }
        fifo->execution &= ~FIFO_WRITE;
    1962:	fdc42783          	lw	a5,-36(s0)
    1966:	0007c783          	lbu	a5,0(a5)
    196a:	9bf5                	andi	a5,a5,-3
    196c:	0ff7f713          	andi	a4,a5,255
    1970:	fdc42783          	lw	a5,-36(s0)
    1974:	00e78023          	sb	a4,0(a5)
E:/wch307/CHV307_Library-master/Example/libraries/zf_common/zf_common_fifo.c:285
    }while(0);

    return return_state;
    1978:	fec42783          	lw	a5,-20(s0)
E:/wch307/CHV307_Library-master/Example/libraries/zf_common/zf_common_fifo.c:286
}
    197c:	853e                	mv	a0,a5
    197e:	50b2                	lw	ra,44(sp)
    1980:	5422                	lw	s0,40(sp)
    1982:	6145                	addi	sp,sp,48
    1984:	8082                	ret

00001986 <fifo_read_buffer>:
fifo_read_buffer():
E:/wch307/CHV307_Library-master/Example/libraries/zf_common/zf_common_fifo.c:358
// 返回参数     fifo_state_enum     操作状态
// 使用示例     zf_log(fifo_read_buffer(&fifo, data, &length, FIFO_READ_ONLY) == FIFO_SUCCESS, "fifo_read_buffer error");
// 备注信息
//-------------------------------------------------------------------------------------------------------------------
fifo_state_enum fifo_read_buffer (fifo_struct *fifo, void *dat, uint32 *length, fifo_operation_enum flag)
{
    1986:	7179                	addi	sp,sp,-48
    1988:	d606                	sw	ra,44(sp)
    198a:	d422                	sw	s0,40(sp)
    198c:	1800                	addi	s0,sp,48
    198e:	fca42e23          	sw	a0,-36(s0)
    1992:	fcb42c23          	sw	a1,-40(s0)
    1996:	fcc42a23          	sw	a2,-44(s0)
    199a:	fcd42823          	sw	a3,-48(s0)
E:/wch307/CHV307_Library-master/Example/libraries/zf_common/zf_common_fifo.c:359
    zf_assert(fifo != NULL);
    199e:	fdc42783          	lw	a5,-36(s0)
    19a2:	00f037b3          	snez	a5,a5
    19a6:	0ff7f793          	andi	a5,a5,255
    19aa:	873e                	mv	a4,a5
    19ac:	16700613          	li	a2,359
    19b0:	67ad                	lui	a5,0xb
    19b2:	cf478593          	addi	a1,a5,-780 # acf4 <_sbrk+0xe8>
    19b6:	853a                	mv	a0,a4
    19b8:	3e79                	jal	1556 <debug_assert_handler>
E:/wch307/CHV307_Library-master/Example/libraries/zf_common/zf_common_fifo.c:360
    zf_assert(length != NULL);
    19ba:	fd442783          	lw	a5,-44(s0)
    19be:	00f037b3          	snez	a5,a5
    19c2:	0ff7f793          	andi	a5,a5,255
    19c6:	873e                	mv	a4,a5
    19c8:	16800613          	li	a2,360
    19cc:	67ad                	lui	a5,0xb
    19ce:	cf478593          	addi	a1,a5,-780 # acf4 <_sbrk+0xe8>
    19d2:	853a                	mv	a0,a4
    19d4:	3649                	jal	1556 <debug_assert_handler>
E:/wch307/CHV307_Library-master/Example/libraries/zf_common/zf_common_fifo.c:361
    fifo_state_enum return_state = FIFO_SUCCESS;
    19d6:	fe042623          	sw	zero,-20(s0)
E:/wch307/CHV307_Library-master/Example/libraries/zf_common/zf_common_fifo.c:367
    uint32 temp_length;
    uint32 fifo_data_length;

    do
    {
        if(NULL == dat)
    19da:	fd842783          	lw	a5,-40(s0)
    19de:	e789                	bnez	a5,19e8 <fifo_read_buffer+0x62>
E:/wch307/CHV307_Library-master/Example/libraries/zf_common/zf_common_fifo.c:369
        {
            return_state = FIFO_BUFFER_NULL;
    19e0:	478d                	li	a5,3
    19e2:	fef42623          	sw	a5,-20(s0)
E:/wch307/CHV307_Library-master/Example/libraries/zf_common/zf_common_fifo.c:370
            break;
    19e6:	ac91                	j	1c3a <fifo_read_buffer+0x2b4>
E:/wch307/CHV307_Library-master/Example/libraries/zf_common/zf_common_fifo.c:372
        }
        fifo->execution |= FIFO_READ;
    19e8:	fdc42783          	lw	a5,-36(s0)
    19ec:	0007c783          	lbu	a5,0(a5)
    19f0:	0047e793          	ori	a5,a5,4
    19f4:	0ff7f713          	andi	a4,a5,255
    19f8:	fdc42783          	lw	a5,-36(s0)
    19fc:	00e78023          	sb	a4,0(a5)
E:/wch307/CHV307_Library-master/Example/libraries/zf_common/zf_common_fifo.c:374

        fifo_data_length = fifo_used(fifo);
    1a00:	fdc42503          	lw	a0,-36(s0)
    1a04:	3981                	jal	1654 <fifo_used>
    1a06:	fea42423          	sw	a0,-24(s0)
E:/wch307/CHV307_Library-master/Example/libraries/zf_common/zf_common_fifo.c:376

        if(*length > fifo_data_length)
    1a0a:	fd442783          	lw	a5,-44(s0)
    1a0e:	439c                	lw	a5,0(a5)
    1a10:	fe842703          	lw	a4,-24(s0)
    1a14:	00f77a63          	bgeu	a4,a5,1a28 <fifo_read_buffer+0xa2>
E:/wch307/CHV307_Library-master/Example/libraries/zf_common/zf_common_fifo.c:378
        {
            *length = fifo_data_length;                                 // 纠正读取的长度
    1a18:	fd442783          	lw	a5,-44(s0)
    1a1c:	fe842703          	lw	a4,-24(s0)
    1a20:	c398                	sw	a4,0(a5)
E:/wch307/CHV307_Library-master/Example/libraries/zf_common/zf_common_fifo.c:379
            return_state = FIFO_DATA_NO_ENOUGH;                                 // 标志数据不够
    1a22:	4795                	li	a5,5
    1a24:	fef42623          	sw	a5,-20(s0)
E:/wch307/CHV307_Library-master/Example/libraries/zf_common/zf_common_fifo.c:382
        }

        temp_length = fifo->max - fifo->end;                                    // 计算尾指针距离缓冲区尾还有多少空间
    1a28:	fdc42783          	lw	a5,-36(s0)
    1a2c:	4f98                	lw	a4,24(a5)
    1a2e:	fdc42783          	lw	a5,-36(s0)
    1a32:	4b9c                	lw	a5,16(a5)
    1a34:	40f707b3          	sub	a5,a4,a5
    1a38:	fef42223          	sw	a5,-28(s0)
E:/wch307/CHV307_Library-master/Example/libraries/zf_common/zf_common_fifo.c:383
        if(*length <= temp_length)                                              // 足够一次性读取完毕
    1a3c:	fd442783          	lw	a5,-44(s0)
    1a40:	439c                	lw	a5,0(a5)
    1a42:	fe442703          	lw	a4,-28(s0)
    1a46:	08f76563          	bltu	a4,a5,1ad0 <fifo_read_buffer+0x14a>
E:/wch307/CHV307_Library-master/Example/libraries/zf_common/zf_common_fifo.c:385
        {
            switch(fifo->type)
    1a4a:	fdc42783          	lw	a5,-36(s0)
    1a4e:	43dc                	lw	a5,4(a5)
    1a50:	4705                	li	a4,1
    1a52:	02e78863          	beq	a5,a4,1a82 <fifo_read_buffer+0xfc>
    1a56:	c789                	beqz	a5,1a60 <fifo_read_buffer+0xda>
    1a58:	4709                	li	a4,2
    1a5a:	04e78763          	beq	a5,a4,1aa8 <fifo_read_buffer+0x122>
    1a5e:	a2bd                	j	1bcc <fifo_read_buffer+0x246>
E:/wch307/CHV307_Library-master/Example/libraries/zf_common/zf_common_fifo.c:388
            {
                case FIFO_DATA_8BIT:
                    memcpy(dat, &(((uint8 *)fifo->buffer)[fifo->end]), *length);
    1a60:	fdc42783          	lw	a5,-36(s0)
    1a64:	4798                	lw	a4,8(a5)
    1a66:	fdc42783          	lw	a5,-36(s0)
    1a6a:	4b9c                	lw	a5,16(a5)
    1a6c:	973e                	add	a4,a4,a5
    1a6e:	fd442783          	lw	a5,-44(s0)
    1a72:	439c                	lw	a5,0(a5)
    1a74:	863e                	mv	a2,a5
    1a76:	85ba                	mv	a1,a4
    1a78:	fd842503          	lw	a0,-40(s0)
    1a7c:	42f050ef          	jal	ra,76aa <memcpy>
E:/wch307/CHV307_Library-master/Example/libraries/zf_common/zf_common_fifo.c:389
                    break;
    1a80:	a2b1                	j	1bcc <fifo_read_buffer+0x246>
E:/wch307/CHV307_Library-master/Example/libraries/zf_common/zf_common_fifo.c:391
                case FIFO_DATA_16BIT:
                    memcpy(dat, &(((uint16 *)fifo->buffer)[fifo->end]), *length * 2);
    1a82:	fdc42783          	lw	a5,-36(s0)
    1a86:	4798                	lw	a4,8(a5)
    1a88:	fdc42783          	lw	a5,-36(s0)
    1a8c:	4b9c                	lw	a5,16(a5)
    1a8e:	0786                	slli	a5,a5,0x1
    1a90:	973e                	add	a4,a4,a5
    1a92:	fd442783          	lw	a5,-44(s0)
    1a96:	439c                	lw	a5,0(a5)
    1a98:	0786                	slli	a5,a5,0x1
    1a9a:	863e                	mv	a2,a5
    1a9c:	85ba                	mv	a1,a4
    1a9e:	fd842503          	lw	a0,-40(s0)
    1aa2:	409050ef          	jal	ra,76aa <memcpy>
E:/wch307/CHV307_Library-master/Example/libraries/zf_common/zf_common_fifo.c:392
                    break;
    1aa6:	a21d                	j	1bcc <fifo_read_buffer+0x246>
E:/wch307/CHV307_Library-master/Example/libraries/zf_common/zf_common_fifo.c:394
                case FIFO_DATA_32BIT:
                    memcpy(dat, &(((uint32 *)fifo->buffer)[fifo->end]), *length * 4);
    1aa8:	fdc42783          	lw	a5,-36(s0)
    1aac:	4798                	lw	a4,8(a5)
    1aae:	fdc42783          	lw	a5,-36(s0)
    1ab2:	4b9c                	lw	a5,16(a5)
    1ab4:	078a                	slli	a5,a5,0x2
    1ab6:	973e                	add	a4,a4,a5
    1ab8:	fd442783          	lw	a5,-44(s0)
    1abc:	439c                	lw	a5,0(a5)
    1abe:	078a                	slli	a5,a5,0x2
    1ac0:	863e                	mv	a2,a5
    1ac2:	85ba                	mv	a1,a4
    1ac4:	fd842503          	lw	a0,-40(s0)
    1ac8:	3e3050ef          	jal	ra,76aa <memcpy>
E:/wch307/CHV307_Library-master/Example/libraries/zf_common/zf_common_fifo.c:395
                    break;
    1acc:	0001                	nop
    1ace:	a8fd                	j	1bcc <fifo_read_buffer+0x246>
E:/wch307/CHV307_Library-master/Example/libraries/zf_common/zf_common_fifo.c:400
            }
        }
        else
        {
            switch(fifo->type)
    1ad0:	fdc42783          	lw	a5,-36(s0)
    1ad4:	43dc                	lw	a5,4(a5)
    1ad6:	4705                	li	a4,1
    1ad8:	04e78a63          	beq	a5,a4,1b2c <fifo_read_buffer+0x1a6>
    1adc:	c789                	beqz	a5,1ae6 <fifo_read_buffer+0x160>
    1ade:	4709                	li	a4,2
    1ae0:	08e78e63          	beq	a5,a4,1b7c <fifo_read_buffer+0x1f6>
    1ae4:	a0e5                	j	1bcc <fifo_read_buffer+0x246>
E:/wch307/CHV307_Library-master/Example/libraries/zf_common/zf_common_fifo.c:403
            {
                case FIFO_DATA_8BIT:
                    memcpy(dat, &(((uint8 *)fifo->buffer)[fifo->end]), temp_length);
    1ae6:	fdc42783          	lw	a5,-36(s0)
    1aea:	4798                	lw	a4,8(a5)
    1aec:	fdc42783          	lw	a5,-36(s0)
    1af0:	4b9c                	lw	a5,16(a5)
    1af2:	97ba                	add	a5,a5,a4
    1af4:	fe442603          	lw	a2,-28(s0)
    1af8:	85be                	mv	a1,a5
    1afa:	fd842503          	lw	a0,-40(s0)
    1afe:	3ad050ef          	jal	ra,76aa <memcpy>
E:/wch307/CHV307_Library-master/Example/libraries/zf_common/zf_common_fifo.c:404
                    memcpy(&(((uint8 *)dat)[temp_length]), fifo->buffer, *length - temp_length);
    1b02:	fd842703          	lw	a4,-40(s0)
    1b06:	fe442783          	lw	a5,-28(s0)
    1b0a:	00f706b3          	add	a3,a4,a5
    1b0e:	fdc42783          	lw	a5,-36(s0)
    1b12:	478c                	lw	a1,8(a5)
    1b14:	fd442783          	lw	a5,-44(s0)
    1b18:	4398                	lw	a4,0(a5)
    1b1a:	fe442783          	lw	a5,-28(s0)
    1b1e:	40f707b3          	sub	a5,a4,a5
    1b22:	863e                	mv	a2,a5
    1b24:	8536                	mv	a0,a3
    1b26:	385050ef          	jal	ra,76aa <memcpy>
E:/wch307/CHV307_Library-master/Example/libraries/zf_common/zf_common_fifo.c:405
                    break;
    1b2a:	a04d                	j	1bcc <fifo_read_buffer+0x246>
E:/wch307/CHV307_Library-master/Example/libraries/zf_common/zf_common_fifo.c:407
                case FIFO_DATA_16BIT:
                    memcpy(dat, &(((uint16 *)fifo->buffer)[fifo->end]), temp_length * 2);
    1b2c:	fdc42783          	lw	a5,-36(s0)
    1b30:	4798                	lw	a4,8(a5)
    1b32:	fdc42783          	lw	a5,-36(s0)
    1b36:	4b9c                	lw	a5,16(a5)
    1b38:	0786                	slli	a5,a5,0x1
    1b3a:	973e                	add	a4,a4,a5
    1b3c:	fe442783          	lw	a5,-28(s0)
    1b40:	0786                	slli	a5,a5,0x1
    1b42:	863e                	mv	a2,a5
    1b44:	85ba                	mv	a1,a4
    1b46:	fd842503          	lw	a0,-40(s0)
    1b4a:	361050ef          	jal	ra,76aa <memcpy>
E:/wch307/CHV307_Library-master/Example/libraries/zf_common/zf_common_fifo.c:408
                    memcpy(&(((uint16 *)dat)[temp_length]), fifo->buffer, (*length - temp_length) * 2);
    1b4e:	fe442783          	lw	a5,-28(s0)
    1b52:	0786                	slli	a5,a5,0x1
    1b54:	fd842703          	lw	a4,-40(s0)
    1b58:	00f706b3          	add	a3,a4,a5
    1b5c:	fdc42783          	lw	a5,-36(s0)
    1b60:	478c                	lw	a1,8(a5)
    1b62:	fd442783          	lw	a5,-44(s0)
    1b66:	4398                	lw	a4,0(a5)
    1b68:	fe442783          	lw	a5,-28(s0)
    1b6c:	40f707b3          	sub	a5,a4,a5
    1b70:	0786                	slli	a5,a5,0x1
    1b72:	863e                	mv	a2,a5
    1b74:	8536                	mv	a0,a3
    1b76:	335050ef          	jal	ra,76aa <memcpy>
E:/wch307/CHV307_Library-master/Example/libraries/zf_common/zf_common_fifo.c:409
                    break;
    1b7a:	a889                	j	1bcc <fifo_read_buffer+0x246>
E:/wch307/CHV307_Library-master/Example/libraries/zf_common/zf_common_fifo.c:411
                case FIFO_DATA_32BIT:
                    memcpy(dat, &(((uint32 *)fifo->buffer)[fifo->end]), temp_length * 4);
    1b7c:	fdc42783          	lw	a5,-36(s0)
    1b80:	4798                	lw	a4,8(a5)
    1b82:	fdc42783          	lw	a5,-36(s0)
    1b86:	4b9c                	lw	a5,16(a5)
    1b88:	078a                	slli	a5,a5,0x2
    1b8a:	973e                	add	a4,a4,a5
    1b8c:	fe442783          	lw	a5,-28(s0)
    1b90:	078a                	slli	a5,a5,0x2
    1b92:	863e                	mv	a2,a5
    1b94:	85ba                	mv	a1,a4
    1b96:	fd842503          	lw	a0,-40(s0)
    1b9a:	311050ef          	jal	ra,76aa <memcpy>
E:/wch307/CHV307_Library-master/Example/libraries/zf_common/zf_common_fifo.c:412
                    memcpy(&(((uint32 *)dat)[temp_length]), fifo->buffer, (*length - temp_length) * 4);
    1b9e:	fe442783          	lw	a5,-28(s0)
    1ba2:	078a                	slli	a5,a5,0x2
    1ba4:	fd842703          	lw	a4,-40(s0)
    1ba8:	00f706b3          	add	a3,a4,a5
    1bac:	fdc42783          	lw	a5,-36(s0)
    1bb0:	478c                	lw	a1,8(a5)
    1bb2:	fd442783          	lw	a5,-44(s0)
    1bb6:	4398                	lw	a4,0(a5)
    1bb8:	fe442783          	lw	a5,-28(s0)
    1bbc:	40f707b3          	sub	a5,a4,a5
    1bc0:	078a                	slli	a5,a5,0x2
    1bc2:	863e                	mv	a2,a5
    1bc4:	8536                	mv	a0,a3
    1bc6:	2e5050ef          	jal	ra,76aa <memcpy>
E:/wch307/CHV307_Library-master/Example/libraries/zf_common/zf_common_fifo.c:413
                    break;
    1bca:	0001                	nop
E:/wch307/CHV307_Library-master/Example/libraries/zf_common/zf_common_fifo.c:417
            }
        }

        if(flag == FIFO_READ_AND_CLEAN)                                         // 如果选择读取并更改 FIFO 状态
    1bcc:	fd042783          	lw	a5,-48(s0)
    1bd0:	e7ad                	bnez	a5,1c3a <fifo_read_buffer+0x2b4>
E:/wch307/CHV307_Library-master/Example/libraries/zf_common/zf_common_fifo.c:419
        {
            if(FIFO_CLEAR & fifo->execution)
    1bd2:	fdc42783          	lw	a5,-36(s0)
    1bd6:	0007c783          	lbu	a5,0(a5)
    1bda:	8b85                	andi	a5,a5,1
    1bdc:	0ff7f793          	andi	a5,a5,255
    1be0:	c789                	beqz	a5,1bea <fifo_read_buffer+0x264>
E:/wch307/CHV307_Library-master/Example/libraries/zf_common/zf_common_fifo.c:421
            {
                return_state = FIFO_CLEAR_UNDO;
    1be2:	4789                	li	a5,2
    1be4:	fef42623          	sw	a5,-20(s0)
E:/wch307/CHV307_Library-master/Example/libraries/zf_common/zf_common_fifo.c:422
                break;
    1be8:	a889                	j	1c3a <fifo_read_buffer+0x2b4>
E:/wch307/CHV307_Library-master/Example/libraries/zf_common/zf_common_fifo.c:424
            }
            fifo->execution |= FIFO_CLEAR;
    1bea:	fdc42783          	lw	a5,-36(s0)
    1bee:	0007c783          	lbu	a5,0(a5)
    1bf2:	0017e793          	ori	a5,a5,1
    1bf6:	0ff7f713          	andi	a4,a5,255
    1bfa:	fdc42783          	lw	a5,-36(s0)
    1bfe:	00e78023          	sb	a4,0(a5)
E:/wch307/CHV307_Library-master/Example/libraries/zf_common/zf_common_fifo.c:425
            fifo_end_offset(fifo, *length);                                     // 移动 FIFO 头指针
    1c02:	fd442783          	lw	a5,-44(s0)
    1c06:	439c                	lw	a5,0(a5)
    1c08:	85be                	mv	a1,a5
    1c0a:	fdc42503          	lw	a0,-36(s0)
    1c0e:	3ae5                	jal	1606 <fifo_end_offset>
E:/wch307/CHV307_Library-master/Example/libraries/zf_common/zf_common_fifo.c:426
            fifo->size += *length;
    1c10:	fdc42783          	lw	a5,-36(s0)
    1c14:	4bd8                	lw	a4,20(a5)
    1c16:	fd442783          	lw	a5,-44(s0)
    1c1a:	439c                	lw	a5,0(a5)
    1c1c:	973e                	add	a4,a4,a5
    1c1e:	fdc42783          	lw	a5,-36(s0)
    1c22:	cbd8                	sw	a4,20(a5)
E:/wch307/CHV307_Library-master/Example/libraries/zf_common/zf_common_fifo.c:427
            fifo->execution &= ~FIFO_CLEAR;
    1c24:	fdc42783          	lw	a5,-36(s0)
    1c28:	0007c783          	lbu	a5,0(a5)
    1c2c:	9bf9                	andi	a5,a5,-2
    1c2e:	0ff7f713          	andi	a4,a5,255
    1c32:	fdc42783          	lw	a5,-36(s0)
    1c36:	00e78023          	sb	a4,0(a5)
E:/wch307/CHV307_Library-master/Example/libraries/zf_common/zf_common_fifo.c:430
        }
    }while(0);
    fifo->execution &= FIFO_READ;
    1c3a:	fdc42783          	lw	a5,-36(s0)
    1c3e:	0007c783          	lbu	a5,0(a5)
    1c42:	8b91                	andi	a5,a5,4
    1c44:	0ff7f713          	andi	a4,a5,255
    1c48:	fdc42783          	lw	a5,-36(s0)
    1c4c:	00e78023          	sb	a4,0(a5)
E:/wch307/CHV307_Library-master/Example/libraries/zf_common/zf_common_fifo.c:432

    return return_state;
    1c50:	fec42783          	lw	a5,-20(s0)
E:/wch307/CHV307_Library-master/Example/libraries/zf_common/zf_common_fifo.c:433
}
    1c54:	853e                	mv	a0,a5
    1c56:	50b2                	lw	ra,44(sp)
    1c58:	5422                	lw	s0,40(sp)
    1c5a:	6145                	addi	sp,sp,48
    1c5c:	8082                	ret

00001c5e <fifo_init>:
fifo_init():
E:/wch307/CHV307_Library-master/Example/libraries/zf_common/zf_common_fifo.c:535
// 返回参数     fifo_state_enum     操作状态
// 使用示例     fifo_init(&user_fifo, user_buffer, 64);
// 备注信息
//-------------------------------------------------------------------------------------------------------------------
fifo_state_enum fifo_init (fifo_struct *fifo, fifo_data_type_enum type, void *buffer_addr, uint32 size)
{
    1c5e:	7179                	addi	sp,sp,-48
    1c60:	d606                	sw	ra,44(sp)
    1c62:	d422                	sw	s0,40(sp)
    1c64:	1800                	addi	s0,sp,48
    1c66:	fca42e23          	sw	a0,-36(s0)
    1c6a:	fcb42c23          	sw	a1,-40(s0)
    1c6e:	fcc42a23          	sw	a2,-44(s0)
    1c72:	fcd42823          	sw	a3,-48(s0)
E:/wch307/CHV307_Library-master/Example/libraries/zf_common/zf_common_fifo.c:536
    zf_assert(fifo != NULL);
    1c76:	fdc42783          	lw	a5,-36(s0)
    1c7a:	00f037b3          	snez	a5,a5
    1c7e:	0ff7f793          	andi	a5,a5,255
    1c82:	873e                	mv	a4,a5
    1c84:	21800613          	li	a2,536
    1c88:	67ad                	lui	a5,0xb
    1c8a:	cf478593          	addi	a1,a5,-780 # acf4 <_sbrk+0xe8>
    1c8e:	853a                	mv	a0,a4
    1c90:	8c7ff0ef          	jal	ra,1556 <debug_assert_handler>
E:/wch307/CHV307_Library-master/Example/libraries/zf_common/zf_common_fifo.c:537
    fifo_state_enum return_value = FIFO_SUCCESS;
    1c94:	fe042623          	sw	zero,-20(s0)
E:/wch307/CHV307_Library-master/Example/libraries/zf_common/zf_common_fifo.c:540
    do
    {
        if(NULL == buffer_addr)
    1c98:	fd442783          	lw	a5,-44(s0)
    1c9c:	e789                	bnez	a5,1ca6 <fifo_init+0x48>
E:/wch307/CHV307_Library-master/Example/libraries/zf_common/zf_common_fifo.c:542
        {
            return_value = FIFO_BUFFER_NULL;
    1c9e:	478d                	li	a5,3
    1ca0:	fef42623          	sw	a5,-20(s0)
E:/wch307/CHV307_Library-master/Example/libraries/zf_common/zf_common_fifo.c:543
            break;
    1ca4:	a089                	j	1ce6 <fifo_init+0x88>
E:/wch307/CHV307_Library-master/Example/libraries/zf_common/zf_common_fifo.c:545
        }
        fifo->buffer            = buffer_addr;
    1ca6:	fdc42783          	lw	a5,-36(s0)
    1caa:	fd442703          	lw	a4,-44(s0)
    1cae:	c798                	sw	a4,8(a5)
E:/wch307/CHV307_Library-master/Example/libraries/zf_common/zf_common_fifo.c:546
        fifo->execution         = FIFO_IDLE;
    1cb0:	fdc42783          	lw	a5,-36(s0)
    1cb4:	00078023          	sb	zero,0(a5)
E:/wch307/CHV307_Library-master/Example/libraries/zf_common/zf_common_fifo.c:547
        fifo->type              = type;
    1cb8:	fdc42783          	lw	a5,-36(s0)
    1cbc:	fd842703          	lw	a4,-40(s0)
    1cc0:	c3d8                	sw	a4,4(a5)
E:/wch307/CHV307_Library-master/Example/libraries/zf_common/zf_common_fifo.c:548
        fifo->head              = 0;
    1cc2:	fdc42783          	lw	a5,-36(s0)
    1cc6:	0007a623          	sw	zero,12(a5)
E:/wch307/CHV307_Library-master/Example/libraries/zf_common/zf_common_fifo.c:549
        fifo->end               = 0;
    1cca:	fdc42783          	lw	a5,-36(s0)
    1cce:	0007a823          	sw	zero,16(a5)
E:/wch307/CHV307_Library-master/Example/libraries/zf_common/zf_common_fifo.c:550
        fifo->size              = size;
    1cd2:	fdc42783          	lw	a5,-36(s0)
    1cd6:	fd042703          	lw	a4,-48(s0)
    1cda:	cbd8                	sw	a4,20(a5)
E:/wch307/CHV307_Library-master/Example/libraries/zf_common/zf_common_fifo.c:551
        fifo->max               = size;
    1cdc:	fdc42783          	lw	a5,-36(s0)
    1ce0:	fd042703          	lw	a4,-48(s0)
    1ce4:	cf98                	sw	a4,24(a5)
E:/wch307/CHV307_Library-master/Example/libraries/zf_common/zf_common_fifo.c:553
    }while(0);
    return return_value;
    1ce6:	fec42783          	lw	a5,-20(s0)
E:/wch307/CHV307_Library-master/Example/libraries/zf_common/zf_common_fifo.c:554
}
    1cea:	853e                	mv	a0,a5
    1cec:	50b2                	lw	ra,44(sp)
    1cee:	5422                	lw	s0,40(sp)
    1cf0:	6145                	addi	sp,sp,48
    1cf2:	8082                	ret

00001cf4 <__enable_irq>:
__enable_irq():
E:\wch307\CHV307_Library-master\Example\libraries\sdk\Core/core_riscv.h:124
{
    1cf4:	1141                	addi	sp,sp,-16
    1cf6:	c622                	sw	s0,12(sp)
    1cf8:	0800                	addi	s0,sp,16
E:\wch307\CHV307_Library-master\Example\libraries\sdk\Core/core_riscv.h:125
  __asm volatile ("csrw 0x800, %0" : : "r" (0x6088) );
    1cfa:	6799                	lui	a5,0x6
    1cfc:	08878793          	addi	a5,a5,136 # 6088 <__divdf3+0x74e>
    1d00:	80079073          	csrw	0x800,a5
E:\wch307\CHV307_Library-master\Example\libraries\sdk\Core/core_riscv.h:126
}
    1d04:	0001                	nop
    1d06:	4432                	lw	s0,12(sp)
    1d08:	0141                	addi	sp,sp,16
    1d0a:	8082                	ret

00001d0c <__disable_irq>:
__disable_irq():
E:\wch307\CHV307_Library-master\Example\libraries\sdk\Core/core_riscv.h:136
{
    1d0c:	1141                	addi	sp,sp,-16
    1d0e:	c622                	sw	s0,12(sp)
    1d10:	0800                	addi	s0,sp,16
E:\wch307\CHV307_Library-master\Example\libraries\sdk\Core/core_riscv.h:137
  __asm volatile ("csrw 0x800, %0" : : "r" (0x6000) );
    1d12:	6799                	lui	a5,0x6
    1d14:	80079073          	csrw	0x800,a5
E:\wch307\CHV307_Library-master\Example\libraries\sdk\Core/core_riscv.h:138
}
    1d18:	0001                	nop
    1d1a:	4432                	lw	s0,12(sp)
    1d1c:	0141                	addi	sp,sp,16
    1d1e:	8082                	ret

00001d20 <NVIC_EnableIRQ>:
NVIC_EnableIRQ():
E:\wch307\CHV307_Library-master\Example\libraries\sdk\Core/core_riscv.h:162
 * @param   IRQn: Interrupt Numbers
 *
 * @return  none
 */
RV_STATIC_INLINE void NVIC_EnableIRQ(IRQn_Type IRQn)
{
    1d20:	1101                	addi	sp,sp,-32
    1d22:	ce22                	sw	s0,28(sp)
    1d24:	1000                	addi	s0,sp,32
    1d26:	fea42623          	sw	a0,-20(s0)
E:\wch307\CHV307_Library-master\Example\libraries\sdk\Core/core_riscv.h:163
  NVIC->IENR[((uint32_t)(IRQn) >> 5)] = (1 << ((uint32_t)(IRQn) & 0x1F));
    1d2a:	fec42783          	lw	a5,-20(s0)
    1d2e:	8bfd                	andi	a5,a5,31
    1d30:	4705                	li	a4,1
    1d32:	00f716b3          	sll	a3,a4,a5
    1d36:	e000e737          	lui	a4,0xe000e
    1d3a:	fec42783          	lw	a5,-20(s0)
    1d3e:	8395                	srli	a5,a5,0x5
    1d40:	04078793          	addi	a5,a5,64 # 6040 <__divdf3+0x706>
    1d44:	078a                	slli	a5,a5,0x2
    1d46:	97ba                	add	a5,a5,a4
    1d48:	c394                	sw	a3,0(a5)
E:\wch307\CHV307_Library-master\Example\libraries\sdk\Core/core_riscv.h:164
}
    1d4a:	0001                	nop
    1d4c:	4472                	lw	s0,28(sp)
    1d4e:	6105                	addi	sp,sp,32
    1d50:	8082                	ret

00001d52 <NVIC_DisableIRQ>:
NVIC_DisableIRQ():
E:\wch307\CHV307_Library-master\Example\libraries\sdk\Core/core_riscv.h:176
 * @param   IRQn: Interrupt Numbers
 *
 * @return  none
 */
RV_STATIC_INLINE void NVIC_DisableIRQ(IRQn_Type IRQn)
{
    1d52:	1101                	addi	sp,sp,-32
    1d54:	ce22                	sw	s0,28(sp)
    1d56:	1000                	addi	s0,sp,32
    1d58:	fea42623          	sw	a0,-20(s0)
E:\wch307\CHV307_Library-master\Example\libraries\sdk\Core/core_riscv.h:177
  NVIC->IRER[((uint32_t)(IRQn) >> 5)] = (1 << ((uint32_t)(IRQn) & 0x1F));
    1d5c:	fec42783          	lw	a5,-20(s0)
    1d60:	8bfd                	andi	a5,a5,31
    1d62:	4705                	li	a4,1
    1d64:	00f716b3          	sll	a3,a4,a5
    1d68:	e000e737          	lui	a4,0xe000e
    1d6c:	fec42783          	lw	a5,-20(s0)
    1d70:	8395                	srli	a5,a5,0x5
    1d72:	06078793          	addi	a5,a5,96
    1d76:	078a                	slli	a5,a5,0x2
    1d78:	97ba                	add	a5,a5,a4
    1d7a:	c394                	sw	a3,0(a5)
E:\wch307\CHV307_Library-master\Example\libraries\sdk\Core/core_riscv.h:178
}
    1d7c:	0001                	nop
    1d7e:	4472                	lw	s0,28(sp)
    1d80:	6105                	addi	sp,sp,32
    1d82:	8082                	ret

00001d84 <NVIC_SetPriority>:
NVIC_SetPriority():
E:\wch307\CHV307_Library-master\Example\libraries\sdk\Core/core_riscv.h:265
 *              bit7 - pre-emption priority
 *              bit6~bit4 - subpriority
 * @return  None
 */
RV_STATIC_INLINE void NVIC_SetPriority(IRQn_Type IRQn, uint8_t priority)
{
    1d84:	1101                	addi	sp,sp,-32
    1d86:	ce22                	sw	s0,28(sp)
    1d88:	1000                	addi	s0,sp,32
    1d8a:	fea42623          	sw	a0,-20(s0)
    1d8e:	87ae                	mv	a5,a1
    1d90:	fef405a3          	sb	a5,-21(s0)
E:\wch307\CHV307_Library-master\Example\libraries\sdk\Core/core_riscv.h:266
  NVIC->IPRIOR[(uint32_t)(IRQn)] = priority;
    1d94:	e000e737          	lui	a4,0xe000e
    1d98:	fec42783          	lw	a5,-20(s0)
    1d9c:	97ba                	add	a5,a5,a4
    1d9e:	feb44703          	lbu	a4,-21(s0)
    1da2:	40e78023          	sb	a4,1024(a5)
E:\wch307\CHV307_Library-master\Example\libraries\sdk\Core/core_riscv.h:267
}
    1da6:	0001                	nop
    1da8:	4472                	lw	s0,28(sp)
    1daa:	6105                	addi	sp,sp,32
    1dac:	8082                	ret

00001dae <interrupt_enable>:
interrupt_enable():
E:/wch307/CHV307_Library-master/Example/libraries/zf_common/zf_common_interrupt.c:49
// 参数说明     irqn            指定中断号 可查看 isr.c 对应中断服务函数的标注
// 返回参数     void
// 使用示例     interrupt_enable(UART1_IRQn);
//-------------------------------------------------------------------------------------------------------------------
void interrupt_enable (IRQn_Type irqn)
{
    1dae:	1101                	addi	sp,sp,-32
    1db0:	ce06                	sw	ra,28(sp)
    1db2:	cc22                	sw	s0,24(sp)
    1db4:	1000                	addi	s0,sp,32
    1db6:	fea42623          	sw	a0,-20(s0)
E:/wch307/CHV307_Library-master/Example/libraries/zf_common/zf_common_interrupt.c:50
    NVIC_EnableIRQ(irqn);
    1dba:	fec42503          	lw	a0,-20(s0)
    1dbe:	378d                	jal	1d20 <NVIC_EnableIRQ>
E:/wch307/CHV307_Library-master/Example/libraries/zf_common/zf_common_interrupt.c:51
}
    1dc0:	0001                	nop
    1dc2:	40f2                	lw	ra,28(sp)
    1dc4:	4462                	lw	s0,24(sp)
    1dc6:	6105                	addi	sp,sp,32
    1dc8:	8082                	ret

00001dca <interrupt_disable>:
interrupt_disable():
E:/wch307/CHV307_Library-master/Example/libraries/zf_common/zf_common_interrupt.c:60
// 参数说明     irqn            指定中断号 可查看 isr.c 对应中断服务函数的标注
// 返回参数     void
// 使用示例     interrupt_disable(UART1_IRQn);
//-------------------------------------------------------------------------------------------------------------------
void interrupt_disable (IRQn_Type irqn)
{
    1dca:	1101                	addi	sp,sp,-32
    1dcc:	ce06                	sw	ra,28(sp)
    1dce:	cc22                	sw	s0,24(sp)
    1dd0:	1000                	addi	s0,sp,32
    1dd2:	fea42623          	sw	a0,-20(s0)
E:/wch307/CHV307_Library-master/Example/libraries/zf_common/zf_common_interrupt.c:61
    NVIC_DisableIRQ(irqn);
    1dd6:	fec42503          	lw	a0,-20(s0)
    1dda:	3fa5                	jal	1d52 <NVIC_DisableIRQ>
E:/wch307/CHV307_Library-master/Example/libraries/zf_common/zf_common_interrupt.c:62
}
    1ddc:	0001                	nop
    1dde:	40f2                	lw	ra,28(sp)
    1de0:	4462                	lw	s0,24(sp)
    1de2:	6105                	addi	sp,sp,32
    1de4:	8082                	ret

00001de6 <interrupt_set_priority>:
interrupt_set_priority():
E:/wch307/CHV307_Library-master/Example/libraries/zf_common/zf_common_interrupt.c:74
// 使用示例     interrupt_enable(UART1_IRQn, (1<<5) | 2);
//                              抢占优先级设置为1,次优先级设置为2
//                              禁止调用ch32v30x_misc里面的函数
//-------------------------------------------------------------------------------------------------------------------
void interrupt_set_priority (IRQn_Type irqn, uint8 priority)
{
    1de6:	1101                	addi	sp,sp,-32
    1de8:	ce06                	sw	ra,28(sp)
    1dea:	cc22                	sw	s0,24(sp)
    1dec:	1000                	addi	s0,sp,32
    1dee:	fea42623          	sw	a0,-20(s0)
    1df2:	87ae                	mv	a5,a1
    1df4:	fef405a3          	sb	a5,-21(s0)
E:/wch307/CHV307_Library-master/Example/libraries/zf_common/zf_common_interrupt.c:75
    NVIC_SetPriority(irqn, priority);
    1df8:	feb44783          	lbu	a5,-21(s0)
    1dfc:	85be                	mv	a1,a5
    1dfe:	fec42503          	lw	a0,-20(s0)
    1e02:	3749                	jal	1d84 <NVIC_SetPriority>
E:/wch307/CHV307_Library-master/Example/libraries/zf_common/zf_common_interrupt.c:76
}
    1e04:	0001                	nop
    1e06:	40f2                	lw	ra,28(sp)
    1e08:	4462                	lw	s0,24(sp)
    1e0a:	6105                	addi	sp,sp,32
    1e0c:	8082                	ret

00001e0e <interrupt_global_enable>:
interrupt_global_enable():
E:/wch307/CHV307_Library-master/Example/libraries/zf_common/zf_common_interrupt.c:97
// 参数说明     void            还原的嵌套层 如果传入 0 则直接清空嵌套层数开启总中断
// 返回参数     void
// 使用示例     interrupt_global_enable();
//-------------------------------------------------------------------------------------------------------------------
void interrupt_global_enable (uint32 primask)
{
    1e0e:	1101                	addi	sp,sp,-32
    1e10:	ce06                	sw	ra,28(sp)
    1e12:	cc22                	sw	s0,24(sp)
    1e14:	1000                	addi	s0,sp,32
    1e16:	fea42623          	sw	a0,-20(s0)
E:/wch307/CHV307_Library-master/Example/libraries/zf_common/zf_common_interrupt.c:98
    if(primask)
    1e1a:	fec42783          	lw	a5,-20(s0)
    1e1e:	c799                	beqz	a5,1e2c <interrupt_global_enable+0x1e>
E:/wch307/CHV307_Library-master/Example/libraries/zf_common/zf_common_interrupt.c:100
    {
        interrupt_nest_count --;
    1e20:	83c1a783          	lw	a5,-1988(gp) # 20000274 <interrupt_nest_count>
    1e24:	fff78713          	addi	a4,a5,-1
    1e28:	82e1ae23          	sw	a4,-1988(gp) # 20000274 <interrupt_nest_count>
E:/wch307/CHV307_Library-master/Example/libraries/zf_common/zf_common_interrupt.c:102
    }
    if(!interrupt_nest_count)
    1e2c:	83c1a783          	lw	a5,-1988(gp) # 20000274 <interrupt_nest_count>
    1e30:	e391                	bnez	a5,1e34 <interrupt_global_enable+0x26>
E:/wch307/CHV307_Library-master/Example/libraries/zf_common/zf_common_interrupt.c:104
    {
        __enable_irq();
    1e32:	35c9                	jal	1cf4 <__enable_irq>
E:/wch307/CHV307_Library-master/Example/libraries/zf_common/zf_common_interrupt.c:106
    }
}
    1e34:	0001                	nop
    1e36:	40f2                	lw	ra,28(sp)
    1e38:	4462                	lw	s0,24(sp)
    1e3a:	6105                	addi	sp,sp,32
    1e3c:	8082                	ret

00001e3e <interrupt_global_disable>:
interrupt_global_disable():
E:/wch307/CHV307_Library-master/Example/libraries/zf_common/zf_common_interrupt.c:115
// 参数说明     void
// 返回参数     void
// 使用示例     interrupt_disable_all();
//-------------------------------------------------------------------------------------------------------------------
uint32 interrupt_global_disable (void)
{
    1e3e:	1141                	addi	sp,sp,-16
    1e40:	c606                	sw	ra,12(sp)
    1e42:	c422                	sw	s0,8(sp)
    1e44:	0800                	addi	s0,sp,16
E:/wch307/CHV307_Library-master/Example/libraries/zf_common/zf_common_interrupt.c:117

    if(!interrupt_nest_count)
    1e46:	83c1a783          	lw	a5,-1988(gp) # 20000274 <interrupt_nest_count>
    1e4a:	e391                	bnez	a5,1e4e <interrupt_global_disable+0x10>
E:/wch307/CHV307_Library-master/Example/libraries/zf_common/zf_common_interrupt.c:119
    {
        __disable_irq();
    1e4c:	35c1                	jal	1d0c <__disable_irq>
E:/wch307/CHV307_Library-master/Example/libraries/zf_common/zf_common_interrupt.c:121
    }
    interrupt_nest_count ++;
    1e4e:	83c1a783          	lw	a5,-1988(gp) # 20000274 <interrupt_nest_count>
    1e52:	00178713          	addi	a4,a5,1
    1e56:	82e1ae23          	sw	a4,-1988(gp) # 20000274 <interrupt_nest_count>
E:/wch307/CHV307_Library-master/Example/libraries/zf_common/zf_common_interrupt.c:122
    return interrupt_nest_count;
    1e5a:	83c1a783          	lw	a5,-1988(gp) # 20000274 <interrupt_nest_count>
E:/wch307/CHV307_Library-master/Example/libraries/zf_common/zf_common_interrupt.c:123
}
    1e5e:	853e                	mv	a0,a5
    1e60:	40b2                	lw	ra,12(sp)
    1e62:	4422                	lw	s0,8(sp)
    1e64:	0141                	addi	sp,sp,16
    1e66:	8082                	ret

00001e68 <interrupt_init>:
interrupt_init():
E:/wch307/CHV307_Library-master/Example/libraries/zf_common/zf_common_interrupt.c:133
// 返回参数     void
// 使用示例     interrupt_init();
// 备注信息     会在  clock_init 内部调用
//-------------------------------------------------------------------------------------------------------------------
void interrupt_init (void)
{
    1e68:	1141                	addi	sp,sp,-16
    1e6a:	c606                	sw	ra,12(sp)
    1e6c:	c422                	sw	s0,8(sp)
    1e6e:	0800                	addi	s0,sp,16
E:/wch307/CHV307_Library-master/Example/libraries/zf_common/zf_common_interrupt.c:134
    interrupt_global_enable(0);  //使能全局中断
    1e70:	4501                	li	a0,0
    1e72:	3f71                	jal	1e0e <interrupt_global_enable>
E:/wch307/CHV307_Library-master/Example/libraries/zf_common/zf_common_interrupt.c:135
}
    1e74:	0001                	nop
    1e76:	40b2                	lw	ra,12(sp)
    1e78:	4422                	lw	s0,8(sp)
    1e7a:	0141                	addi	sp,sp,16
    1e7c:	8082                	ret

00001e7e <USART1_IRQHandler>:
USART1_IRQHandler():
E:/wch307/CHV307_Library-master/Example/E02_uart_demo/user/src/isr.c:81
void EXTI4_IRQHandler(void) __attribute__((interrupt()));
void EXTI9_5_IRQHandler(void) __attribute__((interrupt()));
void EXTI15_10_IRQHandler(void) __attribute__((interrupt()));

void USART1_IRQHandler(void)
{
    1e7e:	7135                	addi	sp,sp,-160
    1e80:	cf06                	sw	ra,156(sp)
    1e82:	cd16                	sw	t0,152(sp)
    1e84:	cb1a                	sw	t1,148(sp)
    1e86:	c91e                	sw	t2,144(sp)
    1e88:	c722                	sw	s0,140(sp)
    1e8a:	c52a                	sw	a0,136(sp)
    1e8c:	c32e                	sw	a1,132(sp)
    1e8e:	c132                	sw	a2,128(sp)
    1e90:	deb6                	sw	a3,124(sp)
    1e92:	dcba                	sw	a4,120(sp)
    1e94:	dabe                	sw	a5,116(sp)
    1e96:	d8c2                	sw	a6,112(sp)
    1e98:	d6c6                	sw	a7,108(sp)
    1e9a:	d4f2                	sw	t3,104(sp)
    1e9c:	d2f6                	sw	t4,100(sp)
    1e9e:	d0fa                	sw	t5,96(sp)
    1ea0:	cefe                	sw	t6,92(sp)
    1ea2:	e682                	fsw	ft0,76(sp)
    1ea4:	e486                	fsw	ft1,72(sp)
    1ea6:	e28a                	fsw	ft2,68(sp)
    1ea8:	e08e                	fsw	ft3,64(sp)
    1eaa:	fe12                	fsw	ft4,60(sp)
    1eac:	fc16                	fsw	ft5,56(sp)
    1eae:	fa1a                	fsw	ft6,52(sp)
    1eb0:	f81e                	fsw	ft7,48(sp)
    1eb2:	f62a                	fsw	fa0,44(sp)
    1eb4:	f42e                	fsw	fa1,40(sp)
    1eb6:	f232                	fsw	fa2,36(sp)
    1eb8:	f036                	fsw	fa3,32(sp)
    1eba:	ee3a                	fsw	fa4,28(sp)
    1ebc:	ec3e                	fsw	fa5,24(sp)
    1ebe:	ea42                	fsw	fa6,20(sp)
    1ec0:	e846                	fsw	fa7,16(sp)
    1ec2:	e672                	fsw	ft8,12(sp)
    1ec4:	e476                	fsw	ft9,8(sp)
    1ec6:	e27a                	fsw	ft10,4(sp)
    1ec8:	e07e                	fsw	ft11,0(sp)
    1eca:	1100                	addi	s0,sp,160
E:/wch307/CHV307_Library-master/Example/E02_uart_demo/user/src/isr.c:82
    if(USART_GetITStatus(USART1, USART_IT_RXNE) != RESET)
    1ecc:	52500593          	li	a1,1317
    1ed0:	400147b7          	lui	a5,0x40014
    1ed4:	80078513          	addi	a0,a5,-2048 # 40013800 <_eusrstack+0x20003800>
    1ed8:	0aa020ef          	jal	ra,3f82 <USART_GetITStatus>
    1edc:	87aa                	mv	a5,a0
    1ede:	cb89                	beqz	a5,1ef0 <USART1_IRQHandler+0x72>
E:/wch307/CHV307_Library-master/Example/E02_uart_demo/user/src/isr.c:85
    {

        USART_ClearITPendingBit(USART1, USART_IT_RXNE);
    1ee0:	52500593          	li	a1,1317
    1ee4:	400147b7          	lui	a5,0x40014
    1ee8:	80078513          	addi	a0,a5,-2048 # 40013800 <_eusrstack+0x20003800>
    1eec:	198020ef          	jal	ra,4084 <USART_ClearITPendingBit>
E:/wch307/CHV307_Library-master/Example/E02_uart_demo/user/src/isr.c:87
    }
}
    1ef0:	0001                	nop
    1ef2:	40fa                	lw	ra,156(sp)
    1ef4:	42ea                	lw	t0,152(sp)
    1ef6:	435a                	lw	t1,148(sp)
    1ef8:	43ca                	lw	t2,144(sp)
    1efa:	443a                	lw	s0,140(sp)
    1efc:	452a                	lw	a0,136(sp)
    1efe:	459a                	lw	a1,132(sp)
    1f00:	460a                	lw	a2,128(sp)
    1f02:	56f6                	lw	a3,124(sp)
    1f04:	5766                	lw	a4,120(sp)
    1f06:	57d6                	lw	a5,116(sp)
    1f08:	5846                	lw	a6,112(sp)
    1f0a:	58b6                	lw	a7,108(sp)
    1f0c:	5e26                	lw	t3,104(sp)
    1f0e:	5e96                	lw	t4,100(sp)
    1f10:	5f06                	lw	t5,96(sp)
    1f12:	4ff6                	lw	t6,92(sp)
    1f14:	6036                	flw	ft0,76(sp)
    1f16:	60a6                	flw	ft1,72(sp)
    1f18:	6116                	flw	ft2,68(sp)
    1f1a:	6186                	flw	ft3,64(sp)
    1f1c:	7272                	flw	ft4,60(sp)
    1f1e:	72e2                	flw	ft5,56(sp)
    1f20:	7352                	flw	ft6,52(sp)
    1f22:	73c2                	flw	ft7,48(sp)
    1f24:	7532                	flw	fa0,44(sp)
    1f26:	75a2                	flw	fa1,40(sp)
    1f28:	7612                	flw	fa2,36(sp)
    1f2a:	7682                	flw	fa3,32(sp)
    1f2c:	6772                	flw	fa4,28(sp)
    1f2e:	67e2                	flw	fa5,24(sp)
    1f30:	6852                	flw	fa6,20(sp)
    1f32:	68c2                	flw	fa7,16(sp)
    1f34:	6e32                	flw	ft8,12(sp)
    1f36:	6ea2                	flw	ft9,8(sp)
    1f38:	6f12                	flw	ft10,4(sp)
    1f3a:	6f82                	flw	ft11,0(sp)
    1f3c:	610d                	addi	sp,sp,160
    1f3e:	30200073          	mret

00001f42 <USART2_IRQHandler>:
USART2_IRQHandler():
E:/wch307/CHV307_Library-master/Example/E02_uart_demo/user/src/isr.c:89
void USART2_IRQHandler(void)
{
    1f42:	7135                	addi	sp,sp,-160
    1f44:	cf06                	sw	ra,156(sp)
    1f46:	cd16                	sw	t0,152(sp)
    1f48:	cb1a                	sw	t1,148(sp)
    1f4a:	c91e                	sw	t2,144(sp)
    1f4c:	c722                	sw	s0,140(sp)
    1f4e:	c52a                	sw	a0,136(sp)
    1f50:	c32e                	sw	a1,132(sp)
    1f52:	c132                	sw	a2,128(sp)
    1f54:	deb6                	sw	a3,124(sp)
    1f56:	dcba                	sw	a4,120(sp)
    1f58:	dabe                	sw	a5,116(sp)
    1f5a:	d8c2                	sw	a6,112(sp)
    1f5c:	d6c6                	sw	a7,108(sp)
    1f5e:	d4f2                	sw	t3,104(sp)
    1f60:	d2f6                	sw	t4,100(sp)
    1f62:	d0fa                	sw	t5,96(sp)
    1f64:	cefe                	sw	t6,92(sp)
    1f66:	e682                	fsw	ft0,76(sp)
    1f68:	e486                	fsw	ft1,72(sp)
    1f6a:	e28a                	fsw	ft2,68(sp)
    1f6c:	e08e                	fsw	ft3,64(sp)
    1f6e:	fe12                	fsw	ft4,60(sp)
    1f70:	fc16                	fsw	ft5,56(sp)
    1f72:	fa1a                	fsw	ft6,52(sp)
    1f74:	f81e                	fsw	ft7,48(sp)
    1f76:	f62a                	fsw	fa0,44(sp)
    1f78:	f42e                	fsw	fa1,40(sp)
    1f7a:	f232                	fsw	fa2,36(sp)
    1f7c:	f036                	fsw	fa3,32(sp)
    1f7e:	ee3a                	fsw	fa4,28(sp)
    1f80:	ec3e                	fsw	fa5,24(sp)
    1f82:	ea42                	fsw	fa6,20(sp)
    1f84:	e846                	fsw	fa7,16(sp)
    1f86:	e672                	fsw	ft8,12(sp)
    1f88:	e476                	fsw	ft9,8(sp)
    1f8a:	e27a                	fsw	ft10,4(sp)
    1f8c:	e07e                	fsw	ft11,0(sp)
    1f8e:	1100                	addi	s0,sp,160
E:/wch307/CHV307_Library-master/Example/E02_uart_demo/user/src/isr.c:90
    if(USART_GetITStatus(USART2, USART_IT_RXNE) != RESET)
    1f90:	52500593          	li	a1,1317
    1f94:	400047b7          	lui	a5,0x40004
    1f98:	40078513          	addi	a0,a5,1024 # 40004400 <_eusrstack+0x1fff4400>
    1f9c:	7e7010ef          	jal	ra,3f82 <USART_GetITStatus>
    1fa0:	87aa                	mv	a5,a0
    1fa2:	cb89                	beqz	a5,1fb4 <USART2_IRQHandler+0x72>
E:/wch307/CHV307_Library-master/Example/E02_uart_demo/user/src/isr.c:93
    {

        USART_ClearITPendingBit(USART2, USART_IT_RXNE);
    1fa4:	52500593          	li	a1,1317
    1fa8:	400047b7          	lui	a5,0x40004
    1fac:	40078513          	addi	a0,a5,1024 # 40004400 <_eusrstack+0x1fff4400>
    1fb0:	0d4020ef          	jal	ra,4084 <USART_ClearITPendingBit>
E:/wch307/CHV307_Library-master/Example/E02_uart_demo/user/src/isr.c:95
    }
}
    1fb4:	0001                	nop
    1fb6:	40fa                	lw	ra,156(sp)
    1fb8:	42ea                	lw	t0,152(sp)
    1fba:	435a                	lw	t1,148(sp)
    1fbc:	43ca                	lw	t2,144(sp)
    1fbe:	443a                	lw	s0,140(sp)
    1fc0:	452a                	lw	a0,136(sp)
    1fc2:	459a                	lw	a1,132(sp)
    1fc4:	460a                	lw	a2,128(sp)
    1fc6:	56f6                	lw	a3,124(sp)
    1fc8:	5766                	lw	a4,120(sp)
    1fca:	57d6                	lw	a5,116(sp)
    1fcc:	5846                	lw	a6,112(sp)
    1fce:	58b6                	lw	a7,108(sp)
    1fd0:	5e26                	lw	t3,104(sp)
    1fd2:	5e96                	lw	t4,100(sp)
    1fd4:	5f06                	lw	t5,96(sp)
    1fd6:	4ff6                	lw	t6,92(sp)
    1fd8:	6036                	flw	ft0,76(sp)
    1fda:	60a6                	flw	ft1,72(sp)
    1fdc:	6116                	flw	ft2,68(sp)
    1fde:	6186                	flw	ft3,64(sp)
    1fe0:	7272                	flw	ft4,60(sp)
    1fe2:	72e2                	flw	ft5,56(sp)
    1fe4:	7352                	flw	ft6,52(sp)
    1fe6:	73c2                	flw	ft7,48(sp)
    1fe8:	7532                	flw	fa0,44(sp)
    1fea:	75a2                	flw	fa1,40(sp)
    1fec:	7612                	flw	fa2,36(sp)
    1fee:	7682                	flw	fa3,32(sp)
    1ff0:	6772                	flw	fa4,28(sp)
    1ff2:	67e2                	flw	fa5,24(sp)
    1ff4:	6852                	flw	fa6,20(sp)
    1ff6:	68c2                	flw	fa7,16(sp)
    1ff8:	6e32                	flw	ft8,12(sp)
    1ffa:	6ea2                	flw	ft9,8(sp)
    1ffc:	6f12                	flw	ft10,4(sp)
    1ffe:	6f82                	flw	ft11,0(sp)
    2000:	610d                	addi	sp,sp,160
    2002:	30200073          	mret

00002006 <USART3_IRQHandler>:
USART3_IRQHandler():
E:/wch307/CHV307_Library-master/Example/E02_uart_demo/user/src/isr.c:97
void USART3_IRQHandler(void)
{
    2006:	7135                	addi	sp,sp,-160
    2008:	cf06                	sw	ra,156(sp)
    200a:	cd16                	sw	t0,152(sp)
    200c:	cb1a                	sw	t1,148(sp)
    200e:	c91e                	sw	t2,144(sp)
    2010:	c722                	sw	s0,140(sp)
    2012:	c52a                	sw	a0,136(sp)
    2014:	c32e                	sw	a1,132(sp)
    2016:	c132                	sw	a2,128(sp)
    2018:	deb6                	sw	a3,124(sp)
    201a:	dcba                	sw	a4,120(sp)
    201c:	dabe                	sw	a5,116(sp)
    201e:	d8c2                	sw	a6,112(sp)
    2020:	d6c6                	sw	a7,108(sp)
    2022:	d4f2                	sw	t3,104(sp)
    2024:	d2f6                	sw	t4,100(sp)
    2026:	d0fa                	sw	t5,96(sp)
    2028:	cefe                	sw	t6,92(sp)
    202a:	e682                	fsw	ft0,76(sp)
    202c:	e486                	fsw	ft1,72(sp)
    202e:	e28a                	fsw	ft2,68(sp)
    2030:	e08e                	fsw	ft3,64(sp)
    2032:	fe12                	fsw	ft4,60(sp)
    2034:	fc16                	fsw	ft5,56(sp)
    2036:	fa1a                	fsw	ft6,52(sp)
    2038:	f81e                	fsw	ft7,48(sp)
    203a:	f62a                	fsw	fa0,44(sp)
    203c:	f42e                	fsw	fa1,40(sp)
    203e:	f232                	fsw	fa2,36(sp)
    2040:	f036                	fsw	fa3,32(sp)
    2042:	ee3a                	fsw	fa4,28(sp)
    2044:	ec3e                	fsw	fa5,24(sp)
    2046:	ea42                	fsw	fa6,20(sp)
    2048:	e846                	fsw	fa7,16(sp)
    204a:	e672                	fsw	ft8,12(sp)
    204c:	e476                	fsw	ft9,8(sp)
    204e:	e27a                	fsw	ft10,4(sp)
    2050:	e07e                	fsw	ft11,0(sp)
    2052:	1100                	addi	s0,sp,160
E:/wch307/CHV307_Library-master/Example/E02_uart_demo/user/src/isr.c:98
    if(USART_GetITStatus(USART3, USART_IT_RXNE) != RESET)
    2054:	52500593          	li	a1,1317
    2058:	400057b7          	lui	a5,0x40005
    205c:	80078513          	addi	a0,a5,-2048 # 40004800 <_eusrstack+0x1fff4800>
    2060:	723010ef          	jal	ra,3f82 <USART_GetITStatus>
    2064:	87aa                	mv	a5,a0
    2066:	cb99                	beqz	a5,207c <USART3_IRQHandler+0x76>
E:/wch307/CHV307_Library-master/Example/E02_uart_demo/user/src/isr.c:104
    {
#if DEBUG_UART_USE_INTERRUPT                                                    // 如果开启 debug 串口中断
        debug_interrupr_handler();                                              // 调用 debug 串口接收处理函数 数据会被 debug 环形缓冲区读取
#endif                                                                          // 如果修改了 DEBUG_UART_INDEX 那这段代码需要放到对应的串口中断去
        extern void uart_rx_interrupt_handler (void);
        uart_rx_interrupt_handler();
    2068:	318010ef          	jal	ra,3380 <uart_rx_interrupt_handler>
E:/wch307/CHV307_Library-master/Example/E02_uart_demo/user/src/isr.c:105
        USART_ClearITPendingBit(USART3, USART_IT_RXNE);
    206c:	52500593          	li	a1,1317
    2070:	400057b7          	lui	a5,0x40005
    2074:	80078513          	addi	a0,a5,-2048 # 40004800 <_eusrstack+0x1fff4800>
    2078:	00c020ef          	jal	ra,4084 <USART_ClearITPendingBit>
E:/wch307/CHV307_Library-master/Example/E02_uart_demo/user/src/isr.c:107
    }
}
    207c:	0001                	nop
    207e:	40fa                	lw	ra,156(sp)
    2080:	42ea                	lw	t0,152(sp)
    2082:	435a                	lw	t1,148(sp)
    2084:	43ca                	lw	t2,144(sp)
    2086:	443a                	lw	s0,140(sp)
    2088:	452a                	lw	a0,136(sp)
    208a:	459a                	lw	a1,132(sp)
    208c:	460a                	lw	a2,128(sp)
    208e:	56f6                	lw	a3,124(sp)
    2090:	5766                	lw	a4,120(sp)
    2092:	57d6                	lw	a5,116(sp)
    2094:	5846                	lw	a6,112(sp)
    2096:	58b6                	lw	a7,108(sp)
    2098:	5e26                	lw	t3,104(sp)
    209a:	5e96                	lw	t4,100(sp)
    209c:	5f06                	lw	t5,96(sp)
    209e:	4ff6                	lw	t6,92(sp)
    20a0:	6036                	flw	ft0,76(sp)
    20a2:	60a6                	flw	ft1,72(sp)
    20a4:	6116                	flw	ft2,68(sp)
    20a6:	6186                	flw	ft3,64(sp)
    20a8:	7272                	flw	ft4,60(sp)
    20aa:	72e2                	flw	ft5,56(sp)
    20ac:	7352                	flw	ft6,52(sp)
    20ae:	73c2                	flw	ft7,48(sp)
    20b0:	7532                	flw	fa0,44(sp)
    20b2:	75a2                	flw	fa1,40(sp)
    20b4:	7612                	flw	fa2,36(sp)
    20b6:	7682                	flw	fa3,32(sp)
    20b8:	6772                	flw	fa4,28(sp)
    20ba:	67e2                	flw	fa5,24(sp)
    20bc:	6852                	flw	fa6,20(sp)
    20be:	68c2                	flw	fa7,16(sp)
    20c0:	6e32                	flw	ft8,12(sp)
    20c2:	6ea2                	flw	ft9,8(sp)
    20c4:	6f12                	flw	ft10,4(sp)
    20c6:	6f82                	flw	ft11,0(sp)
    20c8:	610d                	addi	sp,sp,160
    20ca:	30200073          	mret

000020ce <UART4_IRQHandler>:
UART4_IRQHandler():
E:/wch307/CHV307_Library-master/Example/E02_uart_demo/user/src/isr.c:109
void UART4_IRQHandler (void)
{
    20ce:	7135                	addi	sp,sp,-160
    20d0:	cf06                	sw	ra,156(sp)
    20d2:	cd16                	sw	t0,152(sp)
    20d4:	cb1a                	sw	t1,148(sp)
    20d6:	c91e                	sw	t2,144(sp)
    20d8:	c722                	sw	s0,140(sp)
    20da:	c52a                	sw	a0,136(sp)
    20dc:	c32e                	sw	a1,132(sp)
    20de:	c132                	sw	a2,128(sp)
    20e0:	deb6                	sw	a3,124(sp)
    20e2:	dcba                	sw	a4,120(sp)
    20e4:	dabe                	sw	a5,116(sp)
    20e6:	d8c2                	sw	a6,112(sp)
    20e8:	d6c6                	sw	a7,108(sp)
    20ea:	d4f2                	sw	t3,104(sp)
    20ec:	d2f6                	sw	t4,100(sp)
    20ee:	d0fa                	sw	t5,96(sp)
    20f0:	cefe                	sw	t6,92(sp)
    20f2:	e682                	fsw	ft0,76(sp)
    20f4:	e486                	fsw	ft1,72(sp)
    20f6:	e28a                	fsw	ft2,68(sp)
    20f8:	e08e                	fsw	ft3,64(sp)
    20fa:	fe12                	fsw	ft4,60(sp)
    20fc:	fc16                	fsw	ft5,56(sp)
    20fe:	fa1a                	fsw	ft6,52(sp)
    2100:	f81e                	fsw	ft7,48(sp)
    2102:	f62a                	fsw	fa0,44(sp)
    2104:	f42e                	fsw	fa1,40(sp)
    2106:	f232                	fsw	fa2,36(sp)
    2108:	f036                	fsw	fa3,32(sp)
    210a:	ee3a                	fsw	fa4,28(sp)
    210c:	ec3e                	fsw	fa5,24(sp)
    210e:	ea42                	fsw	fa6,20(sp)
    2110:	e846                	fsw	fa7,16(sp)
    2112:	e672                	fsw	ft8,12(sp)
    2114:	e476                	fsw	ft9,8(sp)
    2116:	e27a                	fsw	ft10,4(sp)
    2118:	e07e                	fsw	ft11,0(sp)
    211a:	1100                	addi	s0,sp,160
E:/wch307/CHV307_Library-master/Example/E02_uart_demo/user/src/isr.c:110
    if(USART_GetITStatus(UART4, USART_IT_RXNE) != RESET)
    211c:	52500593          	li	a1,1317
    2120:	400057b7          	lui	a5,0x40005
    2124:	c0078513          	addi	a0,a5,-1024 # 40004c00 <_eusrstack+0x1fff4c00>
    2128:	65b010ef          	jal	ra,3f82 <USART_GetITStatus>
    212c:	87aa                	mv	a5,a0
    212e:	cb89                	beqz	a5,2140 <UART4_IRQHandler+0x72>
E:/wch307/CHV307_Library-master/Example/E02_uart_demo/user/src/isr.c:113
    {

        USART_ClearITPendingBit(UART4, USART_IT_RXNE);
    2130:	52500593          	li	a1,1317
    2134:	400057b7          	lui	a5,0x40005
    2138:	c0078513          	addi	a0,a5,-1024 # 40004c00 <_eusrstack+0x1fff4c00>
    213c:	749010ef          	jal	ra,4084 <USART_ClearITPendingBit>
E:/wch307/CHV307_Library-master/Example/E02_uart_demo/user/src/isr.c:115
    }
}
    2140:	0001                	nop
    2142:	40fa                	lw	ra,156(sp)
    2144:	42ea                	lw	t0,152(sp)
    2146:	435a                	lw	t1,148(sp)
    2148:	43ca                	lw	t2,144(sp)
    214a:	443a                	lw	s0,140(sp)
    214c:	452a                	lw	a0,136(sp)
    214e:	459a                	lw	a1,132(sp)
    2150:	460a                	lw	a2,128(sp)
    2152:	56f6                	lw	a3,124(sp)
    2154:	5766                	lw	a4,120(sp)
    2156:	57d6                	lw	a5,116(sp)
    2158:	5846                	lw	a6,112(sp)
    215a:	58b6                	lw	a7,108(sp)
    215c:	5e26                	lw	t3,104(sp)
    215e:	5e96                	lw	t4,100(sp)
    2160:	5f06                	lw	t5,96(sp)
    2162:	4ff6                	lw	t6,92(sp)
    2164:	6036                	flw	ft0,76(sp)
    2166:	60a6                	flw	ft1,72(sp)
    2168:	6116                	flw	ft2,68(sp)
    216a:	6186                	flw	ft3,64(sp)
    216c:	7272                	flw	ft4,60(sp)
    216e:	72e2                	flw	ft5,56(sp)
    2170:	7352                	flw	ft6,52(sp)
    2172:	73c2                	flw	ft7,48(sp)
    2174:	7532                	flw	fa0,44(sp)
    2176:	75a2                	flw	fa1,40(sp)
    2178:	7612                	flw	fa2,36(sp)
    217a:	7682                	flw	fa3,32(sp)
    217c:	6772                	flw	fa4,28(sp)
    217e:	67e2                	flw	fa5,24(sp)
    2180:	6852                	flw	fa6,20(sp)
    2182:	68c2                	flw	fa7,16(sp)
    2184:	6e32                	flw	ft8,12(sp)
    2186:	6ea2                	flw	ft9,8(sp)
    2188:	6f12                	flw	ft10,4(sp)
    218a:	6f82                	flw	ft11,0(sp)
    218c:	610d                	addi	sp,sp,160
    218e:	30200073          	mret

00002192 <UART5_IRQHandler>:
UART5_IRQHandler():
E:/wch307/CHV307_Library-master/Example/E02_uart_demo/user/src/isr.c:117
void UART5_IRQHandler (void)
{
    2192:	7135                	addi	sp,sp,-160
    2194:	cf06                	sw	ra,156(sp)
    2196:	cd16                	sw	t0,152(sp)
    2198:	cb1a                	sw	t1,148(sp)
    219a:	c91e                	sw	t2,144(sp)
    219c:	c722                	sw	s0,140(sp)
    219e:	c52a                	sw	a0,136(sp)
    21a0:	c32e                	sw	a1,132(sp)
    21a2:	c132                	sw	a2,128(sp)
    21a4:	deb6                	sw	a3,124(sp)
    21a6:	dcba                	sw	a4,120(sp)
    21a8:	dabe                	sw	a5,116(sp)
    21aa:	d8c2                	sw	a6,112(sp)
    21ac:	d6c6                	sw	a7,108(sp)
    21ae:	d4f2                	sw	t3,104(sp)
    21b0:	d2f6                	sw	t4,100(sp)
    21b2:	d0fa                	sw	t5,96(sp)
    21b4:	cefe                	sw	t6,92(sp)
    21b6:	e682                	fsw	ft0,76(sp)
    21b8:	e486                	fsw	ft1,72(sp)
    21ba:	e28a                	fsw	ft2,68(sp)
    21bc:	e08e                	fsw	ft3,64(sp)
    21be:	fe12                	fsw	ft4,60(sp)
    21c0:	fc16                	fsw	ft5,56(sp)
    21c2:	fa1a                	fsw	ft6,52(sp)
    21c4:	f81e                	fsw	ft7,48(sp)
    21c6:	f62a                	fsw	fa0,44(sp)
    21c8:	f42e                	fsw	fa1,40(sp)
    21ca:	f232                	fsw	fa2,36(sp)
    21cc:	f036                	fsw	fa3,32(sp)
    21ce:	ee3a                	fsw	fa4,28(sp)
    21d0:	ec3e                	fsw	fa5,24(sp)
    21d2:	ea42                	fsw	fa6,20(sp)
    21d4:	e846                	fsw	fa7,16(sp)
    21d6:	e672                	fsw	ft8,12(sp)
    21d8:	e476                	fsw	ft9,8(sp)
    21da:	e27a                	fsw	ft10,4(sp)
    21dc:	e07e                	fsw	ft11,0(sp)
    21de:	1100                	addi	s0,sp,160
E:/wch307/CHV307_Library-master/Example/E02_uart_demo/user/src/isr.c:118
    if(USART_GetITStatus(UART5, USART_IT_RXNE) != RESET)
    21e0:	52500593          	li	a1,1317
    21e4:	40005537          	lui	a0,0x40005
    21e8:	59b010ef          	jal	ra,3f82 <USART_GetITStatus>
    21ec:	87aa                	mv	a5,a0
    21ee:	cf81                	beqz	a5,2206 <UART5_IRQHandler+0x74>
E:/wch307/CHV307_Library-master/Example/E02_uart_demo/user/src/isr.c:120
    {
        camera_uart_handler();
    21f0:	200007b7          	lui	a5,0x20000
    21f4:	2387a783          	lw	a5,568(a5) # 20000238 <camera_uart_handler>
    21f8:	9782                	jalr	a5
E:/wch307/CHV307_Library-master/Example/E02_uart_demo/user/src/isr.c:121
        USART_ClearITPendingBit(UART5, USART_IT_RXNE);
    21fa:	52500593          	li	a1,1317
    21fe:	40005537          	lui	a0,0x40005
    2202:	683010ef          	jal	ra,4084 <USART_ClearITPendingBit>
E:/wch307/CHV307_Library-master/Example/E02_uart_demo/user/src/isr.c:123
    }
}
    2206:	0001                	nop
    2208:	40fa                	lw	ra,156(sp)
    220a:	42ea                	lw	t0,152(sp)
    220c:	435a                	lw	t1,148(sp)
    220e:	43ca                	lw	t2,144(sp)
    2210:	443a                	lw	s0,140(sp)
    2212:	452a                	lw	a0,136(sp)
    2214:	459a                	lw	a1,132(sp)
    2216:	460a                	lw	a2,128(sp)
    2218:	56f6                	lw	a3,124(sp)
    221a:	5766                	lw	a4,120(sp)
    221c:	57d6                	lw	a5,116(sp)
    221e:	5846                	lw	a6,112(sp)
    2220:	58b6                	lw	a7,108(sp)
    2222:	5e26                	lw	t3,104(sp)
    2224:	5e96                	lw	t4,100(sp)
    2226:	5f06                	lw	t5,96(sp)
    2228:	4ff6                	lw	t6,92(sp)
    222a:	6036                	flw	ft0,76(sp)
    222c:	60a6                	flw	ft1,72(sp)
    222e:	6116                	flw	ft2,68(sp)
    2230:	6186                	flw	ft3,64(sp)
    2232:	7272                	flw	ft4,60(sp)
    2234:	72e2                	flw	ft5,56(sp)
    2236:	7352                	flw	ft6,52(sp)
    2238:	73c2                	flw	ft7,48(sp)
    223a:	7532                	flw	fa0,44(sp)
    223c:	75a2                	flw	fa1,40(sp)
    223e:	7612                	flw	fa2,36(sp)
    2240:	7682                	flw	fa3,32(sp)
    2242:	6772                	flw	fa4,28(sp)
    2244:	67e2                	flw	fa5,24(sp)
    2246:	6852                	flw	fa6,20(sp)
    2248:	68c2                	flw	fa7,16(sp)
    224a:	6e32                	flw	ft8,12(sp)
    224c:	6ea2                	flw	ft9,8(sp)
    224e:	6f12                	flw	ft10,4(sp)
    2250:	6f82                	flw	ft11,0(sp)
    2252:	610d                	addi	sp,sp,160
    2254:	30200073          	mret

00002258 <UART6_IRQHandler>:
UART6_IRQHandler():
E:/wch307/CHV307_Library-master/Example/E02_uart_demo/user/src/isr.c:125
void UART6_IRQHandler (void)
{
    2258:	7135                	addi	sp,sp,-160
    225a:	cf06                	sw	ra,156(sp)
    225c:	cd16                	sw	t0,152(sp)
    225e:	cb1a                	sw	t1,148(sp)
    2260:	c91e                	sw	t2,144(sp)
    2262:	c722                	sw	s0,140(sp)
    2264:	c52a                	sw	a0,136(sp)
    2266:	c32e                	sw	a1,132(sp)
    2268:	c132                	sw	a2,128(sp)
    226a:	deb6                	sw	a3,124(sp)
    226c:	dcba                	sw	a4,120(sp)
    226e:	dabe                	sw	a5,116(sp)
    2270:	d8c2                	sw	a6,112(sp)
    2272:	d6c6                	sw	a7,108(sp)
    2274:	d4f2                	sw	t3,104(sp)
    2276:	d2f6                	sw	t4,100(sp)
    2278:	d0fa                	sw	t5,96(sp)
    227a:	cefe                	sw	t6,92(sp)
    227c:	e682                	fsw	ft0,76(sp)
    227e:	e486                	fsw	ft1,72(sp)
    2280:	e28a                	fsw	ft2,68(sp)
    2282:	e08e                	fsw	ft3,64(sp)
    2284:	fe12                	fsw	ft4,60(sp)
    2286:	fc16                	fsw	ft5,56(sp)
    2288:	fa1a                	fsw	ft6,52(sp)
    228a:	f81e                	fsw	ft7,48(sp)
    228c:	f62a                	fsw	fa0,44(sp)
    228e:	f42e                	fsw	fa1,40(sp)
    2290:	f232                	fsw	fa2,36(sp)
    2292:	f036                	fsw	fa3,32(sp)
    2294:	ee3a                	fsw	fa4,28(sp)
    2296:	ec3e                	fsw	fa5,24(sp)
    2298:	ea42                	fsw	fa6,20(sp)
    229a:	e846                	fsw	fa7,16(sp)
    229c:	e672                	fsw	ft8,12(sp)
    229e:	e476                	fsw	ft9,8(sp)
    22a0:	e27a                	fsw	ft10,4(sp)
    22a2:	e07e                	fsw	ft11,0(sp)
    22a4:	1100                	addi	s0,sp,160
E:/wch307/CHV307_Library-master/Example/E02_uart_demo/user/src/isr.c:126
    if(USART_GetITStatus(UART6, USART_IT_RXNE) != RESET)
    22a6:	52500593          	li	a1,1317
    22aa:	400027b7          	lui	a5,0x40002
    22ae:	80078513          	addi	a0,a5,-2048 # 40001800 <_eusrstack+0x1fff1800>
    22b2:	4d1010ef          	jal	ra,3f82 <USART_GetITStatus>
    22b6:	87aa                	mv	a5,a0
    22b8:	cb89                	beqz	a5,22ca <UART6_IRQHandler+0x72>
E:/wch307/CHV307_Library-master/Example/E02_uart_demo/user/src/isr.c:129
    {

        USART_ClearITPendingBit(UART6, USART_IT_RXNE);
    22ba:	52500593          	li	a1,1317
    22be:	400027b7          	lui	a5,0x40002
    22c2:	80078513          	addi	a0,a5,-2048 # 40001800 <_eusrstack+0x1fff1800>
    22c6:	5bf010ef          	jal	ra,4084 <USART_ClearITPendingBit>
E:/wch307/CHV307_Library-master/Example/E02_uart_demo/user/src/isr.c:131
    }
}
    22ca:	0001                	nop
    22cc:	40fa                	lw	ra,156(sp)
    22ce:	42ea                	lw	t0,152(sp)
    22d0:	435a                	lw	t1,148(sp)
    22d2:	43ca                	lw	t2,144(sp)
    22d4:	443a                	lw	s0,140(sp)
    22d6:	452a                	lw	a0,136(sp)
    22d8:	459a                	lw	a1,132(sp)
    22da:	460a                	lw	a2,128(sp)
    22dc:	56f6                	lw	a3,124(sp)
    22de:	5766                	lw	a4,120(sp)
    22e0:	57d6                	lw	a5,116(sp)
    22e2:	5846                	lw	a6,112(sp)
    22e4:	58b6                	lw	a7,108(sp)
    22e6:	5e26                	lw	t3,104(sp)
    22e8:	5e96                	lw	t4,100(sp)
    22ea:	5f06                	lw	t5,96(sp)
    22ec:	4ff6                	lw	t6,92(sp)
    22ee:	6036                	flw	ft0,76(sp)
    22f0:	60a6                	flw	ft1,72(sp)
    22f2:	6116                	flw	ft2,68(sp)
    22f4:	6186                	flw	ft3,64(sp)
    22f6:	7272                	flw	ft4,60(sp)
    22f8:	72e2                	flw	ft5,56(sp)
    22fa:	7352                	flw	ft6,52(sp)
    22fc:	73c2                	flw	ft7,48(sp)
    22fe:	7532                	flw	fa0,44(sp)
    2300:	75a2                	flw	fa1,40(sp)
    2302:	7612                	flw	fa2,36(sp)
    2304:	7682                	flw	fa3,32(sp)
    2306:	6772                	flw	fa4,28(sp)
    2308:	67e2                	flw	fa5,24(sp)
    230a:	6852                	flw	fa6,20(sp)
    230c:	68c2                	flw	fa7,16(sp)
    230e:	6e32                	flw	ft8,12(sp)
    2310:	6ea2                	flw	ft9,8(sp)
    2312:	6f12                	flw	ft10,4(sp)
    2314:	6f82                	flw	ft11,0(sp)
    2316:	610d                	addi	sp,sp,160
    2318:	30200073          	mret

0000231c <UART7_IRQHandler>:
UART7_IRQHandler():
E:/wch307/CHV307_Library-master/Example/E02_uart_demo/user/src/isr.c:133
void UART7_IRQHandler (void)
{
    231c:	7135                	addi	sp,sp,-160
    231e:	cf06                	sw	ra,156(sp)
    2320:	cd16                	sw	t0,152(sp)
    2322:	cb1a                	sw	t1,148(sp)
    2324:	c91e                	sw	t2,144(sp)
    2326:	c722                	sw	s0,140(sp)
    2328:	c52a                	sw	a0,136(sp)
    232a:	c32e                	sw	a1,132(sp)
    232c:	c132                	sw	a2,128(sp)
    232e:	deb6                	sw	a3,124(sp)
    2330:	dcba                	sw	a4,120(sp)
    2332:	dabe                	sw	a5,116(sp)
    2334:	d8c2                	sw	a6,112(sp)
    2336:	d6c6                	sw	a7,108(sp)
    2338:	d4f2                	sw	t3,104(sp)
    233a:	d2f6                	sw	t4,100(sp)
    233c:	d0fa                	sw	t5,96(sp)
    233e:	cefe                	sw	t6,92(sp)
    2340:	e682                	fsw	ft0,76(sp)
    2342:	e486                	fsw	ft1,72(sp)
    2344:	e28a                	fsw	ft2,68(sp)
    2346:	e08e                	fsw	ft3,64(sp)
    2348:	fe12                	fsw	ft4,60(sp)
    234a:	fc16                	fsw	ft5,56(sp)
    234c:	fa1a                	fsw	ft6,52(sp)
    234e:	f81e                	fsw	ft7,48(sp)
    2350:	f62a                	fsw	fa0,44(sp)
    2352:	f42e                	fsw	fa1,40(sp)
    2354:	f232                	fsw	fa2,36(sp)
    2356:	f036                	fsw	fa3,32(sp)
    2358:	ee3a                	fsw	fa4,28(sp)
    235a:	ec3e                	fsw	fa5,24(sp)
    235c:	ea42                	fsw	fa6,20(sp)
    235e:	e846                	fsw	fa7,16(sp)
    2360:	e672                	fsw	ft8,12(sp)
    2362:	e476                	fsw	ft9,8(sp)
    2364:	e27a                	fsw	ft10,4(sp)
    2366:	e07e                	fsw	ft11,0(sp)
    2368:	1100                	addi	s0,sp,160
E:/wch307/CHV307_Library-master/Example/E02_uart_demo/user/src/isr.c:134
    if(USART_GetITStatus(UART7, USART_IT_RXNE) != RESET)
    236a:	52500593          	li	a1,1317
    236e:	400027b7          	lui	a5,0x40002
    2372:	c0078513          	addi	a0,a5,-1024 # 40001c00 <_eusrstack+0x1fff1c00>
    2376:	40d010ef          	jal	ra,3f82 <USART_GetITStatus>
    237a:	87aa                	mv	a5,a0
    237c:	cf81                	beqz	a5,2394 <UART7_IRQHandler+0x78>
E:/wch307/CHV307_Library-master/Example/E02_uart_demo/user/src/isr.c:136
    {
        wireless_module_uart_handler();
    237e:	8081a783          	lw	a5,-2040(gp) # 20000240 <wireless_module_uart_handler>
    2382:	9782                	jalr	a5
E:/wch307/CHV307_Library-master/Example/E02_uart_demo/user/src/isr.c:137
        USART_ClearITPendingBit(UART7, USART_IT_RXNE);
    2384:	52500593          	li	a1,1317
    2388:	400027b7          	lui	a5,0x40002
    238c:	c0078513          	addi	a0,a5,-1024 # 40001c00 <_eusrstack+0x1fff1c00>
    2390:	4f5010ef          	jal	ra,4084 <USART_ClearITPendingBit>
E:/wch307/CHV307_Library-master/Example/E02_uart_demo/user/src/isr.c:139
    }
}
    2394:	0001                	nop
    2396:	40fa                	lw	ra,156(sp)
    2398:	42ea                	lw	t0,152(sp)
    239a:	435a                	lw	t1,148(sp)
    239c:	43ca                	lw	t2,144(sp)
    239e:	443a                	lw	s0,140(sp)
    23a0:	452a                	lw	a0,136(sp)
    23a2:	459a                	lw	a1,132(sp)
    23a4:	460a                	lw	a2,128(sp)
    23a6:	56f6                	lw	a3,124(sp)
    23a8:	5766                	lw	a4,120(sp)
    23aa:	57d6                	lw	a5,116(sp)
    23ac:	5846                	lw	a6,112(sp)
    23ae:	58b6                	lw	a7,108(sp)
    23b0:	5e26                	lw	t3,104(sp)
    23b2:	5e96                	lw	t4,100(sp)
    23b4:	5f06                	lw	t5,96(sp)
    23b6:	4ff6                	lw	t6,92(sp)
    23b8:	6036                	flw	ft0,76(sp)
    23ba:	60a6                	flw	ft1,72(sp)
    23bc:	6116                	flw	ft2,68(sp)
    23be:	6186                	flw	ft3,64(sp)
    23c0:	7272                	flw	ft4,60(sp)
    23c2:	72e2                	flw	ft5,56(sp)
    23c4:	7352                	flw	ft6,52(sp)
    23c6:	73c2                	flw	ft7,48(sp)
    23c8:	7532                	flw	fa0,44(sp)
    23ca:	75a2                	flw	fa1,40(sp)
    23cc:	7612                	flw	fa2,36(sp)
    23ce:	7682                	flw	fa3,32(sp)
    23d0:	6772                	flw	fa4,28(sp)
    23d2:	67e2                	flw	fa5,24(sp)
    23d4:	6852                	flw	fa6,20(sp)
    23d6:	68c2                	flw	fa7,16(sp)
    23d8:	6e32                	flw	ft8,12(sp)
    23da:	6ea2                	flw	ft9,8(sp)
    23dc:	6f12                	flw	ft10,4(sp)
    23de:	6f82                	flw	ft11,0(sp)
    23e0:	610d                	addi	sp,sp,160
    23e2:	30200073          	mret

000023e6 <UART8_IRQHandler>:
UART8_IRQHandler():
E:/wch307/CHV307_Library-master/Example/E02_uart_demo/user/src/isr.c:141
void UART8_IRQHandler (void)
{
    23e6:	7135                	addi	sp,sp,-160
    23e8:	cf06                	sw	ra,156(sp)
    23ea:	cd16                	sw	t0,152(sp)
    23ec:	cb1a                	sw	t1,148(sp)
    23ee:	c91e                	sw	t2,144(sp)
    23f0:	c722                	sw	s0,140(sp)
    23f2:	c52a                	sw	a0,136(sp)
    23f4:	c32e                	sw	a1,132(sp)
    23f6:	c132                	sw	a2,128(sp)
    23f8:	deb6                	sw	a3,124(sp)
    23fa:	dcba                	sw	a4,120(sp)
    23fc:	dabe                	sw	a5,116(sp)
    23fe:	d8c2                	sw	a6,112(sp)
    2400:	d6c6                	sw	a7,108(sp)
    2402:	d4f2                	sw	t3,104(sp)
    2404:	d2f6                	sw	t4,100(sp)
    2406:	d0fa                	sw	t5,96(sp)
    2408:	cefe                	sw	t6,92(sp)
    240a:	e682                	fsw	ft0,76(sp)
    240c:	e486                	fsw	ft1,72(sp)
    240e:	e28a                	fsw	ft2,68(sp)
    2410:	e08e                	fsw	ft3,64(sp)
    2412:	fe12                	fsw	ft4,60(sp)
    2414:	fc16                	fsw	ft5,56(sp)
    2416:	fa1a                	fsw	ft6,52(sp)
    2418:	f81e                	fsw	ft7,48(sp)
    241a:	f62a                	fsw	fa0,44(sp)
    241c:	f42e                	fsw	fa1,40(sp)
    241e:	f232                	fsw	fa2,36(sp)
    2420:	f036                	fsw	fa3,32(sp)
    2422:	ee3a                	fsw	fa4,28(sp)
    2424:	ec3e                	fsw	fa5,24(sp)
    2426:	ea42                	fsw	fa6,20(sp)
    2428:	e846                	fsw	fa7,16(sp)
    242a:	e672                	fsw	ft8,12(sp)
    242c:	e476                	fsw	ft9,8(sp)
    242e:	e27a                	fsw	ft10,4(sp)
    2430:	e07e                	fsw	ft11,0(sp)
    2432:	1100                	addi	s0,sp,160
E:/wch307/CHV307_Library-master/Example/E02_uart_demo/user/src/isr.c:142
    if(USART_GetITStatus(UART8, USART_IT_RXNE) != RESET)
    2434:	52500593          	li	a1,1317
    2438:	40002537          	lui	a0,0x40002
    243c:	347010ef          	jal	ra,3f82 <USART_GetITStatus>
    2440:	87aa                	mv	a5,a0
    2442:	c799                	beqz	a5,2450 <UART8_IRQHandler+0x6a>
E:/wch307/CHV307_Library-master/Example/E02_uart_demo/user/src/isr.c:146
    {
//        extern void uart_handler (void);
//        uart_handler();
        USART_ClearITPendingBit(UART8, USART_IT_RXNE);
    2444:	52500593          	li	a1,1317
    2448:	40002537          	lui	a0,0x40002
    244c:	439010ef          	jal	ra,4084 <USART_ClearITPendingBit>
E:/wch307/CHV307_Library-master/Example/E02_uart_demo/user/src/isr.c:148
    }
}
    2450:	0001                	nop
    2452:	40fa                	lw	ra,156(sp)
    2454:	42ea                	lw	t0,152(sp)
    2456:	435a                	lw	t1,148(sp)
    2458:	43ca                	lw	t2,144(sp)
    245a:	443a                	lw	s0,140(sp)
    245c:	452a                	lw	a0,136(sp)
    245e:	459a                	lw	a1,132(sp)
    2460:	460a                	lw	a2,128(sp)
    2462:	56f6                	lw	a3,124(sp)
    2464:	5766                	lw	a4,120(sp)
    2466:	57d6                	lw	a5,116(sp)
    2468:	5846                	lw	a6,112(sp)
    246a:	58b6                	lw	a7,108(sp)
    246c:	5e26                	lw	t3,104(sp)
    246e:	5e96                	lw	t4,100(sp)
    2470:	5f06                	lw	t5,96(sp)
    2472:	4ff6                	lw	t6,92(sp)
    2474:	6036                	flw	ft0,76(sp)
    2476:	60a6                	flw	ft1,72(sp)
    2478:	6116                	flw	ft2,68(sp)
    247a:	6186                	flw	ft3,64(sp)
    247c:	7272                	flw	ft4,60(sp)
    247e:	72e2                	flw	ft5,56(sp)
    2480:	7352                	flw	ft6,52(sp)
    2482:	73c2                	flw	ft7,48(sp)
    2484:	7532                	flw	fa0,44(sp)
    2486:	75a2                	flw	fa1,40(sp)
    2488:	7612                	flw	fa2,36(sp)
    248a:	7682                	flw	fa3,32(sp)
    248c:	6772                	flw	fa4,28(sp)
    248e:	67e2                	flw	fa5,24(sp)
    2490:	6852                	flw	fa6,20(sp)
    2492:	68c2                	flw	fa7,16(sp)
    2494:	6e32                	flw	ft8,12(sp)
    2496:	6ea2                	flw	ft9,8(sp)
    2498:	6f12                	flw	ft10,4(sp)
    249a:	6f82                	flw	ft11,0(sp)
    249c:	610d                	addi	sp,sp,160
    249e:	30200073          	mret

000024a2 <DVP_IRQHandler>:
DVP_IRQHandler():
E:/wch307/CHV307_Library-master/Example/E02_uart_demo/user/src/isr.c:153



void DVP_IRQHandler(void)
{
    24a2:	7135                	addi	sp,sp,-160
    24a4:	cf06                	sw	ra,156(sp)
    24a6:	cd16                	sw	t0,152(sp)
    24a8:	cb1a                	sw	t1,148(sp)
    24aa:	c91e                	sw	t2,144(sp)
    24ac:	c722                	sw	s0,140(sp)
    24ae:	c52a                	sw	a0,136(sp)
    24b0:	c32e                	sw	a1,132(sp)
    24b2:	c132                	sw	a2,128(sp)
    24b4:	deb6                	sw	a3,124(sp)
    24b6:	dcba                	sw	a4,120(sp)
    24b8:	dabe                	sw	a5,116(sp)
    24ba:	d8c2                	sw	a6,112(sp)
    24bc:	d6c6                	sw	a7,108(sp)
    24be:	d4f2                	sw	t3,104(sp)
    24c0:	d2f6                	sw	t4,100(sp)
    24c2:	d0fa                	sw	t5,96(sp)
    24c4:	cefe                	sw	t6,92(sp)
    24c6:	e682                	fsw	ft0,76(sp)
    24c8:	e486                	fsw	ft1,72(sp)
    24ca:	e28a                	fsw	ft2,68(sp)
    24cc:	e08e                	fsw	ft3,64(sp)
    24ce:	fe12                	fsw	ft4,60(sp)
    24d0:	fc16                	fsw	ft5,56(sp)
    24d2:	fa1a                	fsw	ft6,52(sp)
    24d4:	f81e                	fsw	ft7,48(sp)
    24d6:	f62a                	fsw	fa0,44(sp)
    24d8:	f42e                	fsw	fa1,40(sp)
    24da:	f232                	fsw	fa2,36(sp)
    24dc:	f036                	fsw	fa3,32(sp)
    24de:	ee3a                	fsw	fa4,28(sp)
    24e0:	ec3e                	fsw	fa5,24(sp)
    24e2:	ea42                	fsw	fa6,20(sp)
    24e4:	e846                	fsw	fa7,16(sp)
    24e6:	e672                	fsw	ft8,12(sp)
    24e8:	e476                	fsw	ft9,8(sp)
    24ea:	e27a                	fsw	ft10,4(sp)
    24ec:	e07e                	fsw	ft11,0(sp)
    24ee:	1100                	addi	s0,sp,160
E:/wch307/CHV307_Library-master/Example/E02_uart_demo/user/src/isr.c:154
    if (DVP->IFR & RB_DVP_IF_FRM_DONE)
    24f0:	500507b7          	lui	a5,0x50050
    24f4:	0107c783          	lbu	a5,16(a5) # 50050010 <_eusrstack+0x30040010>
    24f8:	0ff7f793          	andi	a5,a5,255
    24fc:	8b91                	andi	a5,a5,4
    24fe:	c39d                	beqz	a5,2524 <DVP_IRQHandler+0x82>
E:/wch307/CHV307_Library-master/Example/E02_uart_demo/user/src/isr.c:156
    {
        camera_dvp_handler();
    2500:	200007b7          	lui	a5,0x20000
    2504:	23c7a783          	lw	a5,572(a5) # 2000023c <camera_dvp_handler>
    2508:	9782                	jalr	a5
E:/wch307/CHV307_Library-master/Example/E02_uart_demo/user/src/isr.c:157
        DVP->IFR &= ~RB_DVP_IF_FRM_DONE;
    250a:	500507b7          	lui	a5,0x50050
    250e:	0107c783          	lbu	a5,16(a5) # 50050010 <_eusrstack+0x30040010>
    2512:	0ff7f713          	andi	a4,a5,255
    2516:	500507b7          	lui	a5,0x50050
    251a:	9b6d                	andi	a4,a4,-5
    251c:	0ff77713          	andi	a4,a4,255
    2520:	00e78823          	sb	a4,16(a5) # 50050010 <_eusrstack+0x30040010>
E:/wch307/CHV307_Library-master/Example/E02_uart_demo/user/src/isr.c:159
    }
}
    2524:	0001                	nop
    2526:	40fa                	lw	ra,156(sp)
    2528:	42ea                	lw	t0,152(sp)
    252a:	435a                	lw	t1,148(sp)
    252c:	43ca                	lw	t2,144(sp)
    252e:	443a                	lw	s0,140(sp)
    2530:	452a                	lw	a0,136(sp)
    2532:	459a                	lw	a1,132(sp)
    2534:	460a                	lw	a2,128(sp)
    2536:	56f6                	lw	a3,124(sp)
    2538:	5766                	lw	a4,120(sp)
    253a:	57d6                	lw	a5,116(sp)
    253c:	5846                	lw	a6,112(sp)
    253e:	58b6                	lw	a7,108(sp)
    2540:	5e26                	lw	t3,104(sp)
    2542:	5e96                	lw	t4,100(sp)
    2544:	5f06                	lw	t5,96(sp)
    2546:	4ff6                	lw	t6,92(sp)
    2548:	6036                	flw	ft0,76(sp)
    254a:	60a6                	flw	ft1,72(sp)
    254c:	6116                	flw	ft2,68(sp)
    254e:	6186                	flw	ft3,64(sp)
    2550:	7272                	flw	ft4,60(sp)
    2552:	72e2                	flw	ft5,56(sp)
    2554:	7352                	flw	ft6,52(sp)
    2556:	73c2                	flw	ft7,48(sp)
    2558:	7532                	flw	fa0,44(sp)
    255a:	75a2                	flw	fa1,40(sp)
    255c:	7612                	flw	fa2,36(sp)
    255e:	7682                	flw	fa3,32(sp)
    2560:	6772                	flw	fa4,28(sp)
    2562:	67e2                	flw	fa5,24(sp)
    2564:	6852                	flw	fa6,20(sp)
    2566:	68c2                	flw	fa7,16(sp)
    2568:	6e32                	flw	ft8,12(sp)
    256a:	6ea2                	flw	ft9,8(sp)
    256c:	6f12                	flw	ft10,4(sp)
    256e:	6f82                	flw	ft11,0(sp)
    2570:	610d                	addi	sp,sp,160
    2572:	30200073          	mret

00002576 <EXTI0_IRQHandler>:
EXTI0_IRQHandler():
E:/wch307/CHV307_Library-master/Example/E02_uart_demo/user/src/isr.c:161
void EXTI0_IRQHandler(void)
{
    2576:	7135                	addi	sp,sp,-160
    2578:	cf06                	sw	ra,156(sp)
    257a:	cd16                	sw	t0,152(sp)
    257c:	cb1a                	sw	t1,148(sp)
    257e:	c91e                	sw	t2,144(sp)
    2580:	c722                	sw	s0,140(sp)
    2582:	c52a                	sw	a0,136(sp)
    2584:	c32e                	sw	a1,132(sp)
    2586:	c132                	sw	a2,128(sp)
    2588:	deb6                	sw	a3,124(sp)
    258a:	dcba                	sw	a4,120(sp)
    258c:	dabe                	sw	a5,116(sp)
    258e:	d8c2                	sw	a6,112(sp)
    2590:	d6c6                	sw	a7,108(sp)
    2592:	d4f2                	sw	t3,104(sp)
    2594:	d2f6                	sw	t4,100(sp)
    2596:	d0fa                	sw	t5,96(sp)
    2598:	cefe                	sw	t6,92(sp)
    259a:	e682                	fsw	ft0,76(sp)
    259c:	e486                	fsw	ft1,72(sp)
    259e:	e28a                	fsw	ft2,68(sp)
    25a0:	e08e                	fsw	ft3,64(sp)
    25a2:	fe12                	fsw	ft4,60(sp)
    25a4:	fc16                	fsw	ft5,56(sp)
    25a6:	fa1a                	fsw	ft6,52(sp)
    25a8:	f81e                	fsw	ft7,48(sp)
    25aa:	f62a                	fsw	fa0,44(sp)
    25ac:	f42e                	fsw	fa1,40(sp)
    25ae:	f232                	fsw	fa2,36(sp)
    25b0:	f036                	fsw	fa3,32(sp)
    25b2:	ee3a                	fsw	fa4,28(sp)
    25b4:	ec3e                	fsw	fa5,24(sp)
    25b6:	ea42                	fsw	fa6,20(sp)
    25b8:	e846                	fsw	fa7,16(sp)
    25ba:	e672                	fsw	ft8,12(sp)
    25bc:	e476                	fsw	ft9,8(sp)
    25be:	e27a                	fsw	ft10,4(sp)
    25c0:	e07e                	fsw	ft11,0(sp)
    25c2:	1100                	addi	s0,sp,160
E:/wch307/CHV307_Library-master/Example/E02_uart_demo/user/src/isr.c:162
    if(SET == EXTI_GetITStatus(EXTI_Line0))
    25c4:	4505                	li	a0,1
    25c6:	729000ef          	jal	ra,34ee <EXTI_GetITStatus>
    25ca:	872a                	mv	a4,a0
    25cc:	4785                	li	a5,1
    25ce:	00f71563          	bne	a4,a5,25d8 <EXTI0_IRQHandler+0x62>
E:/wch307/CHV307_Library-master/Example/E02_uart_demo/user/src/isr.c:164
    {
        EXTI_ClearITPendingBit(EXTI_Line0);
    25d2:	4505                	li	a0,1
    25d4:	771000ef          	jal	ra,3544 <EXTI_ClearITPendingBit>
E:/wch307/CHV307_Library-master/Example/E02_uart_demo/user/src/isr.c:167

    }
}
    25d8:	0001                	nop
    25da:	40fa                	lw	ra,156(sp)
    25dc:	42ea                	lw	t0,152(sp)
    25de:	435a                	lw	t1,148(sp)
    25e0:	43ca                	lw	t2,144(sp)
    25e2:	443a                	lw	s0,140(sp)
    25e4:	452a                	lw	a0,136(sp)
    25e6:	459a                	lw	a1,132(sp)
    25e8:	460a                	lw	a2,128(sp)
    25ea:	56f6                	lw	a3,124(sp)
    25ec:	5766                	lw	a4,120(sp)
    25ee:	57d6                	lw	a5,116(sp)
    25f0:	5846                	lw	a6,112(sp)
    25f2:	58b6                	lw	a7,108(sp)
    25f4:	5e26                	lw	t3,104(sp)
    25f6:	5e96                	lw	t4,100(sp)
    25f8:	5f06                	lw	t5,96(sp)
    25fa:	4ff6                	lw	t6,92(sp)
    25fc:	6036                	flw	ft0,76(sp)
    25fe:	60a6                	flw	ft1,72(sp)
    2600:	6116                	flw	ft2,68(sp)
    2602:	6186                	flw	ft3,64(sp)
    2604:	7272                	flw	ft4,60(sp)
    2606:	72e2                	flw	ft5,56(sp)
    2608:	7352                	flw	ft6,52(sp)
    260a:	73c2                	flw	ft7,48(sp)
    260c:	7532                	flw	fa0,44(sp)
    260e:	75a2                	flw	fa1,40(sp)
    2610:	7612                	flw	fa2,36(sp)
    2612:	7682                	flw	fa3,32(sp)
    2614:	6772                	flw	fa4,28(sp)
    2616:	67e2                	flw	fa5,24(sp)
    2618:	6852                	flw	fa6,20(sp)
    261a:	68c2                	flw	fa7,16(sp)
    261c:	6e32                	flw	ft8,12(sp)
    261e:	6ea2                	flw	ft9,8(sp)
    2620:	6f12                	flw	ft10,4(sp)
    2622:	6f82                	flw	ft11,0(sp)
    2624:	610d                	addi	sp,sp,160
    2626:	30200073          	mret

0000262a <EXTI1_IRQHandler>:
EXTI1_IRQHandler():
E:/wch307/CHV307_Library-master/Example/E02_uart_demo/user/src/isr.c:170

void EXTI1_IRQHandler(void)
{
    262a:	7135                	addi	sp,sp,-160
    262c:	cf06                	sw	ra,156(sp)
    262e:	cd16                	sw	t0,152(sp)
    2630:	cb1a                	sw	t1,148(sp)
    2632:	c91e                	sw	t2,144(sp)
    2634:	c722                	sw	s0,140(sp)
    2636:	c52a                	sw	a0,136(sp)
    2638:	c32e                	sw	a1,132(sp)
    263a:	c132                	sw	a2,128(sp)
    263c:	deb6                	sw	a3,124(sp)
    263e:	dcba                	sw	a4,120(sp)
    2640:	dabe                	sw	a5,116(sp)
    2642:	d8c2                	sw	a6,112(sp)
    2644:	d6c6                	sw	a7,108(sp)
    2646:	d4f2                	sw	t3,104(sp)
    2648:	d2f6                	sw	t4,100(sp)
    264a:	d0fa                	sw	t5,96(sp)
    264c:	cefe                	sw	t6,92(sp)
    264e:	e682                	fsw	ft0,76(sp)
    2650:	e486                	fsw	ft1,72(sp)
    2652:	e28a                	fsw	ft2,68(sp)
    2654:	e08e                	fsw	ft3,64(sp)
    2656:	fe12                	fsw	ft4,60(sp)
    2658:	fc16                	fsw	ft5,56(sp)
    265a:	fa1a                	fsw	ft6,52(sp)
    265c:	f81e                	fsw	ft7,48(sp)
    265e:	f62a                	fsw	fa0,44(sp)
    2660:	f42e                	fsw	fa1,40(sp)
    2662:	f232                	fsw	fa2,36(sp)
    2664:	f036                	fsw	fa3,32(sp)
    2666:	ee3a                	fsw	fa4,28(sp)
    2668:	ec3e                	fsw	fa5,24(sp)
    266a:	ea42                	fsw	fa6,20(sp)
    266c:	e846                	fsw	fa7,16(sp)
    266e:	e672                	fsw	ft8,12(sp)
    2670:	e476                	fsw	ft9,8(sp)
    2672:	e27a                	fsw	ft10,4(sp)
    2674:	e07e                	fsw	ft11,0(sp)
    2676:	1100                	addi	s0,sp,160
E:/wch307/CHV307_Library-master/Example/E02_uart_demo/user/src/isr.c:171
    if(SET == EXTI_GetITStatus(EXTI_Line1))
    2678:	4509                	li	a0,2
    267a:	675000ef          	jal	ra,34ee <EXTI_GetITStatus>
    267e:	872a                	mv	a4,a0
    2680:	4785                	li	a5,1
    2682:	00f71563          	bne	a4,a5,268c <EXTI1_IRQHandler+0x62>
E:/wch307/CHV307_Library-master/Example/E02_uart_demo/user/src/isr.c:173
    {
        EXTI_ClearITPendingBit(EXTI_Line1);
    2686:	4509                	li	a0,2
    2688:	6bd000ef          	jal	ra,3544 <EXTI_ClearITPendingBit>
E:/wch307/CHV307_Library-master/Example/E02_uart_demo/user/src/isr.c:176

    }
}
    268c:	0001                	nop
    268e:	40fa                	lw	ra,156(sp)
    2690:	42ea                	lw	t0,152(sp)
    2692:	435a                	lw	t1,148(sp)
    2694:	43ca                	lw	t2,144(sp)
    2696:	443a                	lw	s0,140(sp)
    2698:	452a                	lw	a0,136(sp)
    269a:	459a                	lw	a1,132(sp)
    269c:	460a                	lw	a2,128(sp)
    269e:	56f6                	lw	a3,124(sp)
    26a0:	5766                	lw	a4,120(sp)
    26a2:	57d6                	lw	a5,116(sp)
    26a4:	5846                	lw	a6,112(sp)
    26a6:	58b6                	lw	a7,108(sp)
    26a8:	5e26                	lw	t3,104(sp)
    26aa:	5e96                	lw	t4,100(sp)
    26ac:	5f06                	lw	t5,96(sp)
    26ae:	4ff6                	lw	t6,92(sp)
    26b0:	6036                	flw	ft0,76(sp)
    26b2:	60a6                	flw	ft1,72(sp)
    26b4:	6116                	flw	ft2,68(sp)
    26b6:	6186                	flw	ft3,64(sp)
    26b8:	7272                	flw	ft4,60(sp)
    26ba:	72e2                	flw	ft5,56(sp)
    26bc:	7352                	flw	ft6,52(sp)
    26be:	73c2                	flw	ft7,48(sp)
    26c0:	7532                	flw	fa0,44(sp)
    26c2:	75a2                	flw	fa1,40(sp)
    26c4:	7612                	flw	fa2,36(sp)
    26c6:	7682                	flw	fa3,32(sp)
    26c8:	6772                	flw	fa4,28(sp)
    26ca:	67e2                	flw	fa5,24(sp)
    26cc:	6852                	flw	fa6,20(sp)
    26ce:	68c2                	flw	fa7,16(sp)
    26d0:	6e32                	flw	ft8,12(sp)
    26d2:	6ea2                	flw	ft9,8(sp)
    26d4:	6f12                	flw	ft10,4(sp)
    26d6:	6f82                	flw	ft11,0(sp)
    26d8:	610d                	addi	sp,sp,160
    26da:	30200073          	mret

000026de <EXTI2_IRQHandler>:
EXTI2_IRQHandler():
E:/wch307/CHV307_Library-master/Example/E02_uart_demo/user/src/isr.c:179

void EXTI2_IRQHandler(void)
{
    26de:	7135                	addi	sp,sp,-160
    26e0:	cf06                	sw	ra,156(sp)
    26e2:	cd16                	sw	t0,152(sp)
    26e4:	cb1a                	sw	t1,148(sp)
    26e6:	c91e                	sw	t2,144(sp)
    26e8:	c722                	sw	s0,140(sp)
    26ea:	c52a                	sw	a0,136(sp)
    26ec:	c32e                	sw	a1,132(sp)
    26ee:	c132                	sw	a2,128(sp)
    26f0:	deb6                	sw	a3,124(sp)
    26f2:	dcba                	sw	a4,120(sp)
    26f4:	dabe                	sw	a5,116(sp)
    26f6:	d8c2                	sw	a6,112(sp)
    26f8:	d6c6                	sw	a7,108(sp)
    26fa:	d4f2                	sw	t3,104(sp)
    26fc:	d2f6                	sw	t4,100(sp)
    26fe:	d0fa                	sw	t5,96(sp)
    2700:	cefe                	sw	t6,92(sp)
    2702:	e682                	fsw	ft0,76(sp)
    2704:	e486                	fsw	ft1,72(sp)
    2706:	e28a                	fsw	ft2,68(sp)
    2708:	e08e                	fsw	ft3,64(sp)
    270a:	fe12                	fsw	ft4,60(sp)
    270c:	fc16                	fsw	ft5,56(sp)
    270e:	fa1a                	fsw	ft6,52(sp)
    2710:	f81e                	fsw	ft7,48(sp)
    2712:	f62a                	fsw	fa0,44(sp)
    2714:	f42e                	fsw	fa1,40(sp)
    2716:	f232                	fsw	fa2,36(sp)
    2718:	f036                	fsw	fa3,32(sp)
    271a:	ee3a                	fsw	fa4,28(sp)
    271c:	ec3e                	fsw	fa5,24(sp)
    271e:	ea42                	fsw	fa6,20(sp)
    2720:	e846                	fsw	fa7,16(sp)
    2722:	e672                	fsw	ft8,12(sp)
    2724:	e476                	fsw	ft9,8(sp)
    2726:	e27a                	fsw	ft10,4(sp)
    2728:	e07e                	fsw	ft11,0(sp)
    272a:	1100                	addi	s0,sp,160
E:/wch307/CHV307_Library-master/Example/E02_uart_demo/user/src/isr.c:180
    if(SET == EXTI_GetITStatus(EXTI_Line2))
    272c:	4511                	li	a0,4
    272e:	5c1000ef          	jal	ra,34ee <EXTI_GetITStatus>
    2732:	872a                	mv	a4,a0
    2734:	4785                	li	a5,1
    2736:	00f71563          	bne	a4,a5,2740 <EXTI2_IRQHandler+0x62>
E:/wch307/CHV307_Library-master/Example/E02_uart_demo/user/src/isr.c:182
    {
        EXTI_ClearITPendingBit(EXTI_Line2);
    273a:	4511                	li	a0,4
    273c:	609000ef          	jal	ra,3544 <EXTI_ClearITPendingBit>
E:/wch307/CHV307_Library-master/Example/E02_uart_demo/user/src/isr.c:185

    }
}
    2740:	0001                	nop
    2742:	40fa                	lw	ra,156(sp)
    2744:	42ea                	lw	t0,152(sp)
    2746:	435a                	lw	t1,148(sp)
    2748:	43ca                	lw	t2,144(sp)
    274a:	443a                	lw	s0,140(sp)
    274c:	452a                	lw	a0,136(sp)
    274e:	459a                	lw	a1,132(sp)
    2750:	460a                	lw	a2,128(sp)
    2752:	56f6                	lw	a3,124(sp)
    2754:	5766                	lw	a4,120(sp)
    2756:	57d6                	lw	a5,116(sp)
    2758:	5846                	lw	a6,112(sp)
    275a:	58b6                	lw	a7,108(sp)
    275c:	5e26                	lw	t3,104(sp)
    275e:	5e96                	lw	t4,100(sp)
    2760:	5f06                	lw	t5,96(sp)
    2762:	4ff6                	lw	t6,92(sp)
    2764:	6036                	flw	ft0,76(sp)
    2766:	60a6                	flw	ft1,72(sp)
    2768:	6116                	flw	ft2,68(sp)
    276a:	6186                	flw	ft3,64(sp)
    276c:	7272                	flw	ft4,60(sp)
    276e:	72e2                	flw	ft5,56(sp)
    2770:	7352                	flw	ft6,52(sp)
    2772:	73c2                	flw	ft7,48(sp)
    2774:	7532                	flw	fa0,44(sp)
    2776:	75a2                	flw	fa1,40(sp)
    2778:	7612                	flw	fa2,36(sp)
    277a:	7682                	flw	fa3,32(sp)
    277c:	6772                	flw	fa4,28(sp)
    277e:	67e2                	flw	fa5,24(sp)
    2780:	6852                	flw	fa6,20(sp)
    2782:	68c2                	flw	fa7,16(sp)
    2784:	6e32                	flw	ft8,12(sp)
    2786:	6ea2                	flw	ft9,8(sp)
    2788:	6f12                	flw	ft10,4(sp)
    278a:	6f82                	flw	ft11,0(sp)
    278c:	610d                	addi	sp,sp,160
    278e:	30200073          	mret

00002792 <EXTI3_IRQHandler>:
EXTI3_IRQHandler():
E:/wch307/CHV307_Library-master/Example/E02_uart_demo/user/src/isr.c:188

void EXTI3_IRQHandler(void)
{
    2792:	7135                	addi	sp,sp,-160
    2794:	cf06                	sw	ra,156(sp)
    2796:	cd16                	sw	t0,152(sp)
    2798:	cb1a                	sw	t1,148(sp)
    279a:	c91e                	sw	t2,144(sp)
    279c:	c722                	sw	s0,140(sp)
    279e:	c52a                	sw	a0,136(sp)
    27a0:	c32e                	sw	a1,132(sp)
    27a2:	c132                	sw	a2,128(sp)
    27a4:	deb6                	sw	a3,124(sp)
    27a6:	dcba                	sw	a4,120(sp)
    27a8:	dabe                	sw	a5,116(sp)
    27aa:	d8c2                	sw	a6,112(sp)
    27ac:	d6c6                	sw	a7,108(sp)
    27ae:	d4f2                	sw	t3,104(sp)
    27b0:	d2f6                	sw	t4,100(sp)
    27b2:	d0fa                	sw	t5,96(sp)
    27b4:	cefe                	sw	t6,92(sp)
    27b6:	e682                	fsw	ft0,76(sp)
    27b8:	e486                	fsw	ft1,72(sp)
    27ba:	e28a                	fsw	ft2,68(sp)
    27bc:	e08e                	fsw	ft3,64(sp)
    27be:	fe12                	fsw	ft4,60(sp)
    27c0:	fc16                	fsw	ft5,56(sp)
    27c2:	fa1a                	fsw	ft6,52(sp)
    27c4:	f81e                	fsw	ft7,48(sp)
    27c6:	f62a                	fsw	fa0,44(sp)
    27c8:	f42e                	fsw	fa1,40(sp)
    27ca:	f232                	fsw	fa2,36(sp)
    27cc:	f036                	fsw	fa3,32(sp)
    27ce:	ee3a                	fsw	fa4,28(sp)
    27d0:	ec3e                	fsw	fa5,24(sp)
    27d2:	ea42                	fsw	fa6,20(sp)
    27d4:	e846                	fsw	fa7,16(sp)
    27d6:	e672                	fsw	ft8,12(sp)
    27d8:	e476                	fsw	ft9,8(sp)
    27da:	e27a                	fsw	ft10,4(sp)
    27dc:	e07e                	fsw	ft11,0(sp)
    27de:	1100                	addi	s0,sp,160
E:/wch307/CHV307_Library-master/Example/E02_uart_demo/user/src/isr.c:189
    if(SET == EXTI_GetITStatus(EXTI_Line3))
    27e0:	4521                	li	a0,8
    27e2:	50d000ef          	jal	ra,34ee <EXTI_GetITStatus>
    27e6:	872a                	mv	a4,a0
    27e8:	4785                	li	a5,1
    27ea:	00f71563          	bne	a4,a5,27f4 <EXTI3_IRQHandler+0x62>
E:/wch307/CHV307_Library-master/Example/E02_uart_demo/user/src/isr.c:191
    {
        EXTI_ClearITPendingBit(EXTI_Line3);
    27ee:	4521                	li	a0,8
    27f0:	555000ef          	jal	ra,3544 <EXTI_ClearITPendingBit>
E:/wch307/CHV307_Library-master/Example/E02_uart_demo/user/src/isr.c:194

    }
}
    27f4:	0001                	nop
    27f6:	40fa                	lw	ra,156(sp)
    27f8:	42ea                	lw	t0,152(sp)
    27fa:	435a                	lw	t1,148(sp)
    27fc:	43ca                	lw	t2,144(sp)
    27fe:	443a                	lw	s0,140(sp)
    2800:	452a                	lw	a0,136(sp)
    2802:	459a                	lw	a1,132(sp)
    2804:	460a                	lw	a2,128(sp)
    2806:	56f6                	lw	a3,124(sp)
    2808:	5766                	lw	a4,120(sp)
    280a:	57d6                	lw	a5,116(sp)
    280c:	5846                	lw	a6,112(sp)
    280e:	58b6                	lw	a7,108(sp)
    2810:	5e26                	lw	t3,104(sp)
    2812:	5e96                	lw	t4,100(sp)
    2814:	5f06                	lw	t5,96(sp)
    2816:	4ff6                	lw	t6,92(sp)
    2818:	6036                	flw	ft0,76(sp)
    281a:	60a6                	flw	ft1,72(sp)
    281c:	6116                	flw	ft2,68(sp)
    281e:	6186                	flw	ft3,64(sp)
    2820:	7272                	flw	ft4,60(sp)
    2822:	72e2                	flw	ft5,56(sp)
    2824:	7352                	flw	ft6,52(sp)
    2826:	73c2                	flw	ft7,48(sp)
    2828:	7532                	flw	fa0,44(sp)
    282a:	75a2                	flw	fa1,40(sp)
    282c:	7612                	flw	fa2,36(sp)
    282e:	7682                	flw	fa3,32(sp)
    2830:	6772                	flw	fa4,28(sp)
    2832:	67e2                	flw	fa5,24(sp)
    2834:	6852                	flw	fa6,20(sp)
    2836:	68c2                	flw	fa7,16(sp)
    2838:	6e32                	flw	ft8,12(sp)
    283a:	6ea2                	flw	ft9,8(sp)
    283c:	6f12                	flw	ft10,4(sp)
    283e:	6f82                	flw	ft11,0(sp)
    2840:	610d                	addi	sp,sp,160
    2842:	30200073          	mret

00002846 <EXTI4_IRQHandler>:
EXTI4_IRQHandler():
E:/wch307/CHV307_Library-master/Example/E02_uart_demo/user/src/isr.c:197

void EXTI4_IRQHandler(void)
{
    2846:	7135                	addi	sp,sp,-160
    2848:	cf06                	sw	ra,156(sp)
    284a:	cd16                	sw	t0,152(sp)
    284c:	cb1a                	sw	t1,148(sp)
    284e:	c91e                	sw	t2,144(sp)
    2850:	c722                	sw	s0,140(sp)
    2852:	c52a                	sw	a0,136(sp)
    2854:	c32e                	sw	a1,132(sp)
    2856:	c132                	sw	a2,128(sp)
    2858:	deb6                	sw	a3,124(sp)
    285a:	dcba                	sw	a4,120(sp)
    285c:	dabe                	sw	a5,116(sp)
    285e:	d8c2                	sw	a6,112(sp)
    2860:	d6c6                	sw	a7,108(sp)
    2862:	d4f2                	sw	t3,104(sp)
    2864:	d2f6                	sw	t4,100(sp)
    2866:	d0fa                	sw	t5,96(sp)
    2868:	cefe                	sw	t6,92(sp)
    286a:	e682                	fsw	ft0,76(sp)
    286c:	e486                	fsw	ft1,72(sp)
    286e:	e28a                	fsw	ft2,68(sp)
    2870:	e08e                	fsw	ft3,64(sp)
    2872:	fe12                	fsw	ft4,60(sp)
    2874:	fc16                	fsw	ft5,56(sp)
    2876:	fa1a                	fsw	ft6,52(sp)
    2878:	f81e                	fsw	ft7,48(sp)
    287a:	f62a                	fsw	fa0,44(sp)
    287c:	f42e                	fsw	fa1,40(sp)
    287e:	f232                	fsw	fa2,36(sp)
    2880:	f036                	fsw	fa3,32(sp)
    2882:	ee3a                	fsw	fa4,28(sp)
    2884:	ec3e                	fsw	fa5,24(sp)
    2886:	ea42                	fsw	fa6,20(sp)
    2888:	e846                	fsw	fa7,16(sp)
    288a:	e672                	fsw	ft8,12(sp)
    288c:	e476                	fsw	ft9,8(sp)
    288e:	e27a                	fsw	ft10,4(sp)
    2890:	e07e                	fsw	ft11,0(sp)
    2892:	1100                	addi	s0,sp,160
E:/wch307/CHV307_Library-master/Example/E02_uart_demo/user/src/isr.c:198
    if(SET == EXTI_GetITStatus(EXTI_Line4))
    2894:	4541                	li	a0,16
    2896:	459000ef          	jal	ra,34ee <EXTI_GetITStatus>
    289a:	872a                	mv	a4,a0
    289c:	4785                	li	a5,1
    289e:	00f71563          	bne	a4,a5,28a8 <EXTI4_IRQHandler+0x62>
E:/wch307/CHV307_Library-master/Example/E02_uart_demo/user/src/isr.c:200
    {
        EXTI_ClearITPendingBit(EXTI_Line4);
    28a2:	4541                	li	a0,16
    28a4:	4a1000ef          	jal	ra,3544 <EXTI_ClearITPendingBit>
E:/wch307/CHV307_Library-master/Example/E02_uart_demo/user/src/isr.c:203

    }
}
    28a8:	0001                	nop
    28aa:	40fa                	lw	ra,156(sp)
    28ac:	42ea                	lw	t0,152(sp)
    28ae:	435a                	lw	t1,148(sp)
    28b0:	43ca                	lw	t2,144(sp)
    28b2:	443a                	lw	s0,140(sp)
    28b4:	452a                	lw	a0,136(sp)
    28b6:	459a                	lw	a1,132(sp)
    28b8:	460a                	lw	a2,128(sp)
    28ba:	56f6                	lw	a3,124(sp)
    28bc:	5766                	lw	a4,120(sp)
    28be:	57d6                	lw	a5,116(sp)
    28c0:	5846                	lw	a6,112(sp)
    28c2:	58b6                	lw	a7,108(sp)
    28c4:	5e26                	lw	t3,104(sp)
    28c6:	5e96                	lw	t4,100(sp)
    28c8:	5f06                	lw	t5,96(sp)
    28ca:	4ff6                	lw	t6,92(sp)
    28cc:	6036                	flw	ft0,76(sp)
    28ce:	60a6                	flw	ft1,72(sp)
    28d0:	6116                	flw	ft2,68(sp)
    28d2:	6186                	flw	ft3,64(sp)
    28d4:	7272                	flw	ft4,60(sp)
    28d6:	72e2                	flw	ft5,56(sp)
    28d8:	7352                	flw	ft6,52(sp)
    28da:	73c2                	flw	ft7,48(sp)
    28dc:	7532                	flw	fa0,44(sp)
    28de:	75a2                	flw	fa1,40(sp)
    28e0:	7612                	flw	fa2,36(sp)
    28e2:	7682                	flw	fa3,32(sp)
    28e4:	6772                	flw	fa4,28(sp)
    28e6:	67e2                	flw	fa5,24(sp)
    28e8:	6852                	flw	fa6,20(sp)
    28ea:	68c2                	flw	fa7,16(sp)
    28ec:	6e32                	flw	ft8,12(sp)
    28ee:	6ea2                	flw	ft9,8(sp)
    28f0:	6f12                	flw	ft10,4(sp)
    28f2:	6f82                	flw	ft11,0(sp)
    28f4:	610d                	addi	sp,sp,160
    28f6:	30200073          	mret

000028fa <EXTI9_5_IRQHandler>:
EXTI9_5_IRQHandler():
E:/wch307/CHV307_Library-master/Example/E02_uart_demo/user/src/isr.c:205
void EXTI9_5_IRQHandler(void)
{
    28fa:	7135                	addi	sp,sp,-160
    28fc:	cf06                	sw	ra,156(sp)
    28fe:	cd16                	sw	t0,152(sp)
    2900:	cb1a                	sw	t1,148(sp)
    2902:	c91e                	sw	t2,144(sp)
    2904:	c722                	sw	s0,140(sp)
    2906:	c52a                	sw	a0,136(sp)
    2908:	c32e                	sw	a1,132(sp)
    290a:	c132                	sw	a2,128(sp)
    290c:	deb6                	sw	a3,124(sp)
    290e:	dcba                	sw	a4,120(sp)
    2910:	dabe                	sw	a5,116(sp)
    2912:	d8c2                	sw	a6,112(sp)
    2914:	d6c6                	sw	a7,108(sp)
    2916:	d4f2                	sw	t3,104(sp)
    2918:	d2f6                	sw	t4,100(sp)
    291a:	d0fa                	sw	t5,96(sp)
    291c:	cefe                	sw	t6,92(sp)
    291e:	e682                	fsw	ft0,76(sp)
    2920:	e486                	fsw	ft1,72(sp)
    2922:	e28a                	fsw	ft2,68(sp)
    2924:	e08e                	fsw	ft3,64(sp)
    2926:	fe12                	fsw	ft4,60(sp)
    2928:	fc16                	fsw	ft5,56(sp)
    292a:	fa1a                	fsw	ft6,52(sp)
    292c:	f81e                	fsw	ft7,48(sp)
    292e:	f62a                	fsw	fa0,44(sp)
    2930:	f42e                	fsw	fa1,40(sp)
    2932:	f232                	fsw	fa2,36(sp)
    2934:	f036                	fsw	fa3,32(sp)
    2936:	ee3a                	fsw	fa4,28(sp)
    2938:	ec3e                	fsw	fa5,24(sp)
    293a:	ea42                	fsw	fa6,20(sp)
    293c:	e846                	fsw	fa7,16(sp)
    293e:	e672                	fsw	ft8,12(sp)
    2940:	e476                	fsw	ft9,8(sp)
    2942:	e27a                	fsw	ft10,4(sp)
    2944:	e07e                	fsw	ft11,0(sp)
    2946:	1100                	addi	s0,sp,160
E:/wch307/CHV307_Library-master/Example/E02_uart_demo/user/src/isr.c:206
    if(SET == EXTI_GetITStatus(EXTI_Line5))
    2948:	02000513          	li	a0,32
    294c:	3a3000ef          	jal	ra,34ee <EXTI_GetITStatus>
    2950:	872a                	mv	a4,a0
    2952:	4785                	li	a5,1
    2954:	00f71663          	bne	a4,a5,2960 <EXTI9_5_IRQHandler+0x66>
E:/wch307/CHV307_Library-master/Example/E02_uart_demo/user/src/isr.c:208
    {
        EXTI_ClearITPendingBit(EXTI_Line5);
    2958:	02000513          	li	a0,32
    295c:	3e9000ef          	jal	ra,3544 <EXTI_ClearITPendingBit>
E:/wch307/CHV307_Library-master/Example/E02_uart_demo/user/src/isr.c:211

    }
    if(SET == EXTI_GetITStatus(EXTI_Line6))
    2960:	04000513          	li	a0,64
    2964:	38b000ef          	jal	ra,34ee <EXTI_GetITStatus>
    2968:	872a                	mv	a4,a0
    296a:	4785                	li	a5,1
    296c:	00f71663          	bne	a4,a5,2978 <EXTI9_5_IRQHandler+0x7e>
E:/wch307/CHV307_Library-master/Example/E02_uart_demo/user/src/isr.c:213
    {
        EXTI_ClearITPendingBit(EXTI_Line6);
    2970:	04000513          	li	a0,64
    2974:	3d1000ef          	jal	ra,3544 <EXTI_ClearITPendingBit>
E:/wch307/CHV307_Library-master/Example/E02_uart_demo/user/src/isr.c:216

    }
    if(SET == EXTI_GetITStatus(EXTI_Line7))
    2978:	08000513          	li	a0,128
    297c:	373000ef          	jal	ra,34ee <EXTI_GetITStatus>
    2980:	872a                	mv	a4,a0
    2982:	4785                	li	a5,1
    2984:	00f71663          	bne	a4,a5,2990 <EXTI9_5_IRQHandler+0x96>
E:/wch307/CHV307_Library-master/Example/E02_uart_demo/user/src/isr.c:218
    {
        EXTI_ClearITPendingBit(EXTI_Line7);
    2988:	08000513          	li	a0,128
    298c:	3b9000ef          	jal	ra,3544 <EXTI_ClearITPendingBit>
E:/wch307/CHV307_Library-master/Example/E02_uart_demo/user/src/isr.c:221

    }
    if(SET == EXTI_GetITStatus(EXTI_Line8))
    2990:	10000513          	li	a0,256
    2994:	35b000ef          	jal	ra,34ee <EXTI_GetITStatus>
    2998:	872a                	mv	a4,a0
    299a:	4785                	li	a5,1
    299c:	00f71663          	bne	a4,a5,29a8 <EXTI9_5_IRQHandler+0xae>
E:/wch307/CHV307_Library-master/Example/E02_uart_demo/user/src/isr.c:223
    {
        EXTI_ClearITPendingBit(EXTI_Line8);
    29a0:	10000513          	li	a0,256
    29a4:	3a1000ef          	jal	ra,3544 <EXTI_ClearITPendingBit>
E:/wch307/CHV307_Library-master/Example/E02_uart_demo/user/src/isr.c:226

    }
    if(SET == EXTI_GetITStatus(EXTI_Line9))
    29a8:	20000513          	li	a0,512
    29ac:	343000ef          	jal	ra,34ee <EXTI_GetITStatus>
    29b0:	872a                	mv	a4,a0
    29b2:	4785                	li	a5,1
    29b4:	00f71663          	bne	a4,a5,29c0 <EXTI9_5_IRQHandler+0xc6>
E:/wch307/CHV307_Library-master/Example/E02_uart_demo/user/src/isr.c:228
    {
        EXTI_ClearITPendingBit(EXTI_Line9);
    29b8:	20000513          	li	a0,512
    29bc:	389000ef          	jal	ra,3544 <EXTI_ClearITPendingBit>
E:/wch307/CHV307_Library-master/Example/E02_uart_demo/user/src/isr.c:232

    }

}
    29c0:	0001                	nop
    29c2:	40fa                	lw	ra,156(sp)
    29c4:	42ea                	lw	t0,152(sp)
    29c6:	435a                	lw	t1,148(sp)
    29c8:	43ca                	lw	t2,144(sp)
    29ca:	443a                	lw	s0,140(sp)
    29cc:	452a                	lw	a0,136(sp)
    29ce:	459a                	lw	a1,132(sp)
    29d0:	460a                	lw	a2,128(sp)
    29d2:	56f6                	lw	a3,124(sp)
    29d4:	5766                	lw	a4,120(sp)
    29d6:	57d6                	lw	a5,116(sp)
    29d8:	5846                	lw	a6,112(sp)
    29da:	58b6                	lw	a7,108(sp)
    29dc:	5e26                	lw	t3,104(sp)
    29de:	5e96                	lw	t4,100(sp)
    29e0:	5f06                	lw	t5,96(sp)
    29e2:	4ff6                	lw	t6,92(sp)
    29e4:	6036                	flw	ft0,76(sp)
    29e6:	60a6                	flw	ft1,72(sp)
    29e8:	6116                	flw	ft2,68(sp)
    29ea:	6186                	flw	ft3,64(sp)
    29ec:	7272                	flw	ft4,60(sp)
    29ee:	72e2                	flw	ft5,56(sp)
    29f0:	7352                	flw	ft6,52(sp)
    29f2:	73c2                	flw	ft7,48(sp)
    29f4:	7532                	flw	fa0,44(sp)
    29f6:	75a2                	flw	fa1,40(sp)
    29f8:	7612                	flw	fa2,36(sp)
    29fa:	7682                	flw	fa3,32(sp)
    29fc:	6772                	flw	fa4,28(sp)
    29fe:	67e2                	flw	fa5,24(sp)
    2a00:	6852                	flw	fa6,20(sp)
    2a02:	68c2                	flw	fa7,16(sp)
    2a04:	6e32                	flw	ft8,12(sp)
    2a06:	6ea2                	flw	ft9,8(sp)
    2a08:	6f12                	flw	ft10,4(sp)
    2a0a:	6f82                	flw	ft11,0(sp)
    2a0c:	610d                	addi	sp,sp,160
    2a0e:	30200073          	mret

00002a12 <EXTI15_10_IRQHandler>:
EXTI15_10_IRQHandler():
E:/wch307/CHV307_Library-master/Example/E02_uart_demo/user/src/isr.c:235

void EXTI15_10_IRQHandler(void)
{
    2a12:	7135                	addi	sp,sp,-160
    2a14:	cf06                	sw	ra,156(sp)
    2a16:	cd16                	sw	t0,152(sp)
    2a18:	cb1a                	sw	t1,148(sp)
    2a1a:	c91e                	sw	t2,144(sp)
    2a1c:	c722                	sw	s0,140(sp)
    2a1e:	c52a                	sw	a0,136(sp)
    2a20:	c32e                	sw	a1,132(sp)
    2a22:	c132                	sw	a2,128(sp)
    2a24:	deb6                	sw	a3,124(sp)
    2a26:	dcba                	sw	a4,120(sp)
    2a28:	dabe                	sw	a5,116(sp)
    2a2a:	d8c2                	sw	a6,112(sp)
    2a2c:	d6c6                	sw	a7,108(sp)
    2a2e:	d4f2                	sw	t3,104(sp)
    2a30:	d2f6                	sw	t4,100(sp)
    2a32:	d0fa                	sw	t5,96(sp)
    2a34:	cefe                	sw	t6,92(sp)
    2a36:	e682                	fsw	ft0,76(sp)
    2a38:	e486                	fsw	ft1,72(sp)
    2a3a:	e28a                	fsw	ft2,68(sp)
    2a3c:	e08e                	fsw	ft3,64(sp)
    2a3e:	fe12                	fsw	ft4,60(sp)
    2a40:	fc16                	fsw	ft5,56(sp)
    2a42:	fa1a                	fsw	ft6,52(sp)
    2a44:	f81e                	fsw	ft7,48(sp)
    2a46:	f62a                	fsw	fa0,44(sp)
    2a48:	f42e                	fsw	fa1,40(sp)
    2a4a:	f232                	fsw	fa2,36(sp)
    2a4c:	f036                	fsw	fa3,32(sp)
    2a4e:	ee3a                	fsw	fa4,28(sp)
    2a50:	ec3e                	fsw	fa5,24(sp)
    2a52:	ea42                	fsw	fa6,20(sp)
    2a54:	e846                	fsw	fa7,16(sp)
    2a56:	e672                	fsw	ft8,12(sp)
    2a58:	e476                	fsw	ft9,8(sp)
    2a5a:	e27a                	fsw	ft10,4(sp)
    2a5c:	e07e                	fsw	ft11,0(sp)
    2a5e:	1100                	addi	s0,sp,160
E:/wch307/CHV307_Library-master/Example/E02_uart_demo/user/src/isr.c:236
    if(SET == EXTI_GetITStatus(EXTI_Line10))
    2a60:	40000513          	li	a0,1024
    2a64:	28b000ef          	jal	ra,34ee <EXTI_GetITStatus>
    2a68:	872a                	mv	a4,a0
    2a6a:	4785                	li	a5,1
    2a6c:	00f71663          	bne	a4,a5,2a78 <EXTI15_10_IRQHandler+0x66>
E:/wch307/CHV307_Library-master/Example/E02_uart_demo/user/src/isr.c:238
    {
        EXTI_ClearITPendingBit(EXTI_Line10);
    2a70:	40000513          	li	a0,1024
    2a74:	2d1000ef          	jal	ra,3544 <EXTI_ClearITPendingBit>
E:/wch307/CHV307_Library-master/Example/E02_uart_demo/user/src/isr.c:241

    }
    if(SET == EXTI_GetITStatus(EXTI_Line11))
    2a78:	6785                	lui	a5,0x1
    2a7a:	80078513          	addi	a0,a5,-2048 # 800 <__stack_size>
    2a7e:	271000ef          	jal	ra,34ee <EXTI_GetITStatus>
    2a82:	872a                	mv	a4,a0
    2a84:	4785                	li	a5,1
    2a86:	00f71763          	bne	a4,a5,2a94 <EXTI15_10_IRQHandler+0x82>
E:/wch307/CHV307_Library-master/Example/E02_uart_demo/user/src/isr.c:243
    {
        EXTI_ClearITPendingBit(EXTI_Line11);
    2a8a:	6785                	lui	a5,0x1
    2a8c:	80078513          	addi	a0,a5,-2048 # 800 <__stack_size>
    2a90:	2b5000ef          	jal	ra,3544 <EXTI_ClearITPendingBit>
E:/wch307/CHV307_Library-master/Example/E02_uart_demo/user/src/isr.c:246

    }
    if(SET == EXTI_GetITStatus(EXTI_Line12))
    2a94:	6505                	lui	a0,0x1
    2a96:	259000ef          	jal	ra,34ee <EXTI_GetITStatus>
    2a9a:	872a                	mv	a4,a0
    2a9c:	4785                	li	a5,1
    2a9e:	00f71563          	bne	a4,a5,2aa8 <EXTI15_10_IRQHandler+0x96>
E:/wch307/CHV307_Library-master/Example/E02_uart_demo/user/src/isr.c:248
    {
        EXTI_ClearITPendingBit(EXTI_Line12);
    2aa2:	6505                	lui	a0,0x1
    2aa4:	2a1000ef          	jal	ra,3544 <EXTI_ClearITPendingBit>
E:/wch307/CHV307_Library-master/Example/E02_uart_demo/user/src/isr.c:251

    }
    if(SET == EXTI_GetITStatus(EXTI_Line13))
    2aa8:	6509                	lui	a0,0x2
    2aaa:	245000ef          	jal	ra,34ee <EXTI_GetITStatus>
    2aae:	872a                	mv	a4,a0
    2ab0:	4785                	li	a5,1
    2ab2:	00f71563          	bne	a4,a5,2abc <EXTI15_10_IRQHandler+0xaa>
E:/wch307/CHV307_Library-master/Example/E02_uart_demo/user/src/isr.c:253
    {
        EXTI_ClearITPendingBit(EXTI_Line13);
    2ab6:	6509                	lui	a0,0x2
    2ab8:	28d000ef          	jal	ra,3544 <EXTI_ClearITPendingBit>
E:/wch307/CHV307_Library-master/Example/E02_uart_demo/user/src/isr.c:256

    }
    if(SET == EXTI_GetITStatus(EXTI_Line14))
    2abc:	6511                	lui	a0,0x4
    2abe:	231000ef          	jal	ra,34ee <EXTI_GetITStatus>
    2ac2:	872a                	mv	a4,a0
    2ac4:	4785                	li	a5,1
    2ac6:	00f71563          	bne	a4,a5,2ad0 <EXTI15_10_IRQHandler+0xbe>
E:/wch307/CHV307_Library-master/Example/E02_uart_demo/user/src/isr.c:258
    {
        EXTI_ClearITPendingBit(EXTI_Line14);
    2aca:	6511                	lui	a0,0x4
    2acc:	279000ef          	jal	ra,3544 <EXTI_ClearITPendingBit>
E:/wch307/CHV307_Library-master/Example/E02_uart_demo/user/src/isr.c:261

    }
    if(SET == EXTI_GetITStatus(EXTI_Line15))
    2ad0:	6521                	lui	a0,0x8
    2ad2:	21d000ef          	jal	ra,34ee <EXTI_GetITStatus>
    2ad6:	872a                	mv	a4,a0
    2ad8:	4785                	li	a5,1
    2ada:	00f71563          	bne	a4,a5,2ae4 <EXTI15_10_IRQHandler+0xd2>
E:/wch307/CHV307_Library-master/Example/E02_uart_demo/user/src/isr.c:263
    {
        EXTI_ClearITPendingBit(EXTI_Line15);
    2ade:	6521                	lui	a0,0x8
    2ae0:	265000ef          	jal	ra,3544 <EXTI_ClearITPendingBit>
E:/wch307/CHV307_Library-master/Example/E02_uart_demo/user/src/isr.c:266

    }
}
    2ae4:	0001                	nop
    2ae6:	40fa                	lw	ra,156(sp)
    2ae8:	42ea                	lw	t0,152(sp)
    2aea:	435a                	lw	t1,148(sp)
    2aec:	43ca                	lw	t2,144(sp)
    2aee:	443a                	lw	s0,140(sp)
    2af0:	452a                	lw	a0,136(sp)
    2af2:	459a                	lw	a1,132(sp)
    2af4:	460a                	lw	a2,128(sp)
    2af6:	56f6                	lw	a3,124(sp)
    2af8:	5766                	lw	a4,120(sp)
    2afa:	57d6                	lw	a5,116(sp)
    2afc:	5846                	lw	a6,112(sp)
    2afe:	58b6                	lw	a7,108(sp)
    2b00:	5e26                	lw	t3,104(sp)
    2b02:	5e96                	lw	t4,100(sp)
    2b04:	5f06                	lw	t5,96(sp)
    2b06:	4ff6                	lw	t6,92(sp)
    2b08:	6036                	flw	ft0,76(sp)
    2b0a:	60a6                	flw	ft1,72(sp)
    2b0c:	6116                	flw	ft2,68(sp)
    2b0e:	6186                	flw	ft3,64(sp)
    2b10:	7272                	flw	ft4,60(sp)
    2b12:	72e2                	flw	ft5,56(sp)
    2b14:	7352                	flw	ft6,52(sp)
    2b16:	73c2                	flw	ft7,48(sp)
    2b18:	7532                	flw	fa0,44(sp)
    2b1a:	75a2                	flw	fa1,40(sp)
    2b1c:	7612                	flw	fa2,36(sp)
    2b1e:	7682                	flw	fa3,32(sp)
    2b20:	6772                	flw	fa4,28(sp)
    2b22:	67e2                	flw	fa5,24(sp)
    2b24:	6852                	flw	fa6,20(sp)
    2b26:	68c2                	flw	fa7,16(sp)
    2b28:	6e32                	flw	ft8,12(sp)
    2b2a:	6ea2                	flw	ft9,8(sp)
    2b2c:	6f12                	flw	ft10,4(sp)
    2b2e:	6f82                	flw	ft11,0(sp)
    2b30:	610d                	addi	sp,sp,160
    2b32:	30200073          	mret

00002b36 <TIM1_UP_IRQHandler>:
TIM1_UP_IRQHandler():
E:/wch307/CHV307_Library-master/Example/E02_uart_demo/user/src/isr.c:269

void TIM1_UP_IRQHandler(void)
{
    2b36:	7135                	addi	sp,sp,-160
    2b38:	cf06                	sw	ra,156(sp)
    2b3a:	cd16                	sw	t0,152(sp)
    2b3c:	cb1a                	sw	t1,148(sp)
    2b3e:	c91e                	sw	t2,144(sp)
    2b40:	c722                	sw	s0,140(sp)
    2b42:	c52a                	sw	a0,136(sp)
    2b44:	c32e                	sw	a1,132(sp)
    2b46:	c132                	sw	a2,128(sp)
    2b48:	deb6                	sw	a3,124(sp)
    2b4a:	dcba                	sw	a4,120(sp)
    2b4c:	dabe                	sw	a5,116(sp)
    2b4e:	d8c2                	sw	a6,112(sp)
    2b50:	d6c6                	sw	a7,108(sp)
    2b52:	d4f2                	sw	t3,104(sp)
    2b54:	d2f6                	sw	t4,100(sp)
    2b56:	d0fa                	sw	t5,96(sp)
    2b58:	cefe                	sw	t6,92(sp)
    2b5a:	e682                	fsw	ft0,76(sp)
    2b5c:	e486                	fsw	ft1,72(sp)
    2b5e:	e28a                	fsw	ft2,68(sp)
    2b60:	e08e                	fsw	ft3,64(sp)
    2b62:	fe12                	fsw	ft4,60(sp)
    2b64:	fc16                	fsw	ft5,56(sp)
    2b66:	fa1a                	fsw	ft6,52(sp)
    2b68:	f81e                	fsw	ft7,48(sp)
    2b6a:	f62a                	fsw	fa0,44(sp)
    2b6c:	f42e                	fsw	fa1,40(sp)
    2b6e:	f232                	fsw	fa2,36(sp)
    2b70:	f036                	fsw	fa3,32(sp)
    2b72:	ee3a                	fsw	fa4,28(sp)
    2b74:	ec3e                	fsw	fa5,24(sp)
    2b76:	ea42                	fsw	fa6,20(sp)
    2b78:	e846                	fsw	fa7,16(sp)
    2b7a:	e672                	fsw	ft8,12(sp)
    2b7c:	e476                	fsw	ft9,8(sp)
    2b7e:	e27a                	fsw	ft10,4(sp)
    2b80:	e07e                	fsw	ft11,0(sp)
    2b82:	1100                	addi	s0,sp,160
E:/wch307/CHV307_Library-master/Example/E02_uart_demo/user/src/isr.c:270
    if(TIM_GetITStatus(TIM1, TIM_IT_Update) != RESET)
    2b84:	4585                	li	a1,1
    2b86:	400137b7          	lui	a5,0x40013
    2b8a:	c0078513          	addi	a0,a5,-1024 # 40012c00 <_eusrstack+0x20002c00>
    2b8e:	78b000ef          	jal	ra,3b18 <TIM_GetITStatus>
    2b92:	87aa                	mv	a5,a0
    2b94:	cb81                	beqz	a5,2ba4 <TIM1_UP_IRQHandler+0x6e>
E:/wch307/CHV307_Library-master/Example/E02_uart_demo/user/src/isr.c:272
    {
        TIM_ClearITPendingBit(TIM1, TIM_IT_Update);
    2b96:	4585                	li	a1,1
    2b98:	400137b7          	lui	a5,0x40013
    2b9c:	c0078513          	addi	a0,a5,-1024 # 40012c00 <_eusrstack+0x20002c00>
    2ba0:	7e9000ef          	jal	ra,3b88 <TIM_ClearITPendingBit>
E:/wch307/CHV307_Library-master/Example/E02_uart_demo/user/src/isr.c:275

    }
}
    2ba4:	0001                	nop
    2ba6:	40fa                	lw	ra,156(sp)
    2ba8:	42ea                	lw	t0,152(sp)
    2baa:	435a                	lw	t1,148(sp)
    2bac:	43ca                	lw	t2,144(sp)
    2bae:	443a                	lw	s0,140(sp)
    2bb0:	452a                	lw	a0,136(sp)
    2bb2:	459a                	lw	a1,132(sp)
    2bb4:	460a                	lw	a2,128(sp)
    2bb6:	56f6                	lw	a3,124(sp)
    2bb8:	5766                	lw	a4,120(sp)
    2bba:	57d6                	lw	a5,116(sp)
    2bbc:	5846                	lw	a6,112(sp)
    2bbe:	58b6                	lw	a7,108(sp)
    2bc0:	5e26                	lw	t3,104(sp)
    2bc2:	5e96                	lw	t4,100(sp)
    2bc4:	5f06                	lw	t5,96(sp)
    2bc6:	4ff6                	lw	t6,92(sp)
    2bc8:	6036                	flw	ft0,76(sp)
    2bca:	60a6                	flw	ft1,72(sp)
    2bcc:	6116                	flw	ft2,68(sp)
    2bce:	6186                	flw	ft3,64(sp)
    2bd0:	7272                	flw	ft4,60(sp)
    2bd2:	72e2                	flw	ft5,56(sp)
    2bd4:	7352                	flw	ft6,52(sp)
    2bd6:	73c2                	flw	ft7,48(sp)
    2bd8:	7532                	flw	fa0,44(sp)
    2bda:	75a2                	flw	fa1,40(sp)
    2bdc:	7612                	flw	fa2,36(sp)
    2bde:	7682                	flw	fa3,32(sp)
    2be0:	6772                	flw	fa4,28(sp)
    2be2:	67e2                	flw	fa5,24(sp)
    2be4:	6852                	flw	fa6,20(sp)
    2be6:	68c2                	flw	fa7,16(sp)
    2be8:	6e32                	flw	ft8,12(sp)
    2bea:	6ea2                	flw	ft9,8(sp)
    2bec:	6f12                	flw	ft10,4(sp)
    2bee:	6f82                	flw	ft11,0(sp)
    2bf0:	610d                	addi	sp,sp,160
    2bf2:	30200073          	mret

00002bf6 <TIM2_IRQHandler>:
TIM2_IRQHandler():
E:/wch307/CHV307_Library-master/Example/E02_uart_demo/user/src/isr.c:279


void TIM2_IRQHandler(void)
{
    2bf6:	7135                	addi	sp,sp,-160
    2bf8:	cf06                	sw	ra,156(sp)
    2bfa:	cd16                	sw	t0,152(sp)
    2bfc:	cb1a                	sw	t1,148(sp)
    2bfe:	c91e                	sw	t2,144(sp)
    2c00:	c722                	sw	s0,140(sp)
    2c02:	c52a                	sw	a0,136(sp)
    2c04:	c32e                	sw	a1,132(sp)
    2c06:	c132                	sw	a2,128(sp)
    2c08:	deb6                	sw	a3,124(sp)
    2c0a:	dcba                	sw	a4,120(sp)
    2c0c:	dabe                	sw	a5,116(sp)
    2c0e:	d8c2                	sw	a6,112(sp)
    2c10:	d6c6                	sw	a7,108(sp)
    2c12:	d4f2                	sw	t3,104(sp)
    2c14:	d2f6                	sw	t4,100(sp)
    2c16:	d0fa                	sw	t5,96(sp)
    2c18:	cefe                	sw	t6,92(sp)
    2c1a:	e682                	fsw	ft0,76(sp)
    2c1c:	e486                	fsw	ft1,72(sp)
    2c1e:	e28a                	fsw	ft2,68(sp)
    2c20:	e08e                	fsw	ft3,64(sp)
    2c22:	fe12                	fsw	ft4,60(sp)
    2c24:	fc16                	fsw	ft5,56(sp)
    2c26:	fa1a                	fsw	ft6,52(sp)
    2c28:	f81e                	fsw	ft7,48(sp)
    2c2a:	f62a                	fsw	fa0,44(sp)
    2c2c:	f42e                	fsw	fa1,40(sp)
    2c2e:	f232                	fsw	fa2,36(sp)
    2c30:	f036                	fsw	fa3,32(sp)
    2c32:	ee3a                	fsw	fa4,28(sp)
    2c34:	ec3e                	fsw	fa5,24(sp)
    2c36:	ea42                	fsw	fa6,20(sp)
    2c38:	e846                	fsw	fa7,16(sp)
    2c3a:	e672                	fsw	ft8,12(sp)
    2c3c:	e476                	fsw	ft9,8(sp)
    2c3e:	e27a                	fsw	ft10,4(sp)
    2c40:	e07e                	fsw	ft11,0(sp)
    2c42:	1100                	addi	s0,sp,160
E:/wch307/CHV307_Library-master/Example/E02_uart_demo/user/src/isr.c:280
    if(TIM_GetITStatus(TIM2, TIM_IT_Update) != RESET)
    2c44:	4585                	li	a1,1
    2c46:	40000537          	lui	a0,0x40000
    2c4a:	6cf000ef          	jal	ra,3b18 <TIM_GetITStatus>
    2c4e:	87aa                	mv	a5,a0
    2c50:	cb91                	beqz	a5,2c64 <TIM2_IRQHandler+0x6e>
E:/wch307/CHV307_Library-master/Example/E02_uart_demo/user/src/isr.c:282
    {
       TIM_ClearITPendingBit(TIM2, TIM_IT_Update );
    2c52:	4585                	li	a1,1
    2c54:	40000537          	lui	a0,0x40000
    2c58:	731000ef          	jal	ra,3b88 <TIM_ClearITPendingBit>
E:/wch307/CHV307_Library-master/Example/E02_uart_demo/user/src/isr.c:283
       gpio_toggle_level(E2);
    2c5c:	08200513          	li	a0,130
    2c60:	eeafd0ef          	jal	ra,34a <gpio_toggle_level>
E:/wch307/CHV307_Library-master/Example/E02_uart_demo/user/src/isr.c:286

    }
}
    2c64:	0001                	nop
    2c66:	40fa                	lw	ra,156(sp)
    2c68:	42ea                	lw	t0,152(sp)
    2c6a:	435a                	lw	t1,148(sp)
    2c6c:	43ca                	lw	t2,144(sp)
    2c6e:	443a                	lw	s0,140(sp)
    2c70:	452a                	lw	a0,136(sp)
    2c72:	459a                	lw	a1,132(sp)
    2c74:	460a                	lw	a2,128(sp)
    2c76:	56f6                	lw	a3,124(sp)
    2c78:	5766                	lw	a4,120(sp)
    2c7a:	57d6                	lw	a5,116(sp)
    2c7c:	5846                	lw	a6,112(sp)
    2c7e:	58b6                	lw	a7,108(sp)
    2c80:	5e26                	lw	t3,104(sp)
    2c82:	5e96                	lw	t4,100(sp)
    2c84:	5f06                	lw	t5,96(sp)
    2c86:	4ff6                	lw	t6,92(sp)
    2c88:	6036                	flw	ft0,76(sp)
    2c8a:	60a6                	flw	ft1,72(sp)
    2c8c:	6116                	flw	ft2,68(sp)
    2c8e:	6186                	flw	ft3,64(sp)
    2c90:	7272                	flw	ft4,60(sp)
    2c92:	72e2                	flw	ft5,56(sp)
    2c94:	7352                	flw	ft6,52(sp)
    2c96:	73c2                	flw	ft7,48(sp)
    2c98:	7532                	flw	fa0,44(sp)
    2c9a:	75a2                	flw	fa1,40(sp)
    2c9c:	7612                	flw	fa2,36(sp)
    2c9e:	7682                	flw	fa3,32(sp)
    2ca0:	6772                	flw	fa4,28(sp)
    2ca2:	67e2                	flw	fa5,24(sp)
    2ca4:	6852                	flw	fa6,20(sp)
    2ca6:	68c2                	flw	fa7,16(sp)
    2ca8:	6e32                	flw	ft8,12(sp)
    2caa:	6ea2                	flw	ft9,8(sp)
    2cac:	6f12                	flw	ft10,4(sp)
    2cae:	6f82                	flw	ft11,0(sp)
    2cb0:	610d                	addi	sp,sp,160
    2cb2:	30200073          	mret

00002cb6 <TIM3_IRQHandler>:
TIM3_IRQHandler():
E:/wch307/CHV307_Library-master/Example/E02_uart_demo/user/src/isr.c:289

void TIM3_IRQHandler(void)
{
    2cb6:	7135                	addi	sp,sp,-160
    2cb8:	cf06                	sw	ra,156(sp)
    2cba:	cd16                	sw	t0,152(sp)
    2cbc:	cb1a                	sw	t1,148(sp)
    2cbe:	c91e                	sw	t2,144(sp)
    2cc0:	c722                	sw	s0,140(sp)
    2cc2:	c52a                	sw	a0,136(sp)
    2cc4:	c32e                	sw	a1,132(sp)
    2cc6:	c132                	sw	a2,128(sp)
    2cc8:	deb6                	sw	a3,124(sp)
    2cca:	dcba                	sw	a4,120(sp)
    2ccc:	dabe                	sw	a5,116(sp)
    2cce:	d8c2                	sw	a6,112(sp)
    2cd0:	d6c6                	sw	a7,108(sp)
    2cd2:	d4f2                	sw	t3,104(sp)
    2cd4:	d2f6                	sw	t4,100(sp)
    2cd6:	d0fa                	sw	t5,96(sp)
    2cd8:	cefe                	sw	t6,92(sp)
    2cda:	e682                	fsw	ft0,76(sp)
    2cdc:	e486                	fsw	ft1,72(sp)
    2cde:	e28a                	fsw	ft2,68(sp)
    2ce0:	e08e                	fsw	ft3,64(sp)
    2ce2:	fe12                	fsw	ft4,60(sp)
    2ce4:	fc16                	fsw	ft5,56(sp)
    2ce6:	fa1a                	fsw	ft6,52(sp)
    2ce8:	f81e                	fsw	ft7,48(sp)
    2cea:	f62a                	fsw	fa0,44(sp)
    2cec:	f42e                	fsw	fa1,40(sp)
    2cee:	f232                	fsw	fa2,36(sp)
    2cf0:	f036                	fsw	fa3,32(sp)
    2cf2:	ee3a                	fsw	fa4,28(sp)
    2cf4:	ec3e                	fsw	fa5,24(sp)
    2cf6:	ea42                	fsw	fa6,20(sp)
    2cf8:	e846                	fsw	fa7,16(sp)
    2cfa:	e672                	fsw	ft8,12(sp)
    2cfc:	e476                	fsw	ft9,8(sp)
    2cfe:	e27a                	fsw	ft10,4(sp)
    2d00:	e07e                	fsw	ft11,0(sp)
    2d02:	1100                	addi	s0,sp,160
E:/wch307/CHV307_Library-master/Example/E02_uart_demo/user/src/isr.c:290
    if(TIM_GetITStatus(TIM3, TIM_IT_Update) != RESET)
    2d04:	4585                	li	a1,1
    2d06:	400007b7          	lui	a5,0x40000
    2d0a:	40078513          	addi	a0,a5,1024 # 40000400 <_eusrstack+0x1fff0400>
    2d0e:	60b000ef          	jal	ra,3b18 <TIM_GetITStatus>
    2d12:	87aa                	mv	a5,a0
    2d14:	cb81                	beqz	a5,2d24 <TIM3_IRQHandler+0x6e>
E:/wch307/CHV307_Library-master/Example/E02_uart_demo/user/src/isr.c:292
    {
       TIM_ClearITPendingBit(TIM3, TIM_IT_Update );
    2d16:	4585                	li	a1,1
    2d18:	400007b7          	lui	a5,0x40000
    2d1c:	40078513          	addi	a0,a5,1024 # 40000400 <_eusrstack+0x1fff0400>
    2d20:	669000ef          	jal	ra,3b88 <TIM_ClearITPendingBit>
E:/wch307/CHV307_Library-master/Example/E02_uart_demo/user/src/isr.c:296


    }
}
    2d24:	0001                	nop
    2d26:	40fa                	lw	ra,156(sp)
    2d28:	42ea                	lw	t0,152(sp)
    2d2a:	435a                	lw	t1,148(sp)
    2d2c:	43ca                	lw	t2,144(sp)
    2d2e:	443a                	lw	s0,140(sp)
    2d30:	452a                	lw	a0,136(sp)
    2d32:	459a                	lw	a1,132(sp)
    2d34:	460a                	lw	a2,128(sp)
    2d36:	56f6                	lw	a3,124(sp)
    2d38:	5766                	lw	a4,120(sp)
    2d3a:	57d6                	lw	a5,116(sp)
    2d3c:	5846                	lw	a6,112(sp)
    2d3e:	58b6                	lw	a7,108(sp)
    2d40:	5e26                	lw	t3,104(sp)
    2d42:	5e96                	lw	t4,100(sp)
    2d44:	5f06                	lw	t5,96(sp)
    2d46:	4ff6                	lw	t6,92(sp)
    2d48:	6036                	flw	ft0,76(sp)
    2d4a:	60a6                	flw	ft1,72(sp)
    2d4c:	6116                	flw	ft2,68(sp)
    2d4e:	6186                	flw	ft3,64(sp)
    2d50:	7272                	flw	ft4,60(sp)
    2d52:	72e2                	flw	ft5,56(sp)
    2d54:	7352                	flw	ft6,52(sp)
    2d56:	73c2                	flw	ft7,48(sp)
    2d58:	7532                	flw	fa0,44(sp)
    2d5a:	75a2                	flw	fa1,40(sp)
    2d5c:	7612                	flw	fa2,36(sp)
    2d5e:	7682                	flw	fa3,32(sp)
    2d60:	6772                	flw	fa4,28(sp)
    2d62:	67e2                	flw	fa5,24(sp)
    2d64:	6852                	flw	fa6,20(sp)
    2d66:	68c2                	flw	fa7,16(sp)
    2d68:	6e32                	flw	ft8,12(sp)
    2d6a:	6ea2                	flw	ft9,8(sp)
    2d6c:	6f12                	flw	ft10,4(sp)
    2d6e:	6f82                	flw	ft11,0(sp)
    2d70:	610d                	addi	sp,sp,160
    2d72:	30200073          	mret

00002d76 <TIM4_IRQHandler>:
TIM4_IRQHandler():
E:/wch307/CHV307_Library-master/Example/E02_uart_demo/user/src/isr.c:299

void TIM4_IRQHandler(void)
{
    2d76:	7135                	addi	sp,sp,-160
    2d78:	cf06                	sw	ra,156(sp)
    2d7a:	cd16                	sw	t0,152(sp)
    2d7c:	cb1a                	sw	t1,148(sp)
    2d7e:	c91e                	sw	t2,144(sp)
    2d80:	c722                	sw	s0,140(sp)
    2d82:	c52a                	sw	a0,136(sp)
    2d84:	c32e                	sw	a1,132(sp)
    2d86:	c132                	sw	a2,128(sp)
    2d88:	deb6                	sw	a3,124(sp)
    2d8a:	dcba                	sw	a4,120(sp)
    2d8c:	dabe                	sw	a5,116(sp)
    2d8e:	d8c2                	sw	a6,112(sp)
    2d90:	d6c6                	sw	a7,108(sp)
    2d92:	d4f2                	sw	t3,104(sp)
    2d94:	d2f6                	sw	t4,100(sp)
    2d96:	d0fa                	sw	t5,96(sp)
    2d98:	cefe                	sw	t6,92(sp)
    2d9a:	e682                	fsw	ft0,76(sp)
    2d9c:	e486                	fsw	ft1,72(sp)
    2d9e:	e28a                	fsw	ft2,68(sp)
    2da0:	e08e                	fsw	ft3,64(sp)
    2da2:	fe12                	fsw	ft4,60(sp)
    2da4:	fc16                	fsw	ft5,56(sp)
    2da6:	fa1a                	fsw	ft6,52(sp)
    2da8:	f81e                	fsw	ft7,48(sp)
    2daa:	f62a                	fsw	fa0,44(sp)
    2dac:	f42e                	fsw	fa1,40(sp)
    2dae:	f232                	fsw	fa2,36(sp)
    2db0:	f036                	fsw	fa3,32(sp)
    2db2:	ee3a                	fsw	fa4,28(sp)
    2db4:	ec3e                	fsw	fa5,24(sp)
    2db6:	ea42                	fsw	fa6,20(sp)
    2db8:	e846                	fsw	fa7,16(sp)
    2dba:	e672                	fsw	ft8,12(sp)
    2dbc:	e476                	fsw	ft9,8(sp)
    2dbe:	e27a                	fsw	ft10,4(sp)
    2dc0:	e07e                	fsw	ft11,0(sp)
    2dc2:	1100                	addi	s0,sp,160
E:/wch307/CHV307_Library-master/Example/E02_uart_demo/user/src/isr.c:300
    if(TIM_GetITStatus(TIM4, TIM_IT_Update) != RESET)
    2dc4:	4585                	li	a1,1
    2dc6:	400017b7          	lui	a5,0x40001
    2dca:	80078513          	addi	a0,a5,-2048 # 40000800 <_eusrstack+0x1fff0800>
    2dce:	54b000ef          	jal	ra,3b18 <TIM_GetITStatus>
    2dd2:	87aa                	mv	a5,a0
    2dd4:	cb81                	beqz	a5,2de4 <TIM4_IRQHandler+0x6e>
E:/wch307/CHV307_Library-master/Example/E02_uart_demo/user/src/isr.c:302
    {
       TIM_ClearITPendingBit(TIM4, TIM_IT_Update );
    2dd6:	4585                	li	a1,1
    2dd8:	400017b7          	lui	a5,0x40001
    2ddc:	80078513          	addi	a0,a5,-2048 # 40000800 <_eusrstack+0x1fff0800>
    2de0:	5a9000ef          	jal	ra,3b88 <TIM_ClearITPendingBit>
E:/wch307/CHV307_Library-master/Example/E02_uart_demo/user/src/isr.c:306


    }
}
    2de4:	0001                	nop
    2de6:	40fa                	lw	ra,156(sp)
    2de8:	42ea                	lw	t0,152(sp)
    2dea:	435a                	lw	t1,148(sp)
    2dec:	43ca                	lw	t2,144(sp)
    2dee:	443a                	lw	s0,140(sp)
    2df0:	452a                	lw	a0,136(sp)
    2df2:	459a                	lw	a1,132(sp)
    2df4:	460a                	lw	a2,128(sp)
    2df6:	56f6                	lw	a3,124(sp)
    2df8:	5766                	lw	a4,120(sp)
    2dfa:	57d6                	lw	a5,116(sp)
    2dfc:	5846                	lw	a6,112(sp)
    2dfe:	58b6                	lw	a7,108(sp)
    2e00:	5e26                	lw	t3,104(sp)
    2e02:	5e96                	lw	t4,100(sp)
    2e04:	5f06                	lw	t5,96(sp)
    2e06:	4ff6                	lw	t6,92(sp)
    2e08:	6036                	flw	ft0,76(sp)
    2e0a:	60a6                	flw	ft1,72(sp)
    2e0c:	6116                	flw	ft2,68(sp)
    2e0e:	6186                	flw	ft3,64(sp)
    2e10:	7272                	flw	ft4,60(sp)
    2e12:	72e2                	flw	ft5,56(sp)
    2e14:	7352                	flw	ft6,52(sp)
    2e16:	73c2                	flw	ft7,48(sp)
    2e18:	7532                	flw	fa0,44(sp)
    2e1a:	75a2                	flw	fa1,40(sp)
    2e1c:	7612                	flw	fa2,36(sp)
    2e1e:	7682                	flw	fa3,32(sp)
    2e20:	6772                	flw	fa4,28(sp)
    2e22:	67e2                	flw	fa5,24(sp)
    2e24:	6852                	flw	fa6,20(sp)
    2e26:	68c2                	flw	fa7,16(sp)
    2e28:	6e32                	flw	ft8,12(sp)
    2e2a:	6ea2                	flw	ft9,8(sp)
    2e2c:	6f12                	flw	ft10,4(sp)
    2e2e:	6f82                	flw	ft11,0(sp)
    2e30:	610d                	addi	sp,sp,160
    2e32:	30200073          	mret

00002e36 <TIM5_IRQHandler>:
TIM5_IRQHandler():
E:/wch307/CHV307_Library-master/Example/E02_uart_demo/user/src/isr.c:309

void TIM5_IRQHandler(void)
{
    2e36:	7135                	addi	sp,sp,-160
    2e38:	cf06                	sw	ra,156(sp)
    2e3a:	cd16                	sw	t0,152(sp)
    2e3c:	cb1a                	sw	t1,148(sp)
    2e3e:	c91e                	sw	t2,144(sp)
    2e40:	c722                	sw	s0,140(sp)
    2e42:	c52a                	sw	a0,136(sp)
    2e44:	c32e                	sw	a1,132(sp)
    2e46:	c132                	sw	a2,128(sp)
    2e48:	deb6                	sw	a3,124(sp)
    2e4a:	dcba                	sw	a4,120(sp)
    2e4c:	dabe                	sw	a5,116(sp)
    2e4e:	d8c2                	sw	a6,112(sp)
    2e50:	d6c6                	sw	a7,108(sp)
    2e52:	d4f2                	sw	t3,104(sp)
    2e54:	d2f6                	sw	t4,100(sp)
    2e56:	d0fa                	sw	t5,96(sp)
    2e58:	cefe                	sw	t6,92(sp)
    2e5a:	e682                	fsw	ft0,76(sp)
    2e5c:	e486                	fsw	ft1,72(sp)
    2e5e:	e28a                	fsw	ft2,68(sp)
    2e60:	e08e                	fsw	ft3,64(sp)
    2e62:	fe12                	fsw	ft4,60(sp)
    2e64:	fc16                	fsw	ft5,56(sp)
    2e66:	fa1a                	fsw	ft6,52(sp)
    2e68:	f81e                	fsw	ft7,48(sp)
    2e6a:	f62a                	fsw	fa0,44(sp)
    2e6c:	f42e                	fsw	fa1,40(sp)
    2e6e:	f232                	fsw	fa2,36(sp)
    2e70:	f036                	fsw	fa3,32(sp)
    2e72:	ee3a                	fsw	fa4,28(sp)
    2e74:	ec3e                	fsw	fa5,24(sp)
    2e76:	ea42                	fsw	fa6,20(sp)
    2e78:	e846                	fsw	fa7,16(sp)
    2e7a:	e672                	fsw	ft8,12(sp)
    2e7c:	e476                	fsw	ft9,8(sp)
    2e7e:	e27a                	fsw	ft10,4(sp)
    2e80:	e07e                	fsw	ft11,0(sp)
    2e82:	1100                	addi	s0,sp,160
E:/wch307/CHV307_Library-master/Example/E02_uart_demo/user/src/isr.c:310
    if(TIM_GetITStatus(TIM5, TIM_IT_Update) != RESET)
    2e84:	4585                	li	a1,1
    2e86:	400017b7          	lui	a5,0x40001
    2e8a:	c0078513          	addi	a0,a5,-1024 # 40000c00 <_eusrstack+0x1fff0c00>
    2e8e:	48b000ef          	jal	ra,3b18 <TIM_GetITStatus>
    2e92:	87aa                	mv	a5,a0
    2e94:	cb81                	beqz	a5,2ea4 <TIM5_IRQHandler+0x6e>
E:/wch307/CHV307_Library-master/Example/E02_uart_demo/user/src/isr.c:312
    {
       TIM_ClearITPendingBit(TIM5, TIM_IT_Update );
    2e96:	4585                	li	a1,1
    2e98:	400017b7          	lui	a5,0x40001
    2e9c:	c0078513          	addi	a0,a5,-1024 # 40000c00 <_eusrstack+0x1fff0c00>
    2ea0:	4e9000ef          	jal	ra,3b88 <TIM_ClearITPendingBit>
E:/wch307/CHV307_Library-master/Example/E02_uart_demo/user/src/isr.c:316


    }
}
    2ea4:	0001                	nop
    2ea6:	40fa                	lw	ra,156(sp)
    2ea8:	42ea                	lw	t0,152(sp)
    2eaa:	435a                	lw	t1,148(sp)
    2eac:	43ca                	lw	t2,144(sp)
    2eae:	443a                	lw	s0,140(sp)
    2eb0:	452a                	lw	a0,136(sp)
    2eb2:	459a                	lw	a1,132(sp)
    2eb4:	460a                	lw	a2,128(sp)
    2eb6:	56f6                	lw	a3,124(sp)
    2eb8:	5766                	lw	a4,120(sp)
    2eba:	57d6                	lw	a5,116(sp)
    2ebc:	5846                	lw	a6,112(sp)
    2ebe:	58b6                	lw	a7,108(sp)
    2ec0:	5e26                	lw	t3,104(sp)
    2ec2:	5e96                	lw	t4,100(sp)
    2ec4:	5f06                	lw	t5,96(sp)
    2ec6:	4ff6                	lw	t6,92(sp)
    2ec8:	6036                	flw	ft0,76(sp)
    2eca:	60a6                	flw	ft1,72(sp)
    2ecc:	6116                	flw	ft2,68(sp)
    2ece:	6186                	flw	ft3,64(sp)
    2ed0:	7272                	flw	ft4,60(sp)
    2ed2:	72e2                	flw	ft5,56(sp)
    2ed4:	7352                	flw	ft6,52(sp)
    2ed6:	73c2                	flw	ft7,48(sp)
    2ed8:	7532                	flw	fa0,44(sp)
    2eda:	75a2                	flw	fa1,40(sp)
    2edc:	7612                	flw	fa2,36(sp)
    2ede:	7682                	flw	fa3,32(sp)
    2ee0:	6772                	flw	fa4,28(sp)
    2ee2:	67e2                	flw	fa5,24(sp)
    2ee4:	6852                	flw	fa6,20(sp)
    2ee6:	68c2                	flw	fa7,16(sp)
    2ee8:	6e32                	flw	ft8,12(sp)
    2eea:	6ea2                	flw	ft9,8(sp)
    2eec:	6f12                	flw	ft10,4(sp)
    2eee:	6f82                	flw	ft11,0(sp)
    2ef0:	610d                	addi	sp,sp,160
    2ef2:	30200073          	mret

00002ef6 <TIM6_IRQHandler>:
TIM6_IRQHandler():
E:/wch307/CHV307_Library-master/Example/E02_uart_demo/user/src/isr.c:319

void TIM6_IRQHandler(void)
{
    2ef6:	7135                	addi	sp,sp,-160
    2ef8:	cf06                	sw	ra,156(sp)
    2efa:	cd16                	sw	t0,152(sp)
    2efc:	cb1a                	sw	t1,148(sp)
    2efe:	c91e                	sw	t2,144(sp)
    2f00:	c722                	sw	s0,140(sp)
    2f02:	c52a                	sw	a0,136(sp)
    2f04:	c32e                	sw	a1,132(sp)
    2f06:	c132                	sw	a2,128(sp)
    2f08:	deb6                	sw	a3,124(sp)
    2f0a:	dcba                	sw	a4,120(sp)
    2f0c:	dabe                	sw	a5,116(sp)
    2f0e:	d8c2                	sw	a6,112(sp)
    2f10:	d6c6                	sw	a7,108(sp)
    2f12:	d4f2                	sw	t3,104(sp)
    2f14:	d2f6                	sw	t4,100(sp)
    2f16:	d0fa                	sw	t5,96(sp)
    2f18:	cefe                	sw	t6,92(sp)
    2f1a:	e682                	fsw	ft0,76(sp)
    2f1c:	e486                	fsw	ft1,72(sp)
    2f1e:	e28a                	fsw	ft2,68(sp)
    2f20:	e08e                	fsw	ft3,64(sp)
    2f22:	fe12                	fsw	ft4,60(sp)
    2f24:	fc16                	fsw	ft5,56(sp)
    2f26:	fa1a                	fsw	ft6,52(sp)
    2f28:	f81e                	fsw	ft7,48(sp)
    2f2a:	f62a                	fsw	fa0,44(sp)
    2f2c:	f42e                	fsw	fa1,40(sp)
    2f2e:	f232                	fsw	fa2,36(sp)
    2f30:	f036                	fsw	fa3,32(sp)
    2f32:	ee3a                	fsw	fa4,28(sp)
    2f34:	ec3e                	fsw	fa5,24(sp)
    2f36:	ea42                	fsw	fa6,20(sp)
    2f38:	e846                	fsw	fa7,16(sp)
    2f3a:	e672                	fsw	ft8,12(sp)
    2f3c:	e476                	fsw	ft9,8(sp)
    2f3e:	e27a                	fsw	ft10,4(sp)
    2f40:	e07e                	fsw	ft11,0(sp)
    2f42:	1100                	addi	s0,sp,160
E:/wch307/CHV307_Library-master/Example/E02_uart_demo/user/src/isr.c:320
    if(TIM_GetITStatus(TIM6, TIM_IT_Update) != RESET)
    2f44:	4585                	li	a1,1
    2f46:	40001537          	lui	a0,0x40001
    2f4a:	3cf000ef          	jal	ra,3b18 <TIM_GetITStatus>
    2f4e:	87aa                	mv	a5,a0
    2f50:	c791                	beqz	a5,2f5c <TIM6_IRQHandler+0x66>
E:/wch307/CHV307_Library-master/Example/E02_uart_demo/user/src/isr.c:322
    {
       TIM_ClearITPendingBit(TIM6, TIM_IT_Update );
    2f52:	4585                	li	a1,1
    2f54:	40001537          	lui	a0,0x40001
    2f58:	431000ef          	jal	ra,3b88 <TIM_ClearITPendingBit>
E:/wch307/CHV307_Library-master/Example/E02_uart_demo/user/src/isr.c:326


    }
}
    2f5c:	0001                	nop
    2f5e:	40fa                	lw	ra,156(sp)
    2f60:	42ea                	lw	t0,152(sp)
    2f62:	435a                	lw	t1,148(sp)
    2f64:	43ca                	lw	t2,144(sp)
    2f66:	443a                	lw	s0,140(sp)
    2f68:	452a                	lw	a0,136(sp)
    2f6a:	459a                	lw	a1,132(sp)
    2f6c:	460a                	lw	a2,128(sp)
    2f6e:	56f6                	lw	a3,124(sp)
    2f70:	5766                	lw	a4,120(sp)
    2f72:	57d6                	lw	a5,116(sp)
    2f74:	5846                	lw	a6,112(sp)
    2f76:	58b6                	lw	a7,108(sp)
    2f78:	5e26                	lw	t3,104(sp)
    2f7a:	5e96                	lw	t4,100(sp)
    2f7c:	5f06                	lw	t5,96(sp)
    2f7e:	4ff6                	lw	t6,92(sp)
    2f80:	6036                	flw	ft0,76(sp)
    2f82:	60a6                	flw	ft1,72(sp)
    2f84:	6116                	flw	ft2,68(sp)
    2f86:	6186                	flw	ft3,64(sp)
    2f88:	7272                	flw	ft4,60(sp)
    2f8a:	72e2                	flw	ft5,56(sp)
    2f8c:	7352                	flw	ft6,52(sp)
    2f8e:	73c2                	flw	ft7,48(sp)
    2f90:	7532                	flw	fa0,44(sp)
    2f92:	75a2                	flw	fa1,40(sp)
    2f94:	7612                	flw	fa2,36(sp)
    2f96:	7682                	flw	fa3,32(sp)
    2f98:	6772                	flw	fa4,28(sp)
    2f9a:	67e2                	flw	fa5,24(sp)
    2f9c:	6852                	flw	fa6,20(sp)
    2f9e:	68c2                	flw	fa7,16(sp)
    2fa0:	6e32                	flw	ft8,12(sp)
    2fa2:	6ea2                	flw	ft9,8(sp)
    2fa4:	6f12                	flw	ft10,4(sp)
    2fa6:	6f82                	flw	ft11,0(sp)
    2fa8:	610d                	addi	sp,sp,160
    2faa:	30200073          	mret

00002fae <TIM7_IRQHandler>:
TIM7_IRQHandler():
E:/wch307/CHV307_Library-master/Example/E02_uart_demo/user/src/isr.c:329

void TIM7_IRQHandler(void)
{
    2fae:	7135                	addi	sp,sp,-160
    2fb0:	cf06                	sw	ra,156(sp)
    2fb2:	cd16                	sw	t0,152(sp)
    2fb4:	cb1a                	sw	t1,148(sp)
    2fb6:	c91e                	sw	t2,144(sp)
    2fb8:	c722                	sw	s0,140(sp)
    2fba:	c52a                	sw	a0,136(sp)
    2fbc:	c32e                	sw	a1,132(sp)
    2fbe:	c132                	sw	a2,128(sp)
    2fc0:	deb6                	sw	a3,124(sp)
    2fc2:	dcba                	sw	a4,120(sp)
    2fc4:	dabe                	sw	a5,116(sp)
    2fc6:	d8c2                	sw	a6,112(sp)
    2fc8:	d6c6                	sw	a7,108(sp)
    2fca:	d4f2                	sw	t3,104(sp)
    2fcc:	d2f6                	sw	t4,100(sp)
    2fce:	d0fa                	sw	t5,96(sp)
    2fd0:	cefe                	sw	t6,92(sp)
    2fd2:	e682                	fsw	ft0,76(sp)
    2fd4:	e486                	fsw	ft1,72(sp)
    2fd6:	e28a                	fsw	ft2,68(sp)
    2fd8:	e08e                	fsw	ft3,64(sp)
    2fda:	fe12                	fsw	ft4,60(sp)
    2fdc:	fc16                	fsw	ft5,56(sp)
    2fde:	fa1a                	fsw	ft6,52(sp)
    2fe0:	f81e                	fsw	ft7,48(sp)
    2fe2:	f62a                	fsw	fa0,44(sp)
    2fe4:	f42e                	fsw	fa1,40(sp)
    2fe6:	f232                	fsw	fa2,36(sp)
    2fe8:	f036                	fsw	fa3,32(sp)
    2fea:	ee3a                	fsw	fa4,28(sp)
    2fec:	ec3e                	fsw	fa5,24(sp)
    2fee:	ea42                	fsw	fa6,20(sp)
    2ff0:	e846                	fsw	fa7,16(sp)
    2ff2:	e672                	fsw	ft8,12(sp)
    2ff4:	e476                	fsw	ft9,8(sp)
    2ff6:	e27a                	fsw	ft10,4(sp)
    2ff8:	e07e                	fsw	ft11,0(sp)
    2ffa:	1100                	addi	s0,sp,160
E:/wch307/CHV307_Library-master/Example/E02_uart_demo/user/src/isr.c:330
    if(TIM_GetITStatus(TIM7, TIM_IT_Update) != RESET)
    2ffc:	4585                	li	a1,1
    2ffe:	400017b7          	lui	a5,0x40001
    3002:	40078513          	addi	a0,a5,1024 # 40001400 <_eusrstack+0x1fff1400>
    3006:	313000ef          	jal	ra,3b18 <TIM_GetITStatus>
    300a:	87aa                	mv	a5,a0
    300c:	cb81                	beqz	a5,301c <TIM7_IRQHandler+0x6e>
E:/wch307/CHV307_Library-master/Example/E02_uart_demo/user/src/isr.c:332
    {
       TIM_ClearITPendingBit(TIM7, TIM_IT_Update );
    300e:	4585                	li	a1,1
    3010:	400017b7          	lui	a5,0x40001
    3014:	40078513          	addi	a0,a5,1024 # 40001400 <_eusrstack+0x1fff1400>
    3018:	371000ef          	jal	ra,3b88 <TIM_ClearITPendingBit>
E:/wch307/CHV307_Library-master/Example/E02_uart_demo/user/src/isr.c:336


    }
}
    301c:	0001                	nop
    301e:	40fa                	lw	ra,156(sp)
    3020:	42ea                	lw	t0,152(sp)
    3022:	435a                	lw	t1,148(sp)
    3024:	43ca                	lw	t2,144(sp)
    3026:	443a                	lw	s0,140(sp)
    3028:	452a                	lw	a0,136(sp)
    302a:	459a                	lw	a1,132(sp)
    302c:	460a                	lw	a2,128(sp)
    302e:	56f6                	lw	a3,124(sp)
    3030:	5766                	lw	a4,120(sp)
    3032:	57d6                	lw	a5,116(sp)
    3034:	5846                	lw	a6,112(sp)
    3036:	58b6                	lw	a7,108(sp)
    3038:	5e26                	lw	t3,104(sp)
    303a:	5e96                	lw	t4,100(sp)
    303c:	5f06                	lw	t5,96(sp)
    303e:	4ff6                	lw	t6,92(sp)
    3040:	6036                	flw	ft0,76(sp)
    3042:	60a6                	flw	ft1,72(sp)
    3044:	6116                	flw	ft2,68(sp)
    3046:	6186                	flw	ft3,64(sp)
    3048:	7272                	flw	ft4,60(sp)
    304a:	72e2                	flw	ft5,56(sp)
    304c:	7352                	flw	ft6,52(sp)
    304e:	73c2                	flw	ft7,48(sp)
    3050:	7532                	flw	fa0,44(sp)
    3052:	75a2                	flw	fa1,40(sp)
    3054:	7612                	flw	fa2,36(sp)
    3056:	7682                	flw	fa3,32(sp)
    3058:	6772                	flw	fa4,28(sp)
    305a:	67e2                	flw	fa5,24(sp)
    305c:	6852                	flw	fa6,20(sp)
    305e:	68c2                	flw	fa7,16(sp)
    3060:	6e32                	flw	ft8,12(sp)
    3062:	6ea2                	flw	ft9,8(sp)
    3064:	6f12                	flw	ft10,4(sp)
    3066:	6f82                	flw	ft11,0(sp)
    3068:	610d                	addi	sp,sp,160
    306a:	30200073          	mret

0000306e <TIM8_UP_IRQHandler>:
TIM8_UP_IRQHandler():
E:/wch307/CHV307_Library-master/Example/E02_uart_demo/user/src/isr.c:340


void TIM8_UP_IRQHandler(void)
{
    306e:	7135                	addi	sp,sp,-160
    3070:	cf06                	sw	ra,156(sp)
    3072:	cd16                	sw	t0,152(sp)
    3074:	cb1a                	sw	t1,148(sp)
    3076:	c91e                	sw	t2,144(sp)
    3078:	c722                	sw	s0,140(sp)
    307a:	c52a                	sw	a0,136(sp)
    307c:	c32e                	sw	a1,132(sp)
    307e:	c132                	sw	a2,128(sp)
    3080:	deb6                	sw	a3,124(sp)
    3082:	dcba                	sw	a4,120(sp)
    3084:	dabe                	sw	a5,116(sp)
    3086:	d8c2                	sw	a6,112(sp)
    3088:	d6c6                	sw	a7,108(sp)
    308a:	d4f2                	sw	t3,104(sp)
    308c:	d2f6                	sw	t4,100(sp)
    308e:	d0fa                	sw	t5,96(sp)
    3090:	cefe                	sw	t6,92(sp)
    3092:	e682                	fsw	ft0,76(sp)
    3094:	e486                	fsw	ft1,72(sp)
    3096:	e28a                	fsw	ft2,68(sp)
    3098:	e08e                	fsw	ft3,64(sp)
    309a:	fe12                	fsw	ft4,60(sp)
    309c:	fc16                	fsw	ft5,56(sp)
    309e:	fa1a                	fsw	ft6,52(sp)
    30a0:	f81e                	fsw	ft7,48(sp)
    30a2:	f62a                	fsw	fa0,44(sp)
    30a4:	f42e                	fsw	fa1,40(sp)
    30a6:	f232                	fsw	fa2,36(sp)
    30a8:	f036                	fsw	fa3,32(sp)
    30aa:	ee3a                	fsw	fa4,28(sp)
    30ac:	ec3e                	fsw	fa5,24(sp)
    30ae:	ea42                	fsw	fa6,20(sp)
    30b0:	e846                	fsw	fa7,16(sp)
    30b2:	e672                	fsw	ft8,12(sp)
    30b4:	e476                	fsw	ft9,8(sp)
    30b6:	e27a                	fsw	ft10,4(sp)
    30b8:	e07e                	fsw	ft11,0(sp)
    30ba:	1100                	addi	s0,sp,160
E:/wch307/CHV307_Library-master/Example/E02_uart_demo/user/src/isr.c:341
    if(TIM_GetITStatus(TIM8, TIM_IT_Update) != RESET)
    30bc:	4585                	li	a1,1
    30be:	400137b7          	lui	a5,0x40013
    30c2:	40078513          	addi	a0,a5,1024 # 40013400 <_eusrstack+0x20003400>
    30c6:	253000ef          	jal	ra,3b18 <TIM_GetITStatus>
    30ca:	87aa                	mv	a5,a0
    30cc:	cb81                	beqz	a5,30dc <TIM8_UP_IRQHandler+0x6e>
E:/wch307/CHV307_Library-master/Example/E02_uart_demo/user/src/isr.c:343
    {
        TIM_ClearITPendingBit(TIM8, TIM_IT_Update);
    30ce:	4585                	li	a1,1
    30d0:	400137b7          	lui	a5,0x40013
    30d4:	40078513          	addi	a0,a5,1024 # 40013400 <_eusrstack+0x20003400>
    30d8:	2b1000ef          	jal	ra,3b88 <TIM_ClearITPendingBit>
E:/wch307/CHV307_Library-master/Example/E02_uart_demo/user/src/isr.c:346

    }
}
    30dc:	0001                	nop
    30de:	40fa                	lw	ra,156(sp)
    30e0:	42ea                	lw	t0,152(sp)
    30e2:	435a                	lw	t1,148(sp)
    30e4:	43ca                	lw	t2,144(sp)
    30e6:	443a                	lw	s0,140(sp)
    30e8:	452a                	lw	a0,136(sp)
    30ea:	459a                	lw	a1,132(sp)
    30ec:	460a                	lw	a2,128(sp)
    30ee:	56f6                	lw	a3,124(sp)
    30f0:	5766                	lw	a4,120(sp)
    30f2:	57d6                	lw	a5,116(sp)
    30f4:	5846                	lw	a6,112(sp)
    30f6:	58b6                	lw	a7,108(sp)
    30f8:	5e26                	lw	t3,104(sp)
    30fa:	5e96                	lw	t4,100(sp)
    30fc:	5f06                	lw	t5,96(sp)
    30fe:	4ff6                	lw	t6,92(sp)
    3100:	6036                	flw	ft0,76(sp)
    3102:	60a6                	flw	ft1,72(sp)
    3104:	6116                	flw	ft2,68(sp)
    3106:	6186                	flw	ft3,64(sp)
    3108:	7272                	flw	ft4,60(sp)
    310a:	72e2                	flw	ft5,56(sp)
    310c:	7352                	flw	ft6,52(sp)
    310e:	73c2                	flw	ft7,48(sp)
    3110:	7532                	flw	fa0,44(sp)
    3112:	75a2                	flw	fa1,40(sp)
    3114:	7612                	flw	fa2,36(sp)
    3116:	7682                	flw	fa3,32(sp)
    3118:	6772                	flw	fa4,28(sp)
    311a:	67e2                	flw	fa5,24(sp)
    311c:	6852                	flw	fa6,20(sp)
    311e:	68c2                	flw	fa7,16(sp)
    3120:	6e32                	flw	ft8,12(sp)
    3122:	6ea2                	flw	ft9,8(sp)
    3124:	6f12                	flw	ft10,4(sp)
    3126:	6f82                	flw	ft11,0(sp)
    3128:	610d                	addi	sp,sp,160
    312a:	30200073          	mret

0000312e <TIM9_UP_IRQHandler>:
TIM9_UP_IRQHandler():
E:/wch307/CHV307_Library-master/Example/E02_uart_demo/user/src/isr.c:350


void TIM9_UP_IRQHandler(void)
{
    312e:	7135                	addi	sp,sp,-160
    3130:	cf06                	sw	ra,156(sp)
    3132:	cd16                	sw	t0,152(sp)
    3134:	cb1a                	sw	t1,148(sp)
    3136:	c91e                	sw	t2,144(sp)
    3138:	c722                	sw	s0,140(sp)
    313a:	c52a                	sw	a0,136(sp)
    313c:	c32e                	sw	a1,132(sp)
    313e:	c132                	sw	a2,128(sp)
    3140:	deb6                	sw	a3,124(sp)
    3142:	dcba                	sw	a4,120(sp)
    3144:	dabe                	sw	a5,116(sp)
    3146:	d8c2                	sw	a6,112(sp)
    3148:	d6c6                	sw	a7,108(sp)
    314a:	d4f2                	sw	t3,104(sp)
    314c:	d2f6                	sw	t4,100(sp)
    314e:	d0fa                	sw	t5,96(sp)
    3150:	cefe                	sw	t6,92(sp)
    3152:	e682                	fsw	ft0,76(sp)
    3154:	e486                	fsw	ft1,72(sp)
    3156:	e28a                	fsw	ft2,68(sp)
    3158:	e08e                	fsw	ft3,64(sp)
    315a:	fe12                	fsw	ft4,60(sp)
    315c:	fc16                	fsw	ft5,56(sp)
    315e:	fa1a                	fsw	ft6,52(sp)
    3160:	f81e                	fsw	ft7,48(sp)
    3162:	f62a                	fsw	fa0,44(sp)
    3164:	f42e                	fsw	fa1,40(sp)
    3166:	f232                	fsw	fa2,36(sp)
    3168:	f036                	fsw	fa3,32(sp)
    316a:	ee3a                	fsw	fa4,28(sp)
    316c:	ec3e                	fsw	fa5,24(sp)
    316e:	ea42                	fsw	fa6,20(sp)
    3170:	e846                	fsw	fa7,16(sp)
    3172:	e672                	fsw	ft8,12(sp)
    3174:	e476                	fsw	ft9,8(sp)
    3176:	e27a                	fsw	ft10,4(sp)
    3178:	e07e                	fsw	ft11,0(sp)
    317a:	1100                	addi	s0,sp,160
E:/wch307/CHV307_Library-master/Example/E02_uart_demo/user/src/isr.c:351
    if(TIM_GetITStatus(TIM9, TIM_IT_Update) != RESET)
    317c:	4585                	li	a1,1
    317e:	400157b7          	lui	a5,0x40015
    3182:	c0078513          	addi	a0,a5,-1024 # 40014c00 <_eusrstack+0x20004c00>
    3186:	193000ef          	jal	ra,3b18 <TIM_GetITStatus>
    318a:	87aa                	mv	a5,a0
    318c:	cb81                	beqz	a5,319c <TIM9_UP_IRQHandler+0x6e>
E:/wch307/CHV307_Library-master/Example/E02_uart_demo/user/src/isr.c:353
    {
        TIM_ClearITPendingBit(TIM9, TIM_IT_Update);
    318e:	4585                	li	a1,1
    3190:	400157b7          	lui	a5,0x40015
    3194:	c0078513          	addi	a0,a5,-1024 # 40014c00 <_eusrstack+0x20004c00>
    3198:	1f1000ef          	jal	ra,3b88 <TIM_ClearITPendingBit>
E:/wch307/CHV307_Library-master/Example/E02_uart_demo/user/src/isr.c:356

    }
}
    319c:	0001                	nop
    319e:	40fa                	lw	ra,156(sp)
    31a0:	42ea                	lw	t0,152(sp)
    31a2:	435a                	lw	t1,148(sp)
    31a4:	43ca                	lw	t2,144(sp)
    31a6:	443a                	lw	s0,140(sp)
    31a8:	452a                	lw	a0,136(sp)
    31aa:	459a                	lw	a1,132(sp)
    31ac:	460a                	lw	a2,128(sp)
    31ae:	56f6                	lw	a3,124(sp)
    31b0:	5766                	lw	a4,120(sp)
    31b2:	57d6                	lw	a5,116(sp)
    31b4:	5846                	lw	a6,112(sp)
    31b6:	58b6                	lw	a7,108(sp)
    31b8:	5e26                	lw	t3,104(sp)
    31ba:	5e96                	lw	t4,100(sp)
    31bc:	5f06                	lw	t5,96(sp)
    31be:	4ff6                	lw	t6,92(sp)
    31c0:	6036                	flw	ft0,76(sp)
    31c2:	60a6                	flw	ft1,72(sp)
    31c4:	6116                	flw	ft2,68(sp)
    31c6:	6186                	flw	ft3,64(sp)
    31c8:	7272                	flw	ft4,60(sp)
    31ca:	72e2                	flw	ft5,56(sp)
    31cc:	7352                	flw	ft6,52(sp)
    31ce:	73c2                	flw	ft7,48(sp)
    31d0:	7532                	flw	fa0,44(sp)
    31d2:	75a2                	flw	fa1,40(sp)
    31d4:	7612                	flw	fa2,36(sp)
    31d6:	7682                	flw	fa3,32(sp)
    31d8:	6772                	flw	fa4,28(sp)
    31da:	67e2                	flw	fa5,24(sp)
    31dc:	6852                	flw	fa6,20(sp)
    31de:	68c2                	flw	fa7,16(sp)
    31e0:	6e32                	flw	ft8,12(sp)
    31e2:	6ea2                	flw	ft9,8(sp)
    31e4:	6f12                	flw	ft10,4(sp)
    31e6:	6f82                	flw	ft11,0(sp)
    31e8:	610d                	addi	sp,sp,160
    31ea:	30200073          	mret

000031ee <TIM10_UP_IRQHandler>:
TIM10_UP_IRQHandler():
E:/wch307/CHV307_Library-master/Example/E02_uart_demo/user/src/isr.c:360


void TIM10_UP_IRQHandler(void)
{
    31ee:	7135                	addi	sp,sp,-160
    31f0:	cf06                	sw	ra,156(sp)
    31f2:	cd16                	sw	t0,152(sp)
    31f4:	cb1a                	sw	t1,148(sp)
    31f6:	c91e                	sw	t2,144(sp)
    31f8:	c722                	sw	s0,140(sp)
    31fa:	c52a                	sw	a0,136(sp)
    31fc:	c32e                	sw	a1,132(sp)
    31fe:	c132                	sw	a2,128(sp)
    3200:	deb6                	sw	a3,124(sp)
    3202:	dcba                	sw	a4,120(sp)
    3204:	dabe                	sw	a5,116(sp)
    3206:	d8c2                	sw	a6,112(sp)
    3208:	d6c6                	sw	a7,108(sp)
    320a:	d4f2                	sw	t3,104(sp)
    320c:	d2f6                	sw	t4,100(sp)
    320e:	d0fa                	sw	t5,96(sp)
    3210:	cefe                	sw	t6,92(sp)
    3212:	e682                	fsw	ft0,76(sp)
    3214:	e486                	fsw	ft1,72(sp)
    3216:	e28a                	fsw	ft2,68(sp)
    3218:	e08e                	fsw	ft3,64(sp)
    321a:	fe12                	fsw	ft4,60(sp)
    321c:	fc16                	fsw	ft5,56(sp)
    321e:	fa1a                	fsw	ft6,52(sp)
    3220:	f81e                	fsw	ft7,48(sp)
    3222:	f62a                	fsw	fa0,44(sp)
    3224:	f42e                	fsw	fa1,40(sp)
    3226:	f232                	fsw	fa2,36(sp)
    3228:	f036                	fsw	fa3,32(sp)
    322a:	ee3a                	fsw	fa4,28(sp)
    322c:	ec3e                	fsw	fa5,24(sp)
    322e:	ea42                	fsw	fa6,20(sp)
    3230:	e846                	fsw	fa7,16(sp)
    3232:	e672                	fsw	ft8,12(sp)
    3234:	e476                	fsw	ft9,8(sp)
    3236:	e27a                	fsw	ft10,4(sp)
    3238:	e07e                	fsw	ft11,0(sp)
    323a:	1100                	addi	s0,sp,160
E:/wch307/CHV307_Library-master/Example/E02_uart_demo/user/src/isr.c:361
    if(TIM_GetITStatus(TIM10, TIM_IT_Update) != RESET)
    323c:	4585                	li	a1,1
    323e:	40015537          	lui	a0,0x40015
    3242:	0d7000ef          	jal	ra,3b18 <TIM_GetITStatus>
    3246:	87aa                	mv	a5,a0
    3248:	c791                	beqz	a5,3254 <TIM10_UP_IRQHandler+0x66>
E:/wch307/CHV307_Library-master/Example/E02_uart_demo/user/src/isr.c:363
    {
        TIM_ClearITPendingBit(TIM10, TIM_IT_Update);
    324a:	4585                	li	a1,1
    324c:	40015537          	lui	a0,0x40015
    3250:	139000ef          	jal	ra,3b88 <TIM_ClearITPendingBit>
E:/wch307/CHV307_Library-master/Example/E02_uart_demo/user/src/isr.c:366

    }
}
    3254:	0001                	nop
    3256:	40fa                	lw	ra,156(sp)
    3258:	42ea                	lw	t0,152(sp)
    325a:	435a                	lw	t1,148(sp)
    325c:	43ca                	lw	t2,144(sp)
    325e:	443a                	lw	s0,140(sp)
    3260:	452a                	lw	a0,136(sp)
    3262:	459a                	lw	a1,132(sp)
    3264:	460a                	lw	a2,128(sp)
    3266:	56f6                	lw	a3,124(sp)
    3268:	5766                	lw	a4,120(sp)
    326a:	57d6                	lw	a5,116(sp)
    326c:	5846                	lw	a6,112(sp)
    326e:	58b6                	lw	a7,108(sp)
    3270:	5e26                	lw	t3,104(sp)
    3272:	5e96                	lw	t4,100(sp)
    3274:	5f06                	lw	t5,96(sp)
    3276:	4ff6                	lw	t6,92(sp)
    3278:	6036                	flw	ft0,76(sp)
    327a:	60a6                	flw	ft1,72(sp)
    327c:	6116                	flw	ft2,68(sp)
    327e:	6186                	flw	ft3,64(sp)
    3280:	7272                	flw	ft4,60(sp)
    3282:	72e2                	flw	ft5,56(sp)
    3284:	7352                	flw	ft6,52(sp)
    3286:	73c2                	flw	ft7,48(sp)
    3288:	7532                	flw	fa0,44(sp)
    328a:	75a2                	flw	fa1,40(sp)
    328c:	7612                	flw	fa2,36(sp)
    328e:	7682                	flw	fa3,32(sp)
    3290:	6772                	flw	fa4,28(sp)
    3292:	67e2                	flw	fa5,24(sp)
    3294:	6852                	flw	fa6,20(sp)
    3296:	68c2                	flw	fa7,16(sp)
    3298:	6e32                	flw	ft8,12(sp)
    329a:	6ea2                	flw	ft9,8(sp)
    329c:	6f12                	flw	ft10,4(sp)
    329e:	6f82                	flw	ft11,0(sp)
    32a0:	610d                	addi	sp,sp,160
    32a2:	30200073          	mret

000032a6 <NMI_Handler>:
NMI_Handler():
E:/wch307/CHV307_Library-master/Example/E02_uart_demo/user/src/isr.c:462
* Description    : This function handles NMI exception.
* Input          : None
* Return         : None
*******************************************************************************/
void NMI_Handler(void)
{
    32a6:	1141                	addi	sp,sp,-16
    32a8:	c622                	sw	s0,12(sp)
    32aa:	0800                	addi	s0,sp,16
E:/wch307/CHV307_Library-master/Example/E02_uart_demo/user/src/isr.c:463
}
    32ac:	0001                	nop
    32ae:	4432                	lw	s0,12(sp)
    32b0:	0141                	addi	sp,sp,16
    32b2:	30200073          	mret

000032b6 <HardFault_Handler>:
HardFault_Handler():
E:/wch307/CHV307_Library-master/Example/E02_uart_demo/user/src/isr.c:472
* Description    : This function handles Hard Fault exception.
* Input          : None
* Return         : None
*******************************************************************************/
void HardFault_Handler(void)
{
    32b6:	1141                	addi	sp,sp,-16
    32b8:	c622                	sw	s0,12(sp)
    32ba:	0800                	addi	s0,sp,16
E:/wch307/CHV307_Library-master/Example/E02_uart_demo/user/src/isr.c:473 (discriminator 1)
  while (1)
    32bc:	a001                	j	32bc <HardFault_Handler+0x6>

000032be <main>:
main():
E:/wch307/CHV307_Library-master/Example/E02_uart_demo/user/src/main.c:83
fifo_struct uart_data_fifo;



int main(void)
{
    32be:	1141                	addi	sp,sp,-16
    32c0:	c606                	sw	ra,12(sp)
    32c2:	c422                	sw	s0,8(sp)
    32c4:	0800                	addi	s0,sp,16
E:/wch307/CHV307_Library-master/Example/E02_uart_demo/user/src/main.c:84
    clock_init(SYSTEM_CLOCK_144M);      // 务必保留，设置系统时钟。
    32c6:	089547b7          	lui	a5,0x8954
    32ca:	40078513          	addi	a0,a5,1024 # 8954400 <_data_lma+0x894902c>
    32ce:	c47fd0ef          	jal	ra,f14 <clock_init>
E:/wch307/CHV307_Library-master/Example/E02_uart_demo/user/src/main.c:89

    //debug_init();                       // 务必保留，本函数用于初始化MPU 时钟 调试串口

    // 此处编写用户代码 例如外设初始化代码等
    fifo_init(&uart_data_fifo, FIFO_DATA_8BIT, uart_get_data, 64);              // 初始化 fifo 挂载缓冲区
    32d2:	04000693          	li	a3,64
    32d6:	88818613          	addi	a2,gp,-1912 # 200002c0 <uart_get_data>
    32da:	4581                	li	a1,0
    32dc:	90818513          	addi	a0,gp,-1784 # 20000340 <uart_data_fifo>
    32e0:	97ffe0ef          	jal	ra,1c5e <fifo_init>
E:/wch307/CHV307_Library-master/Example/E02_uart_demo/user/src/main.c:91

    uart_init(UART_INDEX, UART_BAUDRATE, UART_TX_PIN, UART_RX_PIN);             // 初始化编码器模块与引脚 正交解码编码器模式
    32e4:	6789                	lui	a5,0x2
    32e6:	02b78693          	addi	a3,a5,43 # 202b <USART3_IRQHandler+0x25>
    32ea:	6789                	lui	a5,0x2
    32ec:	02a78613          	addi	a2,a5,42 # 202a <USART3_IRQHandler+0x24>
    32f0:	67f1                	lui	a5,0x1c
    32f2:	20078593          	addi	a1,a5,512 # 1c200 <_data_lma+0x10e2c>
    32f6:	4509                	li	a0,2
    32f8:	c14fd0ef          	jal	ra,70c <uart_init>
E:/wch307/CHV307_Library-master/Example/E02_uart_demo/user/src/main.c:92
    uart_rx_interrupt(UART_INDEX, ZF_ENABLE);                                   // 开启 UART_INDEX 的接收中断
    32fc:	4585                	li	a1,1
    32fe:	4509                	li	a0,2
    3300:	b2afd0ef          	jal	ra,62a <uart_rx_interrupt>
E:/wch307/CHV307_Library-master/Example/E02_uart_demo/user/src/main.c:93
    interrupt_set_priority(UART_PRIORITY, (0<<5) || 1);                         // 设置对应 UART_INDEX 的中断抢占优先级0，子优先级1
    3304:	4585                	li	a1,1
    3306:	03700513          	li	a0,55
    330a:	addfe0ef          	jal	ra,1de6 <interrupt_set_priority>
E:/wch307/CHV307_Library-master/Example/E02_uart_demo/user/src/main.c:95

    uart_write_string(UART_INDEX, "UART Text.");                                // 输出测试信息
    330e:	67ad                	lui	a5,0xb
    3310:	d4478593          	addi	a1,a5,-700 # ad44 <_sbrk+0x138>
    3314:	4509                	li	a0,2
    3316:	ab4fd0ef          	jal	ra,5ca <uart_write_string>
E:/wch307/CHV307_Library-master/Example/E02_uart_demo/user/src/main.c:96
    uart_write_byte(UART_INDEX, '\r');                                          // 输出回车
    331a:	45b5                	li	a1,13
    331c:	4509                	li	a0,2
    331e:	9f2fd0ef          	jal	ra,510 <uart_write_byte>
E:/wch307/CHV307_Library-master/Example/E02_uart_demo/user/src/main.c:97
    uart_write_byte(UART_INDEX, '\n');                                          // 输出换行
    3322:	45a9                	li	a1,10
    3324:	4509                	li	a0,2
    3326:	9eafd0ef          	jal	ra,510 <uart_write_byte>
E:/wch307/CHV307_Library-master/Example/E02_uart_demo/user/src/main.c:103
    // 此处编写用户代码 例如外设初始化代码等

    while(1)
    {
        // 此处编写需要循环执行的代码
        fifo_data_count = fifo_used(&uart_data_fifo);                           // 查看 fifo 是否有数据
    332a:	90818513          	addi	a0,gp,-1784 # 20000340 <uart_data_fifo>
    332e:	b26fe0ef          	jal	ra,1654 <fifo_used>
    3332:	872a                	mv	a4,a0
    3334:	84e1a223          	sw	a4,-1980(gp) # 2000027c <fifo_data_count>
E:/wch307/CHV307_Library-master/Example/E02_uart_demo/user/src/main.c:104
        if(fifo_data_count != 0)                                                // 读取到数据了
    3338:	8441a783          	lw	a5,-1980(gp) # 2000027c <fifo_data_count>
    333c:	cf95                	beqz	a5,3378 <main+0xba>
E:/wch307/CHV307_Library-master/Example/E02_uart_demo/user/src/main.c:106
        {
           fifo_read_buffer(&uart_data_fifo, fifo_get_data, &fifo_data_count, FIFO_READ_AND_CLEAN);    // 将 fifo 中数据读出并清空 fifo 挂载的缓冲
    333e:	4681                	li	a3,0
    3340:	84418613          	addi	a2,gp,-1980 # 2000027c <fifo_data_count>
    3344:	8c818593          	addi	a1,gp,-1848 # 20000300 <fifo_get_data>
    3348:	90818513          	addi	a0,gp,-1784 # 20000340 <uart_data_fifo>
    334c:	e3afe0ef          	jal	ra,1986 <fifo_read_buffer>
E:/wch307/CHV307_Library-master/Example/E02_uart_demo/user/src/main.c:107
           uart_write_string(UART_INDEX, "UART get data:");                     // 输出测试信息
    3350:	67ad                	lui	a5,0xb
    3352:	d5078593          	addi	a1,a5,-688 # ad50 <_sbrk+0x144>
    3356:	4509                	li	a0,2
    3358:	a72fd0ef          	jal	ra,5ca <uart_write_string>
E:/wch307/CHV307_Library-master/Example/E02_uart_demo/user/src/main.c:108
           uart_write_buffer(UART_INDEX, fifo_get_data, fifo_data_count);       // 将读取到的数据发送出去
    335c:	8441a783          	lw	a5,-1980(gp) # 2000027c <fifo_data_count>
    3360:	863e                	mv	a2,a5
    3362:	8c818593          	addi	a1,gp,-1848 # 20000300 <fifo_get_data>
    3366:	4509                	li	a0,2
    3368:	9fefd0ef          	jal	ra,566 <uart_write_buffer>
E:/wch307/CHV307_Library-master/Example/E02_uart_demo/user/src/main.c:109
           uart_write_string(UART_INDEX, "\r\n");                               // 输出测试信息
    336c:	67ad                	lui	a5,0xb
    336e:	d6078593          	addi	a1,a5,-672 # ad60 <_sbrk+0x154>
    3372:	4509                	li	a0,2
    3374:	a56fd0ef          	jal	ra,5ca <uart_write_string>
E:/wch307/CHV307_Library-master/Example/E02_uart_demo/user/src/main.c:111
        }
        system_delay_ms(10);
    3378:	4529                	li	a0,10
    337a:	f2ffc0ef          	jal	ra,2a8 <system_delay_ms>
E:/wch307/CHV307_Library-master/Example/E02_uart_demo/user/src/main.c:103
        fifo_data_count = fifo_used(&uart_data_fifo);                           // 查看 fifo 是否有数据
    337e:	b775                	j	332a <main+0x6c>

00003380 <uart_rx_interrupt_handler>:
uart_rx_interrupt_handler():
E:/wch307/CHV307_Library-master/Example/E02_uart_demo/user/src/main.c:125
// 参数说明     void
// 返回参数     void
// 使用示例     uart_rx_interrupt_handler();
//-------------------------------------------------------------------------------------------------------------------
void uart_rx_interrupt_handler (void)
{
    3380:	1141                	addi	sp,sp,-16
    3382:	c606                	sw	ra,12(sp)
    3384:	c422                	sw	s0,8(sp)
    3386:	0800                	addi	s0,sp,16
E:/wch307/CHV307_Library-master/Example/E02_uart_demo/user/src/main.c:127
//    get_data = uart_read_byte(UART_INDEX);                                      // 接收数据 while 等待式 不建议在中断使用
    uart_query_byte(UART_INDEX, &get_data);                                     // 接收数据 查询式 有数据会返回 TRUE 没有数据会返回 FALSE
    3388:	84018593          	addi	a1,gp,-1984 # 20000278 <get_data>
    338c:	4509                	li	a0,2
    338e:	b20fd0ef          	jal	ra,6ae <uart_query_byte>
E:/wch307/CHV307_Library-master/Example/E02_uart_demo/user/src/main.c:128
    fifo_write_buffer(&uart_data_fifo, &get_data, 1);                           // 将数据写入 fifo 中
    3392:	4605                	li	a2,1
    3394:	84018593          	addi	a1,gp,-1984 # 20000278 <get_data>
    3398:	90818513          	addi	a0,gp,-1784 # 20000340 <uart_data_fifo>
    339c:	afafe0ef          	jal	ra,1696 <fifo_write_buffer>
E:/wch307/CHV307_Library-master/Example/E02_uart_demo/user/src/main.c:129
}
    33a0:	0001                	nop
    33a2:	40b2                	lw	ra,12(sp)
    33a4:	4422                	lw	s0,8(sp)
    33a6:	0141                	addi	sp,sp,16
    33a8:	8082                	ret
E:/wch307/CHV307_Library-master/Example/libraries/sdk/Startup/startup_ch32v30x_D8C.S:238
    .weak   DMA2_Channel8_IRQHandler   /* DMA2 Channel 8 */
    .weak   DMA2_Channel9_IRQHandler   /* DMA2 Channel 9 */
    .weak   DMA2_Channel10_IRQHandler  /* DMA2 Channel 10 */
    .weak   DMA2_Channel11_IRQHandler  /* DMA2 Channel 11 */

NMI_Handler:  1:  j 1b
    33aa:	a001                	j	33aa <uart_rx_interrupt_handler+0x2a>
E:/wch307/CHV307_Library-master/Example/libraries/sdk/Startup/startup_ch32v30x_D8C.S:239
HardFault_Handler:  1:  j 1b
    33ac:	a001                	j	33ac <uart_rx_interrupt_handler+0x2c>

000033ae <Ecall_M_Mode_Handler>:
Ecall_M_Mode_Handler():
E:/wch307/CHV307_Library-master/Example/libraries/sdk/Startup/startup_ch32v30x_D8C.S:240
Ecall_M_Mode_Handler:  1:  j 1b
    33ae:	a001                	j	33ae <Ecall_M_Mode_Handler>

000033b0 <Ecall_U_Mode_Handler>:
Ecall_U_Mode_Handler():
E:/wch307/CHV307_Library-master/Example/libraries/sdk/Startup/startup_ch32v30x_D8C.S:241
Ecall_U_Mode_Handler:  1:  j 1b
    33b0:	a001                	j	33b0 <Ecall_U_Mode_Handler>

000033b2 <Break_Point_Handler>:
Break_Point_Handler():
E:/wch307/CHV307_Library-master/Example/libraries/sdk/Startup/startup_ch32v30x_D8C.S:242
Break_Point_Handler:  1:  j 1b
    33b2:	a001                	j	33b2 <Break_Point_Handler>

000033b4 <SysTick_Handler>:
SysTick_Handler():
E:/wch307/CHV307_Library-master/Example/libraries/sdk/Startup/startup_ch32v30x_D8C.S:243
SysTick_Handler:  1:  j 1b
    33b4:	a001                	j	33b4 <SysTick_Handler>

000033b6 <SW_Handler>:
SW_Handler():
E:/wch307/CHV307_Library-master/Example/libraries/sdk/Startup/startup_ch32v30x_D8C.S:244
SW_Handler:  1:  j 1b
    33b6:	a001                	j	33b6 <SW_Handler>

000033b8 <WWDG_IRQHandler>:
WWDG_IRQHandler():
E:/wch307/CHV307_Library-master/Example/libraries/sdk/Startup/startup_ch32v30x_D8C.S:245
WWDG_IRQHandler:  1:  j 1b
    33b8:	a001                	j	33b8 <WWDG_IRQHandler>

000033ba <PVD_IRQHandler>:
PVD_IRQHandler():
E:/wch307/CHV307_Library-master/Example/libraries/sdk/Startup/startup_ch32v30x_D8C.S:246
PVD_IRQHandler:  1:  j 1b
    33ba:	a001                	j	33ba <PVD_IRQHandler>

000033bc <TAMPER_IRQHandler>:
TAMPER_IRQHandler():
E:/wch307/CHV307_Library-master/Example/libraries/sdk/Startup/startup_ch32v30x_D8C.S:247
TAMPER_IRQHandler:  1:  j 1b
    33bc:	a001                	j	33bc <TAMPER_IRQHandler>

000033be <RTC_IRQHandler>:
RTC_IRQHandler():
E:/wch307/CHV307_Library-master/Example/libraries/sdk/Startup/startup_ch32v30x_D8C.S:248
RTC_IRQHandler:  1:  j 1b
    33be:	a001                	j	33be <RTC_IRQHandler>

000033c0 <FLASH_IRQHandler>:
FLASH_IRQHandler():
E:/wch307/CHV307_Library-master/Example/libraries/sdk/Startup/startup_ch32v30x_D8C.S:249
FLASH_IRQHandler:  1:  j 1b
    33c0:	a001                	j	33c0 <FLASH_IRQHandler>

000033c2 <RCC_IRQHandler>:
RCC_IRQHandler():
E:/wch307/CHV307_Library-master/Example/libraries/sdk/Startup/startup_ch32v30x_D8C.S:250
RCC_IRQHandler:  1:  j 1b
    33c2:	a001                	j	33c2 <RCC_IRQHandler>
E:/wch307/CHV307_Library-master/Example/libraries/sdk/Startup/startup_ch32v30x_D8C.S:251
EXTI0_IRQHandler:  1:  j 1b
    33c4:	a001                	j	33c4 <RCC_IRQHandler+0x2>
E:/wch307/CHV307_Library-master/Example/libraries/sdk/Startup/startup_ch32v30x_D8C.S:252
EXTI1_IRQHandler:  1:  j 1b
    33c6:	a001                	j	33c6 <RCC_IRQHandler+0x4>
E:/wch307/CHV307_Library-master/Example/libraries/sdk/Startup/startup_ch32v30x_D8C.S:253
EXTI2_IRQHandler:  1:  j 1b
    33c8:	a001                	j	33c8 <RCC_IRQHandler+0x6>
E:/wch307/CHV307_Library-master/Example/libraries/sdk/Startup/startup_ch32v30x_D8C.S:254
EXTI3_IRQHandler:  1:  j 1b
    33ca:	a001                	j	33ca <RCC_IRQHandler+0x8>
E:/wch307/CHV307_Library-master/Example/libraries/sdk/Startup/startup_ch32v30x_D8C.S:255
EXTI4_IRQHandler:  1:  j 1b
    33cc:	a001                	j	33cc <RCC_IRQHandler+0xa>

000033ce <DMA1_Channel1_IRQHandler>:
DMA1_Channel1_IRQHandler():
E:/wch307/CHV307_Library-master/Example/libraries/sdk/Startup/startup_ch32v30x_D8C.S:256
DMA1_Channel1_IRQHandler:  1:  j 1b
    33ce:	a001                	j	33ce <DMA1_Channel1_IRQHandler>

000033d0 <DMA1_Channel2_IRQHandler>:
DMA1_Channel2_IRQHandler():
E:/wch307/CHV307_Library-master/Example/libraries/sdk/Startup/startup_ch32v30x_D8C.S:257
DMA1_Channel2_IRQHandler:  1:  j 1b
    33d0:	a001                	j	33d0 <DMA1_Channel2_IRQHandler>

000033d2 <DMA1_Channel3_IRQHandler>:
DMA1_Channel3_IRQHandler():
E:/wch307/CHV307_Library-master/Example/libraries/sdk/Startup/startup_ch32v30x_D8C.S:258
DMA1_Channel3_IRQHandler:  1:  j 1b
    33d2:	a001                	j	33d2 <DMA1_Channel3_IRQHandler>

000033d4 <DMA1_Channel4_IRQHandler>:
DMA1_Channel4_IRQHandler():
E:/wch307/CHV307_Library-master/Example/libraries/sdk/Startup/startup_ch32v30x_D8C.S:259
DMA1_Channel4_IRQHandler:  1:  j 1b
    33d4:	a001                	j	33d4 <DMA1_Channel4_IRQHandler>

000033d6 <DMA1_Channel5_IRQHandler>:
DMA1_Channel5_IRQHandler():
E:/wch307/CHV307_Library-master/Example/libraries/sdk/Startup/startup_ch32v30x_D8C.S:260
DMA1_Channel5_IRQHandler:  1:  j 1b
    33d6:	a001                	j	33d6 <DMA1_Channel5_IRQHandler>

000033d8 <DMA1_Channel6_IRQHandler>:
DMA1_Channel6_IRQHandler():
E:/wch307/CHV307_Library-master/Example/libraries/sdk/Startup/startup_ch32v30x_D8C.S:261
DMA1_Channel6_IRQHandler:  1:  j 1b
    33d8:	a001                	j	33d8 <DMA1_Channel6_IRQHandler>

000033da <DMA1_Channel7_IRQHandler>:
DMA1_Channel7_IRQHandler():
E:/wch307/CHV307_Library-master/Example/libraries/sdk/Startup/startup_ch32v30x_D8C.S:262
DMA1_Channel7_IRQHandler:  1:  j 1b
    33da:	a001                	j	33da <DMA1_Channel7_IRQHandler>

000033dc <ADC1_2_IRQHandler>:
ADC1_2_IRQHandler():
E:/wch307/CHV307_Library-master/Example/libraries/sdk/Startup/startup_ch32v30x_D8C.S:263
ADC1_2_IRQHandler:  1:  j 1b
    33dc:	a001                	j	33dc <ADC1_2_IRQHandler>

000033de <USB_HP_CAN1_TX_IRQHandler>:
USB_HP_CAN1_TX_IRQHandler():
E:/wch307/CHV307_Library-master/Example/libraries/sdk/Startup/startup_ch32v30x_D8C.S:264
USB_HP_CAN1_TX_IRQHandler:  1:  j 1b
    33de:	a001                	j	33de <USB_HP_CAN1_TX_IRQHandler>

000033e0 <USB_LP_CAN1_RX0_IRQHandler>:
USB_LP_CAN1_RX0_IRQHandler():
E:/wch307/CHV307_Library-master/Example/libraries/sdk/Startup/startup_ch32v30x_D8C.S:265
USB_LP_CAN1_RX0_IRQHandler:  1:  j 1b
    33e0:	a001                	j	33e0 <USB_LP_CAN1_RX0_IRQHandler>

000033e2 <CAN1_RX1_IRQHandler>:
CAN1_RX1_IRQHandler():
E:/wch307/CHV307_Library-master/Example/libraries/sdk/Startup/startup_ch32v30x_D8C.S:266
CAN1_RX1_IRQHandler:  1:  j 1b
    33e2:	a001                	j	33e2 <CAN1_RX1_IRQHandler>

000033e4 <CAN1_SCE_IRQHandler>:
CAN1_SCE_IRQHandler():
E:/wch307/CHV307_Library-master/Example/libraries/sdk/Startup/startup_ch32v30x_D8C.S:267
CAN1_SCE_IRQHandler:  1:  j 1b
    33e4:	a001                	j	33e4 <CAN1_SCE_IRQHandler>
E:/wch307/CHV307_Library-master/Example/libraries/sdk/Startup/startup_ch32v30x_D8C.S:268
EXTI9_5_IRQHandler:  1:  j 1b
    33e6:	a001                	j	33e6 <CAN1_SCE_IRQHandler+0x2>

000033e8 <TIM1_BRK_IRQHandler>:
TIM1_BRK_IRQHandler():
E:/wch307/CHV307_Library-master/Example/libraries/sdk/Startup/startup_ch32v30x_D8C.S:269
TIM1_BRK_IRQHandler:  1:  j 1b
    33e8:	a001                	j	33e8 <TIM1_BRK_IRQHandler>
E:/wch307/CHV307_Library-master/Example/libraries/sdk/Startup/startup_ch32v30x_D8C.S:270
TIM1_UP_IRQHandler:  1:  j 1b
    33ea:	a001                	j	33ea <TIM1_BRK_IRQHandler+0x2>

000033ec <TIM1_TRG_COM_IRQHandler>:
TIM1_TRG_COM_IRQHandler():
E:/wch307/CHV307_Library-master/Example/libraries/sdk/Startup/startup_ch32v30x_D8C.S:271
TIM1_TRG_COM_IRQHandler:  1:  j 1b
    33ec:	a001                	j	33ec <TIM1_TRG_COM_IRQHandler>

000033ee <TIM1_CC_IRQHandler>:
TIM1_CC_IRQHandler():
E:/wch307/CHV307_Library-master/Example/libraries/sdk/Startup/startup_ch32v30x_D8C.S:272
TIM1_CC_IRQHandler:  1:  j 1b
    33ee:	a001                	j	33ee <TIM1_CC_IRQHandler>
E:/wch307/CHV307_Library-master/Example/libraries/sdk/Startup/startup_ch32v30x_D8C.S:273
TIM2_IRQHandler:  1:  j 1b
    33f0:	a001                	j	33f0 <TIM1_CC_IRQHandler+0x2>
E:/wch307/CHV307_Library-master/Example/libraries/sdk/Startup/startup_ch32v30x_D8C.S:274
TIM3_IRQHandler:  1:  j 1b
    33f2:	a001                	j	33f2 <TIM1_CC_IRQHandler+0x4>
E:/wch307/CHV307_Library-master/Example/libraries/sdk/Startup/startup_ch32v30x_D8C.S:275
TIM4_IRQHandler:  1:  j 1b
    33f4:	a001                	j	33f4 <TIM1_CC_IRQHandler+0x6>

000033f6 <I2C1_EV_IRQHandler>:
I2C1_EV_IRQHandler():
E:/wch307/CHV307_Library-master/Example/libraries/sdk/Startup/startup_ch32v30x_D8C.S:276
I2C1_EV_IRQHandler:  1:  j 1b
    33f6:	a001                	j	33f6 <I2C1_EV_IRQHandler>

000033f8 <I2C1_ER_IRQHandler>:
I2C1_ER_IRQHandler():
E:/wch307/CHV307_Library-master/Example/libraries/sdk/Startup/startup_ch32v30x_D8C.S:277
I2C1_ER_IRQHandler:  1:  j 1b
    33f8:	a001                	j	33f8 <I2C1_ER_IRQHandler>

000033fa <I2C2_EV_IRQHandler>:
I2C2_EV_IRQHandler():
E:/wch307/CHV307_Library-master/Example/libraries/sdk/Startup/startup_ch32v30x_D8C.S:278
I2C2_EV_IRQHandler:  1:  j 1b
    33fa:	a001                	j	33fa <I2C2_EV_IRQHandler>

000033fc <I2C2_ER_IRQHandler>:
I2C2_ER_IRQHandler():
E:/wch307/CHV307_Library-master/Example/libraries/sdk/Startup/startup_ch32v30x_D8C.S:279
I2C2_ER_IRQHandler:  1:  j 1b
    33fc:	a001                	j	33fc <I2C2_ER_IRQHandler>

000033fe <SPI1_IRQHandler>:
SPI1_IRQHandler():
E:/wch307/CHV307_Library-master/Example/libraries/sdk/Startup/startup_ch32v30x_D8C.S:280
SPI1_IRQHandler:  1:  j 1b
    33fe:	a001                	j	33fe <SPI1_IRQHandler>

00003400 <SPI2_IRQHandler>:
SPI2_IRQHandler():
E:/wch307/CHV307_Library-master/Example/libraries/sdk/Startup/startup_ch32v30x_D8C.S:281
SPI2_IRQHandler:  1:  j 1b
    3400:	a001                	j	3400 <SPI2_IRQHandler>
E:/wch307/CHV307_Library-master/Example/libraries/sdk/Startup/startup_ch32v30x_D8C.S:282
USART1_IRQHandler:  1:  j 1b
    3402:	a001                	j	3402 <SPI2_IRQHandler+0x2>
E:/wch307/CHV307_Library-master/Example/libraries/sdk/Startup/startup_ch32v30x_D8C.S:283
USART2_IRQHandler:  1:  j 1b
    3404:	a001                	j	3404 <SPI2_IRQHandler+0x4>
E:/wch307/CHV307_Library-master/Example/libraries/sdk/Startup/startup_ch32v30x_D8C.S:284
USART3_IRQHandler:  1:  j 1b
    3406:	a001                	j	3406 <SPI2_IRQHandler+0x6>
E:/wch307/CHV307_Library-master/Example/libraries/sdk/Startup/startup_ch32v30x_D8C.S:285
EXTI15_10_IRQHandler:  1:  j 1b
    3408:	a001                	j	3408 <SPI2_IRQHandler+0x8>

0000340a <RTCAlarm_IRQHandler>:
RTCAlarm_IRQHandler():
E:/wch307/CHV307_Library-master/Example/libraries/sdk/Startup/startup_ch32v30x_D8C.S:286
RTCAlarm_IRQHandler:  1:  j 1b
    340a:	a001                	j	340a <RTCAlarm_IRQHandler>

0000340c <USBWakeUp_IRQHandler>:
USBWakeUp_IRQHandler():
E:/wch307/CHV307_Library-master/Example/libraries/sdk/Startup/startup_ch32v30x_D8C.S:287
USBWakeUp_IRQHandler:  1:  j 1b
    340c:	a001                	j	340c <USBWakeUp_IRQHandler>

0000340e <TIM8_BRK_IRQHandler>:
TIM8_BRK_IRQHandler():
E:/wch307/CHV307_Library-master/Example/libraries/sdk/Startup/startup_ch32v30x_D8C.S:288
TIM8_BRK_IRQHandler:  1:  j 1b
    340e:	a001                	j	340e <TIM8_BRK_IRQHandler>
E:/wch307/CHV307_Library-master/Example/libraries/sdk/Startup/startup_ch32v30x_D8C.S:289
TIM8_UP_IRQHandler:  1:  j 1b
    3410:	a001                	j	3410 <TIM8_BRK_IRQHandler+0x2>

00003412 <TIM8_TRG_COM_IRQHandler>:
TIM8_TRG_COM_IRQHandler():
E:/wch307/CHV307_Library-master/Example/libraries/sdk/Startup/startup_ch32v30x_D8C.S:290
TIM8_TRG_COM_IRQHandler:  1:  j 1b
    3412:	a001                	j	3412 <TIM8_TRG_COM_IRQHandler>

00003414 <TIM8_CC_IRQHandler>:
TIM8_CC_IRQHandler():
E:/wch307/CHV307_Library-master/Example/libraries/sdk/Startup/startup_ch32v30x_D8C.S:291
TIM8_CC_IRQHandler:  1:  j 1b
    3414:	a001                	j	3414 <TIM8_CC_IRQHandler>

00003416 <RNG_IRQHandler>:
RNG_IRQHandler():
E:/wch307/CHV307_Library-master/Example/libraries/sdk/Startup/startup_ch32v30x_D8C.S:292
RNG_IRQHandler:  1:  j 1b
    3416:	a001                	j	3416 <RNG_IRQHandler>

00003418 <FSMC_IRQHandler>:
FSMC_IRQHandler():
E:/wch307/CHV307_Library-master/Example/libraries/sdk/Startup/startup_ch32v30x_D8C.S:293
FSMC_IRQHandler:  1:  j 1b
    3418:	a001                	j	3418 <FSMC_IRQHandler>

0000341a <SDIO_IRQHandler>:
SDIO_IRQHandler():
E:/wch307/CHV307_Library-master/Example/libraries/sdk/Startup/startup_ch32v30x_D8C.S:294
SDIO_IRQHandler:  1:  j 1b
    341a:	a001                	j	341a <SDIO_IRQHandler>
E:/wch307/CHV307_Library-master/Example/libraries/sdk/Startup/startup_ch32v30x_D8C.S:295
TIM5_IRQHandler:  1:  j 1b
    341c:	a001                	j	341c <SDIO_IRQHandler+0x2>

0000341e <SPI3_IRQHandler>:
SPI3_IRQHandler():
E:/wch307/CHV307_Library-master/Example/libraries/sdk/Startup/startup_ch32v30x_D8C.S:296
SPI3_IRQHandler:  1:  j 1b
    341e:	a001                	j	341e <SPI3_IRQHandler>
E:/wch307/CHV307_Library-master/Example/libraries/sdk/Startup/startup_ch32v30x_D8C.S:297
UART4_IRQHandler:  1:  j 1b
    3420:	a001                	j	3420 <SPI3_IRQHandler+0x2>
E:/wch307/CHV307_Library-master/Example/libraries/sdk/Startup/startup_ch32v30x_D8C.S:298
UART5_IRQHandler:  1:  j 1b
    3422:	a001                	j	3422 <SPI3_IRQHandler+0x4>
E:/wch307/CHV307_Library-master/Example/libraries/sdk/Startup/startup_ch32v30x_D8C.S:299
TIM6_IRQHandler:  1:  j 1b
    3424:	a001                	j	3424 <SPI3_IRQHandler+0x6>
E:/wch307/CHV307_Library-master/Example/libraries/sdk/Startup/startup_ch32v30x_D8C.S:300
TIM7_IRQHandler:  1:  j 1b
    3426:	a001                	j	3426 <SPI3_IRQHandler+0x8>

00003428 <DMA2_Channel1_IRQHandler>:
DMA2_Channel1_IRQHandler():
E:/wch307/CHV307_Library-master/Example/libraries/sdk/Startup/startup_ch32v30x_D8C.S:301
DMA2_Channel1_IRQHandler:  1:  j 1b
    3428:	a001                	j	3428 <DMA2_Channel1_IRQHandler>

0000342a <DMA2_Channel2_IRQHandler>:
DMA2_Channel2_IRQHandler():
E:/wch307/CHV307_Library-master/Example/libraries/sdk/Startup/startup_ch32v30x_D8C.S:302
DMA2_Channel2_IRQHandler:  1:  j 1b
    342a:	a001                	j	342a <DMA2_Channel2_IRQHandler>

0000342c <DMA2_Channel3_IRQHandler>:
DMA2_Channel3_IRQHandler():
E:/wch307/CHV307_Library-master/Example/libraries/sdk/Startup/startup_ch32v30x_D8C.S:303
DMA2_Channel3_IRQHandler:  1:  j 1b
    342c:	a001                	j	342c <DMA2_Channel3_IRQHandler>

0000342e <DMA2_Channel4_IRQHandler>:
DMA2_Channel4_IRQHandler():
E:/wch307/CHV307_Library-master/Example/libraries/sdk/Startup/startup_ch32v30x_D8C.S:304
DMA2_Channel4_IRQHandler:  1:  j 1b
    342e:	a001                	j	342e <DMA2_Channel4_IRQHandler>

00003430 <DMA2_Channel5_IRQHandler>:
DMA2_Channel5_IRQHandler():
E:/wch307/CHV307_Library-master/Example/libraries/sdk/Startup/startup_ch32v30x_D8C.S:305
DMA2_Channel5_IRQHandler:  1:  j 1b
    3430:	a001                	j	3430 <DMA2_Channel5_IRQHandler>

00003432 <ETH_IRQHandler>:
ETH_IRQHandler():
E:/wch307/CHV307_Library-master/Example/libraries/sdk/Startup/startup_ch32v30x_D8C.S:306
ETH_IRQHandler:  1:  j 1b
    3432:	a001                	j	3432 <ETH_IRQHandler>

00003434 <ETH_WKUP_IRQHandler>:
ETH_WKUP_IRQHandler():
E:/wch307/CHV307_Library-master/Example/libraries/sdk/Startup/startup_ch32v30x_D8C.S:307
ETH_WKUP_IRQHandler:  1:  j 1b
    3434:	a001                	j	3434 <ETH_WKUP_IRQHandler>

00003436 <CAN2_TX_IRQHandler>:
CAN2_TX_IRQHandler():
E:/wch307/CHV307_Library-master/Example/libraries/sdk/Startup/startup_ch32v30x_D8C.S:308
CAN2_TX_IRQHandler:  1:  j 1b
    3436:	a001                	j	3436 <CAN2_TX_IRQHandler>

00003438 <CAN2_RX0_IRQHandler>:
CAN2_RX0_IRQHandler():
E:/wch307/CHV307_Library-master/Example/libraries/sdk/Startup/startup_ch32v30x_D8C.S:309
CAN2_RX0_IRQHandler:  1:  j 1b
    3438:	a001                	j	3438 <CAN2_RX0_IRQHandler>

0000343a <CAN2_RX1_IRQHandler>:
CAN2_RX1_IRQHandler():
E:/wch307/CHV307_Library-master/Example/libraries/sdk/Startup/startup_ch32v30x_D8C.S:310
CAN2_RX1_IRQHandler:  1:  j 1b
    343a:	a001                	j	343a <CAN2_RX1_IRQHandler>

0000343c <CAN2_SCE_IRQHandler>:
CAN2_SCE_IRQHandler():
E:/wch307/CHV307_Library-master/Example/libraries/sdk/Startup/startup_ch32v30x_D8C.S:311
CAN2_SCE_IRQHandler:  1:  j 1b
    343c:	a001                	j	343c <CAN2_SCE_IRQHandler>
E:/wch307/CHV307_Library-master/Example/libraries/sdk/Startup/startup_ch32v30x_D8C.S:312
OTG_FS_IRQHandler:  1:  j 1b
    343e:	a001                	j	343e <CAN2_SCE_IRQHandler+0x2>

00003440 <USBHSWakeup_IRQHandler>:
USBHSWakeup_IRQHandler():
E:/wch307/CHV307_Library-master/Example/libraries/sdk/Startup/startup_ch32v30x_D8C.S:313
USBHSWakeup_IRQHandler:  1:  j 1b
    3440:	a001                	j	3440 <USBHSWakeup_IRQHandler>

00003442 <USBHS_IRQHandler>:
USBHS_IRQHandler():
E:/wch307/CHV307_Library-master/Example/libraries/sdk/Startup/startup_ch32v30x_D8C.S:314
USBHS_IRQHandler:  1:  j 1b
    3442:	a001                	j	3442 <USBHS_IRQHandler>
E:/wch307/CHV307_Library-master/Example/libraries/sdk/Startup/startup_ch32v30x_D8C.S:315
DVP_IRQHandler:  1:  j 1b
    3444:	a001                	j	3444 <USBHS_IRQHandler+0x2>
E:/wch307/CHV307_Library-master/Example/libraries/sdk/Startup/startup_ch32v30x_D8C.S:316
UART6_IRQHandler:  1:  j 1b
    3446:	a001                	j	3446 <USBHS_IRQHandler+0x4>
E:/wch307/CHV307_Library-master/Example/libraries/sdk/Startup/startup_ch32v30x_D8C.S:317
UART7_IRQHandler:  1:  j 1b
    3448:	a001                	j	3448 <USBHS_IRQHandler+0x6>
E:/wch307/CHV307_Library-master/Example/libraries/sdk/Startup/startup_ch32v30x_D8C.S:318
UART8_IRQHandler:  1:  j 1b
    344a:	a001                	j	344a <USBHS_IRQHandler+0x8>

0000344c <TIM9_BRK_IRQHandler>:
TIM9_BRK_IRQHandler():
E:/wch307/CHV307_Library-master/Example/libraries/sdk/Startup/startup_ch32v30x_D8C.S:319
TIM9_BRK_IRQHandler:  1:  j 1b
    344c:	a001                	j	344c <TIM9_BRK_IRQHandler>
E:/wch307/CHV307_Library-master/Example/libraries/sdk/Startup/startup_ch32v30x_D8C.S:320
TIM9_UP_IRQHandler:  1:  j 1b
    344e:	a001                	j	344e <TIM9_BRK_IRQHandler+0x2>

00003450 <TIM9_TRG_COM_IRQHandler>:
TIM9_TRG_COM_IRQHandler():
E:/wch307/CHV307_Library-master/Example/libraries/sdk/Startup/startup_ch32v30x_D8C.S:321
TIM9_TRG_COM_IRQHandler:  1:  j 1b
    3450:	a001                	j	3450 <TIM9_TRG_COM_IRQHandler>

00003452 <TIM9_CC_IRQHandler>:
TIM9_CC_IRQHandler():
E:/wch307/CHV307_Library-master/Example/libraries/sdk/Startup/startup_ch32v30x_D8C.S:322
TIM9_CC_IRQHandler:  1:  j 1b
    3452:	a001                	j	3452 <TIM9_CC_IRQHandler>

00003454 <TIM10_BRK_IRQHandler>:
TIM10_BRK_IRQHandler():
E:/wch307/CHV307_Library-master/Example/libraries/sdk/Startup/startup_ch32v30x_D8C.S:323
TIM10_BRK_IRQHandler:  1:  j 1b
    3454:	a001                	j	3454 <TIM10_BRK_IRQHandler>
E:/wch307/CHV307_Library-master/Example/libraries/sdk/Startup/startup_ch32v30x_D8C.S:324
TIM10_UP_IRQHandler:  1:  j 1b
    3456:	a001                	j	3456 <TIM10_BRK_IRQHandler+0x2>

00003458 <TIM10_TRG_COM_IRQHandler>:
TIM10_TRG_COM_IRQHandler():
E:/wch307/CHV307_Library-master/Example/libraries/sdk/Startup/startup_ch32v30x_D8C.S:325
TIM10_TRG_COM_IRQHandler:  1:  j 1b
    3458:	a001                	j	3458 <TIM10_TRG_COM_IRQHandler>

0000345a <TIM10_CC_IRQHandler>:
TIM10_CC_IRQHandler():
E:/wch307/CHV307_Library-master/Example/libraries/sdk/Startup/startup_ch32v30x_D8C.S:326
TIM10_CC_IRQHandler:  1:  j 1b
    345a:	a001                	j	345a <TIM10_CC_IRQHandler>

0000345c <DMA2_Channel6_IRQHandler>:
DMA2_Channel6_IRQHandler():
E:/wch307/CHV307_Library-master/Example/libraries/sdk/Startup/startup_ch32v30x_D8C.S:327
DMA2_Channel6_IRQHandler:  1:  j 1b
    345c:	a001                	j	345c <DMA2_Channel6_IRQHandler>

0000345e <DMA2_Channel7_IRQHandler>:
DMA2_Channel7_IRQHandler():
E:/wch307/CHV307_Library-master/Example/libraries/sdk/Startup/startup_ch32v30x_D8C.S:328
DMA2_Channel7_IRQHandler:  1:  j 1b
    345e:	a001                	j	345e <DMA2_Channel7_IRQHandler>

00003460 <DMA2_Channel8_IRQHandler>:
DMA2_Channel8_IRQHandler():
E:/wch307/CHV307_Library-master/Example/libraries/sdk/Startup/startup_ch32v30x_D8C.S:329
DMA2_Channel8_IRQHandler:  1:  j 1b
    3460:	a001                	j	3460 <DMA2_Channel8_IRQHandler>

00003462 <DMA2_Channel9_IRQHandler>:
DMA2_Channel9_IRQHandler():
E:/wch307/CHV307_Library-master/Example/libraries/sdk/Startup/startup_ch32v30x_D8C.S:330
DMA2_Channel9_IRQHandler:  1:  j 1b
    3462:	a001                	j	3462 <DMA2_Channel9_IRQHandler>

00003464 <DMA2_Channel10_IRQHandler>:
DMA2_Channel10_IRQHandler():
E:/wch307/CHV307_Library-master/Example/libraries/sdk/Startup/startup_ch32v30x_D8C.S:331
DMA2_Channel10_IRQHandler:  1:  j 1b
    3464:	a001                	j	3464 <DMA2_Channel10_IRQHandler>

00003466 <DMA2_Channel11_IRQHandler>:
DMA2_Channel11_IRQHandler():
E:/wch307/CHV307_Library-master/Example/libraries/sdk/Startup/startup_ch32v30x_D8C.S:332
DMA2_Channel11_IRQHandler:  1:  j 1b
    3466:	a001                	j	3466 <DMA2_Channel11_IRQHandler>

00003468 <handle_reset>:
handle_reset():
E:/wch307/CHV307_Library-master/Example/libraries/sdk/Startup/startup_ch32v30x_D8C.S:341
	.weak	handle_reset
	.align	1
handle_reset:
.option push 
.option	norelax 
	la gp, __global_pointer$
    3468:	1fffd197          	auipc	gp,0x1fffd
    346c:	5d018193          	addi	gp,gp,1488 # 20000a38 <__global_pointer$>
E:/wch307/CHV307_Library-master/Example/libraries/sdk/Startup/startup_ch32v30x_D8C.S:344
.option	pop 
1:
	la sp, _eusrstack 
    3470:	2000d117          	auipc	sp,0x2000d
    3474:	b9010113          	addi	sp,sp,-1136 # 20010000 <_eusrstack>
E:/wch307/CHV307_Library-master/Example/libraries/sdk/Startup/startup_ch32v30x_D8C.S:347
2:
	/* Load data section from flash to RAM */
	la a0, _data_lma
    3478:	00008517          	auipc	a0,0x8
    347c:	f5c50513          	addi	a0,a0,-164 # b3d4 <_data_lma>
E:/wch307/CHV307_Library-master/Example/libraries/sdk/Startup/startup_ch32v30x_D8C.S:348
	la a1, _data_vma
    3480:	1fffd597          	auipc	a1,0x1fffd
    3484:	b8058593          	addi	a1,a1,-1152 # 20000000 <_data_vma>
E:/wch307/CHV307_Library-master/Example/libraries/sdk/Startup/startup_ch32v30x_D8C.S:349
	la a2, _edata
    3488:	83818613          	addi	a2,gp,-1992 # 20000270 <_edata>
E:/wch307/CHV307_Library-master/Example/libraries/sdk/Startup/startup_ch32v30x_D8C.S:350
	bgeu a1, a2, 2f
    348c:	00c5fa63          	bgeu	a1,a2,34a0 <handle_reset+0x38>
E:/wch307/CHV307_Library-master/Example/libraries/sdk/Startup/startup_ch32v30x_D8C.S:352
1:
	lw t0, (a0)
    3490:	00052283          	lw	t0,0(a0)
E:/wch307/CHV307_Library-master/Example/libraries/sdk/Startup/startup_ch32v30x_D8C.S:353
	sw t0, (a1)
    3494:	0055a023          	sw	t0,0(a1)
E:/wch307/CHV307_Library-master/Example/libraries/sdk/Startup/startup_ch32v30x_D8C.S:354
	addi a0, a0, 4
    3498:	0511                	addi	a0,a0,4
E:/wch307/CHV307_Library-master/Example/libraries/sdk/Startup/startup_ch32v30x_D8C.S:355
	addi a1, a1, 4
    349a:	0591                	addi	a1,a1,4
E:/wch307/CHV307_Library-master/Example/libraries/sdk/Startup/startup_ch32v30x_D8C.S:356
	bltu a1, a2, 1b
    349c:	fec5eae3          	bltu	a1,a2,3490 <handle_reset+0x28>
E:/wch307/CHV307_Library-master/Example/libraries/sdk/Startup/startup_ch32v30x_D8C.S:359
2:
	/* Clear bss section */
	la a0, _sbss
    34a0:	83818513          	addi	a0,gp,-1992 # 20000270 <_edata>
E:/wch307/CHV307_Library-master/Example/libraries/sdk/Startup/startup_ch32v30x_D8C.S:360
	la a1, _ebss
    34a4:	92818593          	addi	a1,gp,-1752 # 20000360 <_ebss>
E:/wch307/CHV307_Library-master/Example/libraries/sdk/Startup/startup_ch32v30x_D8C.S:361
	bgeu a0, a1, 2f
    34a8:	00b57763          	bgeu	a0,a1,34b6 <handle_reset+0x4e>
E:/wch307/CHV307_Library-master/Example/libraries/sdk/Startup/startup_ch32v30x_D8C.S:363
1:
	sw zero, (a0)
    34ac:	00052023          	sw	zero,0(a0)
E:/wch307/CHV307_Library-master/Example/libraries/sdk/Startup/startup_ch32v30x_D8C.S:364
	addi a0, a0, 4
    34b0:	0511                	addi	a0,a0,4
E:/wch307/CHV307_Library-master/Example/libraries/sdk/Startup/startup_ch32v30x_D8C.S:365
	bltu a0, a1, 1b
    34b2:	feb56de3          	bltu	a0,a1,34ac <handle_reset+0x44>
E:/wch307/CHV307_Library-master/Example/libraries/sdk/Startup/startup_ch32v30x_D8C.S:367
2:
    li t0, 0x1f
    34b6:	42fd                	li	t0,31
E:/wch307/CHV307_Library-master/Example/libraries/sdk/Startup/startup_ch32v30x_D8C.S:368
    csrw 0xbc0, t0
    34b8:	bc029073          	csrw	0xbc0,t0
E:/wch307/CHV307_Library-master/Example/libraries/sdk/Startup/startup_ch32v30x_D8C.S:372

    /* Enable nested and hardware stack */
    /*  开启8级中断嵌套 */
	li t0, 0x1f
    34bc:	42fd                	li	t0,31
E:/wch307/CHV307_Library-master/Example/libraries/sdk/Startup/startup_ch32v30x_D8C.S:373
	csrw 0x804, t0
    34be:	80429073          	csrw	0x804,t0
E:/wch307/CHV307_Library-master/Example/libraries/sdk/Startup/startup_ch32v30x_D8C.S:377

    /* Enable floating point and interrupt */
    /* 使能用户模式 */
   	li t0, 0x6088
    34c2:	000062b7          	lui	t0,0x6
    34c6:	08828293          	addi	t0,t0,136 # 6088 <__divdf3+0x74e>
E:/wch307/CHV307_Library-master/Example/libraries/sdk/Startup/startup_ch32v30x_D8C.S:382
    /*
	 使能机器模式
	li t0, 0x7888
	*/
   	csrs mstatus, t0
    34ca:	3002a073          	csrs	mstatus,t0
E:/wch307/CHV307_Library-master/Example/libraries/sdk/Startup/startup_ch32v30x_D8C.S:384

 	la t0, _vector_base
    34ce:	ffffd297          	auipc	t0,0xffffd
    34d2:	b6a28293          	addi	t0,t0,-1174 # 38 <_einit>
E:/wch307/CHV307_Library-master/Example/libraries/sdk/Startup/startup_ch32v30x_D8C.S:385
    ori t0, t0, 3           
    34d6:	0032e293          	ori	t0,t0,3
E:/wch307/CHV307_Library-master/Example/libraries/sdk/Startup/startup_ch32v30x_D8C.S:386
	csrw mtvec, t0
    34da:	30529073          	csrw	mtvec,t0
E:/wch307/CHV307_Library-master/Example/libraries/sdk/Startup/startup_ch32v30x_D8C.S:389

    #jal  SystemInit
	la t0, main
    34de:	00000297          	auipc	t0,0x0
    34e2:	de028293          	addi	t0,t0,-544 # 32be <main>
E:/wch307/CHV307_Library-master/Example/libraries/sdk/Startup/startup_ch32v30x_D8C.S:390
	csrw mepc, t0
    34e6:	34129073          	csrw	mepc,t0
E:/wch307/CHV307_Library-master/Example/libraries/sdk/Startup/startup_ch32v30x_D8C.S:391
	mret
    34ea:	30200073          	mret

000034ee <EXTI_GetITStatus>:
EXTI_GetITStatus():
E:/wch307/CHV307_Library-master/Example/libraries/sdk/Peripheral/ch32v30x_exti.c:152
 * @param   EXTI_Line - specifies the EXTI lines to be enabled or disabled.
 *
 * @return  The new state of EXTI_Line (SET or RESET).
 */
ITStatus EXTI_GetITStatus(uint32_t EXTI_Line)
{
    34ee:	7179                	addi	sp,sp,-48
    34f0:	d622                	sw	s0,44(sp)
    34f2:	1800                	addi	s0,sp,48
    34f4:	fca42e23          	sw	a0,-36(s0)
E:/wch307/CHV307_Library-master/Example/libraries/sdk/Peripheral/ch32v30x_exti.c:153
    ITStatus bitstatus = RESET;
    34f8:	fe042623          	sw	zero,-20(s0)
E:/wch307/CHV307_Library-master/Example/libraries/sdk/Peripheral/ch32v30x_exti.c:154
    uint32_t enablestatus = 0;
    34fc:	fe042423          	sw	zero,-24(s0)
E:/wch307/CHV307_Library-master/Example/libraries/sdk/Peripheral/ch32v30x_exti.c:156

    enablestatus = EXTI->INTENR & EXTI_Line;
    3500:	400107b7          	lui	a5,0x40010
    3504:	40078793          	addi	a5,a5,1024 # 40010400 <_eusrstack+0x20000400>
    3508:	439c                	lw	a5,0(a5)
    350a:	fdc42703          	lw	a4,-36(s0)
    350e:	8ff9                	and	a5,a5,a4
    3510:	fef42423          	sw	a5,-24(s0)
E:/wch307/CHV307_Library-master/Example/libraries/sdk/Peripheral/ch32v30x_exti.c:157
    if(((EXTI->INTFR & EXTI_Line) != (uint32_t)RESET) && (enablestatus != (uint32_t)RESET))
    3514:	400107b7          	lui	a5,0x40010
    3518:	40078793          	addi	a5,a5,1024 # 40010400 <_eusrstack+0x20000400>
    351c:	4bd8                	lw	a4,20(a5)
    351e:	fdc42783          	lw	a5,-36(s0)
    3522:	8ff9                	and	a5,a5,a4
    3524:	cb81                	beqz	a5,3534 <EXTI_GetITStatus+0x46>
E:/wch307/CHV307_Library-master/Example/libraries/sdk/Peripheral/ch32v30x_exti.c:157 (discriminator 1)
    3526:	fe842783          	lw	a5,-24(s0)
    352a:	c789                	beqz	a5,3534 <EXTI_GetITStatus+0x46>
E:/wch307/CHV307_Library-master/Example/libraries/sdk/Peripheral/ch32v30x_exti.c:159
    {
        bitstatus = SET;
    352c:	4785                	li	a5,1
    352e:	fef42623          	sw	a5,-20(s0)
    3532:	a019                	j	3538 <EXTI_GetITStatus+0x4a>
E:/wch307/CHV307_Library-master/Example/libraries/sdk/Peripheral/ch32v30x_exti.c:163
    }
    else
    {
        bitstatus = RESET;
    3534:	fe042623          	sw	zero,-20(s0)
E:/wch307/CHV307_Library-master/Example/libraries/sdk/Peripheral/ch32v30x_exti.c:165
    }
    return bitstatus;
    3538:	fec42783          	lw	a5,-20(s0)
E:/wch307/CHV307_Library-master/Example/libraries/sdk/Peripheral/ch32v30x_exti.c:166
}
    353c:	853e                	mv	a0,a5
    353e:	5432                	lw	s0,44(sp)
    3540:	6145                	addi	sp,sp,48
    3542:	8082                	ret

00003544 <EXTI_ClearITPendingBit>:
EXTI_ClearITPendingBit():
E:/wch307/CHV307_Library-master/Example/libraries/sdk/Peripheral/ch32v30x_exti.c:178
 * @param   EXTI_Line - specifies the EXTI lines to be enabled or disabled.
 *
 * @return  none
 */
void EXTI_ClearITPendingBit(uint32_t EXTI_Line)
{
    3544:	1101                	addi	sp,sp,-32
    3546:	ce22                	sw	s0,28(sp)
    3548:	1000                	addi	s0,sp,32
    354a:	fea42623          	sw	a0,-20(s0)
E:/wch307/CHV307_Library-master/Example/libraries/sdk/Peripheral/ch32v30x_exti.c:179
    EXTI->INTFR = EXTI_Line;
    354e:	400107b7          	lui	a5,0x40010
    3552:	40078793          	addi	a5,a5,1024 # 40010400 <_eusrstack+0x20000400>
    3556:	fec42703          	lw	a4,-20(s0)
    355a:	cbd8                	sw	a4,20(a5)
E:/wch307/CHV307_Library-master/Example/libraries/sdk/Peripheral/ch32v30x_exti.c:180
}
    355c:	0001                	nop
    355e:	4472                	lw	s0,28(sp)
    3560:	6105                	addi	sp,sp,32
    3562:	8082                	ret

00003564 <GPIO_Init>:
GPIO_Init():
E:/wch307/CHV307_Library-master/Example/libraries/sdk/Peripheral/ch32v30x_gpio.c:85
 *        contains the configuration information for the specified GPIO peripheral.
 *
 * @return  none
 */
void GPIO_Init(GPIO_TypeDef *GPIOx, GPIO_InitTypeDef *GPIO_InitStruct)
{
    3564:	7139                	addi	sp,sp,-64
    3566:	de22                	sw	s0,60(sp)
    3568:	0080                	addi	s0,sp,64
    356a:	fca42623          	sw	a0,-52(s0)
    356e:	fcb42423          	sw	a1,-56(s0)
E:/wch307/CHV307_Library-master/Example/libraries/sdk/Peripheral/ch32v30x_gpio.c:86
    uint32_t currentmode = 0x00, currentpin = 0x00, pinpos = 0x00, pos = 0x00;
    3572:	fe042623          	sw	zero,-20(s0)
    3576:	fe042023          	sw	zero,-32(s0)
    357a:	fe042423          	sw	zero,-24(s0)
    357e:	fc042e23          	sw	zero,-36(s0)
E:/wch307/CHV307_Library-master/Example/libraries/sdk/Peripheral/ch32v30x_gpio.c:87
    uint32_t tmpreg = 0x00, pinmask = 0x00;
    3582:	fe042223          	sw	zero,-28(s0)
    3586:	fc042c23          	sw	zero,-40(s0)
E:/wch307/CHV307_Library-master/Example/libraries/sdk/Peripheral/ch32v30x_gpio.c:89

    currentmode = ((uint32_t)GPIO_InitStruct->GPIO_Mode) & ((uint32_t)0x0F);
    358a:	fc842783          	lw	a5,-56(s0)
    358e:	479c                	lw	a5,8(a5)
    3590:	8bbd                	andi	a5,a5,15
    3592:	fef42623          	sw	a5,-20(s0)
E:/wch307/CHV307_Library-master/Example/libraries/sdk/Peripheral/ch32v30x_gpio.c:91

    if((((uint32_t)GPIO_InitStruct->GPIO_Mode) & ((uint32_t)0x10)) != 0x00)
    3596:	fc842783          	lw	a5,-56(s0)
    359a:	479c                	lw	a5,8(a5)
    359c:	8bc1                	andi	a5,a5,16
    359e:	cb89                	beqz	a5,35b0 <GPIO_Init+0x4c>
E:/wch307/CHV307_Library-master/Example/libraries/sdk/Peripheral/ch32v30x_gpio.c:93
    {
        currentmode |= (uint32_t)GPIO_InitStruct->GPIO_Speed;
    35a0:	fc842783          	lw	a5,-56(s0)
    35a4:	43dc                	lw	a5,4(a5)
    35a6:	fec42703          	lw	a4,-20(s0)
    35aa:	8fd9                	or	a5,a5,a4
    35ac:	fef42623          	sw	a5,-20(s0)
E:/wch307/CHV307_Library-master/Example/libraries/sdk/Peripheral/ch32v30x_gpio.c:96
    }

    if(((uint32_t)GPIO_InitStruct->GPIO_Pin & ((uint32_t)0x00FF)) != 0x00)
    35b0:	fc842783          	lw	a5,-56(s0)
    35b4:	0007d783          	lhu	a5,0(a5)
    35b8:	0ff7f793          	andi	a5,a5,255
    35bc:	cff1                	beqz	a5,3698 <GPIO_Init+0x134>
E:/wch307/CHV307_Library-master/Example/libraries/sdk/Peripheral/ch32v30x_gpio.c:98
    {
        tmpreg = GPIOx->CFGLR;
    35be:	fcc42783          	lw	a5,-52(s0)
    35c2:	439c                	lw	a5,0(a5)
    35c4:	fef42223          	sw	a5,-28(s0)
E:/wch307/CHV307_Library-master/Example/libraries/sdk/Peripheral/ch32v30x_gpio.c:100

        for(pinpos = 0x00; pinpos < 0x08; pinpos++)
    35c8:	fe042423          	sw	zero,-24(s0)
    35cc:	a865                	j	3684 <GPIO_Init+0x120>
E:/wch307/CHV307_Library-master/Example/libraries/sdk/Peripheral/ch32v30x_gpio.c:102
        {
            pos = ((uint32_t)0x01) << pinpos;
    35ce:	fe842783          	lw	a5,-24(s0)
    35d2:	4705                	li	a4,1
    35d4:	00f717b3          	sll	a5,a4,a5
    35d8:	fcf42e23          	sw	a5,-36(s0)
E:/wch307/CHV307_Library-master/Example/libraries/sdk/Peripheral/ch32v30x_gpio.c:103
            currentpin = (GPIO_InitStruct->GPIO_Pin) & pos;
    35dc:	fc842783          	lw	a5,-56(s0)
    35e0:	0007d783          	lhu	a5,0(a5)
    35e4:	873e                	mv	a4,a5
    35e6:	fdc42783          	lw	a5,-36(s0)
    35ea:	8ff9                	and	a5,a5,a4
    35ec:	fef42023          	sw	a5,-32(s0)
E:/wch307/CHV307_Library-master/Example/libraries/sdk/Peripheral/ch32v30x_gpio.c:105

            if(currentpin == pos)
    35f0:	fe042703          	lw	a4,-32(s0)
    35f4:	fdc42783          	lw	a5,-36(s0)
    35f8:	08f71163          	bne	a4,a5,367a <GPIO_Init+0x116>
E:/wch307/CHV307_Library-master/Example/libraries/sdk/Peripheral/ch32v30x_gpio.c:107
            {
                pos = pinpos << 2;
    35fc:	fe842783          	lw	a5,-24(s0)
    3600:	078a                	slli	a5,a5,0x2
    3602:	fcf42e23          	sw	a5,-36(s0)
E:/wch307/CHV307_Library-master/Example/libraries/sdk/Peripheral/ch32v30x_gpio.c:108
                pinmask = ((uint32_t)0x0F) << pos;
    3606:	fdc42783          	lw	a5,-36(s0)
    360a:	473d                	li	a4,15
    360c:	00f717b3          	sll	a5,a4,a5
    3610:	fcf42c23          	sw	a5,-40(s0)
E:/wch307/CHV307_Library-master/Example/libraries/sdk/Peripheral/ch32v30x_gpio.c:109
                tmpreg &= ~pinmask;
    3614:	fd842783          	lw	a5,-40(s0)
    3618:	fff7c793          	not	a5,a5
    361c:	fe442703          	lw	a4,-28(s0)
    3620:	8ff9                	and	a5,a5,a4
    3622:	fef42223          	sw	a5,-28(s0)
E:/wch307/CHV307_Library-master/Example/libraries/sdk/Peripheral/ch32v30x_gpio.c:110
                tmpreg |= (currentmode << pos);
    3626:	fdc42783          	lw	a5,-36(s0)
    362a:	fec42703          	lw	a4,-20(s0)
    362e:	00f717b3          	sll	a5,a4,a5
    3632:	fe442703          	lw	a4,-28(s0)
    3636:	8fd9                	or	a5,a5,a4
    3638:	fef42223          	sw	a5,-28(s0)
E:/wch307/CHV307_Library-master/Example/libraries/sdk/Peripheral/ch32v30x_gpio.c:112

                if(GPIO_InitStruct->GPIO_Mode == GPIO_Mode_IPD)
    363c:	fc842783          	lw	a5,-56(s0)
    3640:	4798                	lw	a4,8(a5)
    3642:	02800793          	li	a5,40
    3646:	00f71b63          	bne	a4,a5,365c <GPIO_Init+0xf8>
E:/wch307/CHV307_Library-master/Example/libraries/sdk/Peripheral/ch32v30x_gpio.c:114
                {
                    GPIOx->BCR = (((uint32_t)0x01) << pinpos);
    364a:	fe842783          	lw	a5,-24(s0)
    364e:	4705                	li	a4,1
    3650:	00f71733          	sll	a4,a4,a5
    3654:	fcc42783          	lw	a5,-52(s0)
    3658:	cbd8                	sw	a4,20(a5)
    365a:	a005                	j	367a <GPIO_Init+0x116>
E:/wch307/CHV307_Library-master/Example/libraries/sdk/Peripheral/ch32v30x_gpio.c:118
                }
                else
                {
                    if(GPIO_InitStruct->GPIO_Mode == GPIO_Mode_IPU)
    365c:	fc842783          	lw	a5,-56(s0)
    3660:	4798                	lw	a4,8(a5)
    3662:	04800793          	li	a5,72
    3666:	00f71a63          	bne	a4,a5,367a <GPIO_Init+0x116>
E:/wch307/CHV307_Library-master/Example/libraries/sdk/Peripheral/ch32v30x_gpio.c:120
                    {
                        GPIOx->BSHR = (((uint32_t)0x01) << pinpos);
    366a:	fe842783          	lw	a5,-24(s0)
    366e:	4705                	li	a4,1
    3670:	00f71733          	sll	a4,a4,a5
    3674:	fcc42783          	lw	a5,-52(s0)
    3678:	cb98                	sw	a4,16(a5)
E:/wch307/CHV307_Library-master/Example/libraries/sdk/Peripheral/ch32v30x_gpio.c:100 (discriminator 2)
        for(pinpos = 0x00; pinpos < 0x08; pinpos++)
    367a:	fe842783          	lw	a5,-24(s0)
    367e:	0785                	addi	a5,a5,1
    3680:	fef42423          	sw	a5,-24(s0)
E:/wch307/CHV307_Library-master/Example/libraries/sdk/Peripheral/ch32v30x_gpio.c:100 (discriminator 1)
    3684:	fe842703          	lw	a4,-24(s0)
    3688:	479d                	li	a5,7
    368a:	f4e7f2e3          	bgeu	a5,a4,35ce <GPIO_Init+0x6a>
E:/wch307/CHV307_Library-master/Example/libraries/sdk/Peripheral/ch32v30x_gpio.c:125
                    }
                }
            }
        }
        GPIOx->CFGLR = tmpreg;
    368e:	fcc42783          	lw	a5,-52(s0)
    3692:	fe442703          	lw	a4,-28(s0)
    3696:	c398                	sw	a4,0(a5)
E:/wch307/CHV307_Library-master/Example/libraries/sdk/Peripheral/ch32v30x_gpio.c:128
    }

    if(GPIO_InitStruct->GPIO_Pin > 0x00FF)
    3698:	fc842783          	lw	a5,-56(s0)
    369c:	0007d703          	lhu	a4,0(a5)
    36a0:	0ff00793          	li	a5,255
    36a4:	0ee7f163          	bgeu	a5,a4,3786 <GPIO_Init+0x222>
E:/wch307/CHV307_Library-master/Example/libraries/sdk/Peripheral/ch32v30x_gpio.c:130
    {
        tmpreg = GPIOx->CFGHR;
    36a8:	fcc42783          	lw	a5,-52(s0)
    36ac:	43dc                	lw	a5,4(a5)
    36ae:	fef42223          	sw	a5,-28(s0)
E:/wch307/CHV307_Library-master/Example/libraries/sdk/Peripheral/ch32v30x_gpio.c:132

        for(pinpos = 0x00; pinpos < 0x08; pinpos++)
    36b2:	fe042423          	sw	zero,-24(s0)
    36b6:	a875                	j	3772 <GPIO_Init+0x20e>
E:/wch307/CHV307_Library-master/Example/libraries/sdk/Peripheral/ch32v30x_gpio.c:134
        {
            pos = (((uint32_t)0x01) << (pinpos + 0x08));
    36b8:	fe842783          	lw	a5,-24(s0)
    36bc:	07a1                	addi	a5,a5,8
    36be:	4705                	li	a4,1
    36c0:	00f717b3          	sll	a5,a4,a5
    36c4:	fcf42e23          	sw	a5,-36(s0)
E:/wch307/CHV307_Library-master/Example/libraries/sdk/Peripheral/ch32v30x_gpio.c:135
            currentpin = ((GPIO_InitStruct->GPIO_Pin) & pos);
    36c8:	fc842783          	lw	a5,-56(s0)
    36cc:	0007d783          	lhu	a5,0(a5)
    36d0:	873e                	mv	a4,a5
    36d2:	fdc42783          	lw	a5,-36(s0)
    36d6:	8ff9                	and	a5,a5,a4
    36d8:	fef42023          	sw	a5,-32(s0)
E:/wch307/CHV307_Library-master/Example/libraries/sdk/Peripheral/ch32v30x_gpio.c:137

            if(currentpin == pos)
    36dc:	fe042703          	lw	a4,-32(s0)
    36e0:	fdc42783          	lw	a5,-36(s0)
    36e4:	08f71263          	bne	a4,a5,3768 <GPIO_Init+0x204>
E:/wch307/CHV307_Library-master/Example/libraries/sdk/Peripheral/ch32v30x_gpio.c:139
            {
                pos = pinpos << 2;
    36e8:	fe842783          	lw	a5,-24(s0)
    36ec:	078a                	slli	a5,a5,0x2
    36ee:	fcf42e23          	sw	a5,-36(s0)
E:/wch307/CHV307_Library-master/Example/libraries/sdk/Peripheral/ch32v30x_gpio.c:140
                pinmask = ((uint32_t)0x0F) << pos;
    36f2:	fdc42783          	lw	a5,-36(s0)
    36f6:	473d                	li	a4,15
    36f8:	00f717b3          	sll	a5,a4,a5
    36fc:	fcf42c23          	sw	a5,-40(s0)
E:/wch307/CHV307_Library-master/Example/libraries/sdk/Peripheral/ch32v30x_gpio.c:141
                tmpreg &= ~pinmask;
    3700:	fd842783          	lw	a5,-40(s0)
    3704:	fff7c793          	not	a5,a5
    3708:	fe442703          	lw	a4,-28(s0)
    370c:	8ff9                	and	a5,a5,a4
    370e:	fef42223          	sw	a5,-28(s0)
E:/wch307/CHV307_Library-master/Example/libraries/sdk/Peripheral/ch32v30x_gpio.c:142
                tmpreg |= (currentmode << pos);
    3712:	fdc42783          	lw	a5,-36(s0)
    3716:	fec42703          	lw	a4,-20(s0)
    371a:	00f717b3          	sll	a5,a4,a5
    371e:	fe442703          	lw	a4,-28(s0)
    3722:	8fd9                	or	a5,a5,a4
    3724:	fef42223          	sw	a5,-28(s0)
E:/wch307/CHV307_Library-master/Example/libraries/sdk/Peripheral/ch32v30x_gpio.c:144

                if(GPIO_InitStruct->GPIO_Mode == GPIO_Mode_IPD)
    3728:	fc842783          	lw	a5,-56(s0)
    372c:	4798                	lw	a4,8(a5)
    372e:	02800793          	li	a5,40
    3732:	00f71b63          	bne	a4,a5,3748 <GPIO_Init+0x1e4>
E:/wch307/CHV307_Library-master/Example/libraries/sdk/Peripheral/ch32v30x_gpio.c:146
                {
                    GPIOx->BCR = (((uint32_t)0x01) << (pinpos + 0x08));
    3736:	fe842783          	lw	a5,-24(s0)
    373a:	07a1                	addi	a5,a5,8
    373c:	4705                	li	a4,1
    373e:	00f71733          	sll	a4,a4,a5
    3742:	fcc42783          	lw	a5,-52(s0)
    3746:	cbd8                	sw	a4,20(a5)
E:/wch307/CHV307_Library-master/Example/libraries/sdk/Peripheral/ch32v30x_gpio.c:149
                }

                if(GPIO_InitStruct->GPIO_Mode == GPIO_Mode_IPU)
    3748:	fc842783          	lw	a5,-56(s0)
    374c:	4798                	lw	a4,8(a5)
    374e:	04800793          	li	a5,72
    3752:	00f71b63          	bne	a4,a5,3768 <GPIO_Init+0x204>
E:/wch307/CHV307_Library-master/Example/libraries/sdk/Peripheral/ch32v30x_gpio.c:151
                {
                    GPIOx->BSHR = (((uint32_t)0x01) << (pinpos + 0x08));
    3756:	fe842783          	lw	a5,-24(s0)
    375a:	07a1                	addi	a5,a5,8
    375c:	4705                	li	a4,1
    375e:	00f71733          	sll	a4,a4,a5
    3762:	fcc42783          	lw	a5,-52(s0)
    3766:	cb98                	sw	a4,16(a5)
E:/wch307/CHV307_Library-master/Example/libraries/sdk/Peripheral/ch32v30x_gpio.c:132 (discriminator 2)
        for(pinpos = 0x00; pinpos < 0x08; pinpos++)
    3768:	fe842783          	lw	a5,-24(s0)
    376c:	0785                	addi	a5,a5,1
    376e:	fef42423          	sw	a5,-24(s0)
E:/wch307/CHV307_Library-master/Example/libraries/sdk/Peripheral/ch32v30x_gpio.c:132 (discriminator 1)
    3772:	fe842703          	lw	a4,-24(s0)
    3776:	479d                	li	a5,7
    3778:	f4e7f0e3          	bgeu	a5,a4,36b8 <GPIO_Init+0x154>
E:/wch307/CHV307_Library-master/Example/libraries/sdk/Peripheral/ch32v30x_gpio.c:155
                }
            }
        }
        GPIOx->CFGHR = tmpreg;
    377c:	fcc42783          	lw	a5,-52(s0)
    3780:	fe442703          	lw	a4,-28(s0)
    3784:	c3d8                	sw	a4,4(a5)
E:/wch307/CHV307_Library-master/Example/libraries/sdk/Peripheral/ch32v30x_gpio.c:157
    }
}
    3786:	0001                	nop
    3788:	5472                	lw	s0,60(sp)
    378a:	6121                	addi	sp,sp,64
    378c:	8082                	ret

0000378e <GPIO_WriteBit>:
GPIO_WriteBit():
E:/wch307/CHV307_Library-master/Example/libraries/sdk/Peripheral/ch32v30x_gpio.c:303
 *            Bit_SetH - to set the port pin.
 *
 * @return  none
 */
void GPIO_WriteBit(GPIO_TypeDef *GPIOx, uint16_t GPIO_Pin, BitAction BitVal)
{
    378e:	1101                	addi	sp,sp,-32
    3790:	ce22                	sw	s0,28(sp)
    3792:	1000                	addi	s0,sp,32
    3794:	fea42623          	sw	a0,-20(s0)
    3798:	87ae                	mv	a5,a1
    379a:	fec42223          	sw	a2,-28(s0)
    379e:	fef41523          	sh	a5,-22(s0)
E:/wch307/CHV307_Library-master/Example/libraries/sdk/Peripheral/ch32v30x_gpio.c:304
    if(BitVal != Bit_RESET)
    37a2:	fe442783          	lw	a5,-28(s0)
    37a6:	c799                	beqz	a5,37b4 <GPIO_WriteBit+0x26>
E:/wch307/CHV307_Library-master/Example/libraries/sdk/Peripheral/ch32v30x_gpio.c:306
    {
        GPIOx->BSHR = GPIO_Pin;
    37a8:	fea45703          	lhu	a4,-22(s0)
    37ac:	fec42783          	lw	a5,-20(s0)
    37b0:	cb98                	sw	a4,16(a5)
E:/wch307/CHV307_Library-master/Example/libraries/sdk/Peripheral/ch32v30x_gpio.c:312
    }
    else
    {
        GPIOx->BCR = GPIO_Pin;
    }
}
    37b2:	a031                	j	37be <GPIO_WriteBit+0x30>
E:/wch307/CHV307_Library-master/Example/libraries/sdk/Peripheral/ch32v30x_gpio.c:310
        GPIOx->BCR = GPIO_Pin;
    37b4:	fea45703          	lhu	a4,-22(s0)
    37b8:	fec42783          	lw	a5,-20(s0)
    37bc:	cbd8                	sw	a4,20(a5)
E:/wch307/CHV307_Library-master/Example/libraries/sdk/Peripheral/ch32v30x_gpio.c:312
}
    37be:	0001                	nop
    37c0:	4472                	lw	s0,28(sp)
    37c2:	6105                	addi	sp,sp,32
    37c4:	8082                	ret

000037c6 <RCC_GetClocksFreq>:
RCC_GetClocksFreq():
E:/wch307/CHV307_Library-master/Example/libraries/sdk/Peripheral/ch32v30x_rcc.c:567
 *        the clocks frequencies.
 *
 * @return  none
 */
void RCC_GetClocksFreq(RCC_ClocksTypeDef *RCC_Clocks)
{
    37c6:	7139                	addi	sp,sp,-64
    37c8:	de22                	sw	s0,60(sp)
    37ca:	0080                	addi	s0,sp,64
    37cc:	fca42623          	sw	a0,-52(s0)
E:/wch307/CHV307_Library-master/Example/libraries/sdk/Peripheral/ch32v30x_rcc.c:568
    uint32_t tmp = 0, pllmull = 0, pllsource = 0, presc = 0, Pll_6_5 = 0;
    37d0:	fe042223          	sw	zero,-28(s0)
    37d4:	fe042623          	sw	zero,-20(s0)
    37d8:	fe042023          	sw	zero,-32(s0)
    37dc:	fc042e23          	sw	zero,-36(s0)
    37e0:	fe042423          	sw	zero,-24(s0)
E:/wch307/CHV307_Library-master/Example/libraries/sdk/Peripheral/ch32v30x_rcc.c:570

    tmp = RCC->CFGR0 & CFGR0_SWS_Mask;
    37e4:	400217b7          	lui	a5,0x40021
    37e8:	43dc                	lw	a5,4(a5)
    37ea:	8bb1                	andi	a5,a5,12
    37ec:	fef42223          	sw	a5,-28(s0)
    37f0:	fe442703          	lw	a4,-28(s0)
    37f4:	4791                	li	a5,4
    37f6:	02f70363          	beq	a4,a5,381c <RCC_GetClocksFreq+0x56>
    37fa:	fe442703          	lw	a4,-28(s0)
    37fe:	47a1                	li	a5,8
    3800:	02f70663          	beq	a4,a5,382c <RCC_GetClocksFreq+0x66>
    3804:	fe442783          	lw	a5,-28(s0)
    3808:	14079963          	bnez	a5,395a <RCC_GetClocksFreq+0x194>
E:/wch307/CHV307_Library-master/Example/libraries/sdk/Peripheral/ch32v30x_rcc.c:575

    switch(tmp)
    {
        case 0x00:
            RCC_Clocks->SYSCLK_Frequency = HSI_VALUE;
    380c:	fcc42783          	lw	a5,-52(s0)
    3810:	007a1737          	lui	a4,0x7a1
    3814:	20070713          	addi	a4,a4,512 # 7a1200 <_data_lma+0x795e2c>
    3818:	c398                	sw	a4,0(a5)
E:/wch307/CHV307_Library-master/Example/libraries/sdk/Peripheral/ch32v30x_rcc.c:576
            break;
    381a:	aa89                	j	396c <RCC_GetClocksFreq+0x1a6>
E:/wch307/CHV307_Library-master/Example/libraries/sdk/Peripheral/ch32v30x_rcc.c:579

        case 0x04:
            RCC_Clocks->SYSCLK_Frequency = HSE_VALUE;
    381c:	fcc42783          	lw	a5,-52(s0)
    3820:	007a1737          	lui	a4,0x7a1
    3824:	20070713          	addi	a4,a4,512 # 7a1200 <_data_lma+0x795e2c>
    3828:	c398                	sw	a4,0(a5)
E:/wch307/CHV307_Library-master/Example/libraries/sdk/Peripheral/ch32v30x_rcc.c:580
            break;
    382a:	a289                	j	396c <RCC_GetClocksFreq+0x1a6>
E:/wch307/CHV307_Library-master/Example/libraries/sdk/Peripheral/ch32v30x_rcc.c:583

        case 0x08:
            pllmull = RCC->CFGR0 & CFGR0_PLLMull_Mask;
    382c:	400217b7          	lui	a5,0x40021
    3830:	43d8                	lw	a4,4(a5)
    3832:	003c07b7          	lui	a5,0x3c0
    3836:	8ff9                	and	a5,a5,a4
    3838:	fef42623          	sw	a5,-20(s0)
E:/wch307/CHV307_Library-master/Example/libraries/sdk/Peripheral/ch32v30x_rcc.c:584
            pllsource = RCC->CFGR0 & CFGR0_PLLSRC_Mask;
    383c:	400217b7          	lui	a5,0x40021
    3840:	43d8                	lw	a4,4(a5)
    3842:	67c1                	lui	a5,0x10
    3844:	8ff9                	and	a5,a5,a4
    3846:	fef42023          	sw	a5,-32(s0)
E:/wch307/CHV307_Library-master/Example/libraries/sdk/Peripheral/ch32v30x_rcc.c:586

            pllmull = (pllmull >> 18) + 2;
    384a:	fec42783          	lw	a5,-20(s0)
    384e:	83c9                	srli	a5,a5,0x12
    3850:	0789                	addi	a5,a5,2
    3852:	fef42623          	sw	a5,-20(s0)
E:/wch307/CHV307_Library-master/Example/libraries/sdk/Peripheral/ch32v30x_rcc.c:588

            if(((*(uint32_t *)0x1FFFF70C) & (1 << 14)) != (1 << 14))
    3856:	1ffff7b7          	lui	a5,0x1ffff
    385a:	70c78793          	addi	a5,a5,1804 # 1ffff70c <_data_lma+0x1fff4338>
    385e:	4398                	lw	a4,0(a5)
    3860:	6791                	lui	a5,0x4
    3862:	8ff9                	and	a5,a5,a4
    3864:	eb91                	bnez	a5,3878 <RCC_GetClocksFreq+0xb2>
E:/wch307/CHV307_Library-master/Example/libraries/sdk/Peripheral/ch32v30x_rcc.c:590
            { /* for other CH32V30x */
                if(pllmull == 17)
    3866:	fec42703          	lw	a4,-20(s0)
    386a:	47c5                	li	a5,17
    386c:	04f71963          	bne	a4,a5,38be <RCC_GetClocksFreq+0xf8>
E:/wch307/CHV307_Library-master/Example/libraries/sdk/Peripheral/ch32v30x_rcc.c:591
                    pllmull = 18;
    3870:	47c9                	li	a5,18
    3872:	fef42623          	sw	a5,-20(s0)
    3876:	a0a1                	j	38be <RCC_GetClocksFreq+0xf8>
E:/wch307/CHV307_Library-master/Example/libraries/sdk/Peripheral/ch32v30x_rcc.c:595
            }
            else
            { /* for CH32V307 */
                if(pllmull == 2)
    3878:	fec42703          	lw	a4,-20(s0)
    387c:	4789                	li	a5,2
    387e:	00f71563          	bne	a4,a5,3888 <RCC_GetClocksFreq+0xc2>
E:/wch307/CHV307_Library-master/Example/libraries/sdk/Peripheral/ch32v30x_rcc.c:596
                    pllmull = 18;
    3882:	47c9                	li	a5,18
    3884:	fef42623          	sw	a5,-20(s0)
E:/wch307/CHV307_Library-master/Example/libraries/sdk/Peripheral/ch32v30x_rcc.c:597
                if(pllmull == 15)
    3888:	fec42703          	lw	a4,-20(s0)
    388c:	47bd                	li	a5,15
    388e:	00f71863          	bne	a4,a5,389e <RCC_GetClocksFreq+0xd8>
E:/wch307/CHV307_Library-master/Example/libraries/sdk/Peripheral/ch32v30x_rcc.c:599
                {
                    pllmull = 13; /* *6.5 */
    3892:	47b5                	li	a5,13
    3894:	fef42623          	sw	a5,-20(s0)
E:/wch307/CHV307_Library-master/Example/libraries/sdk/Peripheral/ch32v30x_rcc.c:600
                    Pll_6_5 = 1;
    3898:	4785                	li	a5,1
    389a:	fef42423          	sw	a5,-24(s0)
E:/wch307/CHV307_Library-master/Example/libraries/sdk/Peripheral/ch32v30x_rcc.c:602
                }
                if(pllmull == 16)
    389e:	fec42703          	lw	a4,-20(s0)
    38a2:	47c1                	li	a5,16
    38a4:	00f71563          	bne	a4,a5,38ae <RCC_GetClocksFreq+0xe8>
E:/wch307/CHV307_Library-master/Example/libraries/sdk/Peripheral/ch32v30x_rcc.c:603
                    pllmull = 15;
    38a8:	47bd                	li	a5,15
    38aa:	fef42623          	sw	a5,-20(s0)
E:/wch307/CHV307_Library-master/Example/libraries/sdk/Peripheral/ch32v30x_rcc.c:604
                if(pllmull == 17)
    38ae:	fec42703          	lw	a4,-20(s0)
    38b2:	47c5                	li	a5,17
    38b4:	00f71563          	bne	a4,a5,38be <RCC_GetClocksFreq+0xf8>
E:/wch307/CHV307_Library-master/Example/libraries/sdk/Peripheral/ch32v30x_rcc.c:605
                    pllmull = 16;
    38b8:	47c1                	li	a5,16
    38ba:	fef42623          	sw	a5,-20(s0)
E:/wch307/CHV307_Library-master/Example/libraries/sdk/Peripheral/ch32v30x_rcc.c:608
            }

            if(pllsource == 0x00)
    38be:	fe042783          	lw	a5,-32(s0)
    38c2:	e3a1                	bnez	a5,3902 <RCC_GetClocksFreq+0x13c>
E:/wch307/CHV307_Library-master/Example/libraries/sdk/Peripheral/ch32v30x_rcc.c:610
            {
                if(EXTEN->EXTEN_CTR & EXTEN_PLL_HSI_PRE)
    38c4:	400247b7          	lui	a5,0x40024
    38c8:	80078793          	addi	a5,a5,-2048 # 40023800 <_eusrstack+0x20013800>
    38cc:	439c                	lw	a5,0(a5)
    38ce:	8bc1                	andi	a5,a5,16
    38d0:	cf89                	beqz	a5,38ea <RCC_GetClocksFreq+0x124>
E:/wch307/CHV307_Library-master/Example/libraries/sdk/Peripheral/ch32v30x_rcc.c:612
                {
                    RCC_Clocks->SYSCLK_Frequency = (HSI_VALUE)*pllmull;
    38d2:	fec42703          	lw	a4,-20(s0)
    38d6:	007a17b7          	lui	a5,0x7a1
    38da:	20078793          	addi	a5,a5,512 # 7a1200 <_data_lma+0x795e2c>
    38de:	02f70733          	mul	a4,a4,a5
    38e2:	fcc42783          	lw	a5,-52(s0)
    38e6:	c398                	sw	a4,0(a5)
    38e8:	a899                	j	393e <RCC_GetClocksFreq+0x178>
E:/wch307/CHV307_Library-master/Example/libraries/sdk/Peripheral/ch32v30x_rcc.c:616
                }
                else
                {
                    RCC_Clocks->SYSCLK_Frequency = (HSI_VALUE >> 1) * pllmull;
    38ea:	fec42703          	lw	a4,-20(s0)
    38ee:	003d17b7          	lui	a5,0x3d1
    38f2:	90078793          	addi	a5,a5,-1792 # 3d0900 <_data_lma+0x3c552c>
    38f6:	02f70733          	mul	a4,a4,a5
    38fa:	fcc42783          	lw	a5,-52(s0)
    38fe:	c398                	sw	a4,0(a5)
    3900:	a83d                	j	393e <RCC_GetClocksFreq+0x178>
E:/wch307/CHV307_Library-master/Example/libraries/sdk/Peripheral/ch32v30x_rcc.c:621
                }
            }
            else
            {
                if((RCC->CFGR0 & CFGR0_PLLXTPRE_Mask) != (uint32_t)RESET)
    3902:	400217b7          	lui	a5,0x40021
    3906:	43d8                	lw	a4,4(a5)
    3908:	000207b7          	lui	a5,0x20
    390c:	8ff9                	and	a5,a5,a4
    390e:	cf89                	beqz	a5,3928 <RCC_GetClocksFreq+0x162>
E:/wch307/CHV307_Library-master/Example/libraries/sdk/Peripheral/ch32v30x_rcc.c:623
                {
                    RCC_Clocks->SYSCLK_Frequency = (HSE_VALUE >> 1) * pllmull;
    3910:	fec42703          	lw	a4,-20(s0)
    3914:	003d17b7          	lui	a5,0x3d1
    3918:	90078793          	addi	a5,a5,-1792 # 3d0900 <_data_lma+0x3c552c>
    391c:	02f70733          	mul	a4,a4,a5
    3920:	fcc42783          	lw	a5,-52(s0)
    3924:	c398                	sw	a4,0(a5)
    3926:	a821                	j	393e <RCC_GetClocksFreq+0x178>
E:/wch307/CHV307_Library-master/Example/libraries/sdk/Peripheral/ch32v30x_rcc.c:627
                }
                else
                {
                    RCC_Clocks->SYSCLK_Frequency = HSE_VALUE * pllmull;
    3928:	fec42703          	lw	a4,-20(s0)
    392c:	007a17b7          	lui	a5,0x7a1
    3930:	20078793          	addi	a5,a5,512 # 7a1200 <_data_lma+0x795e2c>
    3934:	02f70733          	mul	a4,a4,a5
    3938:	fcc42783          	lw	a5,-52(s0)
    393c:	c398                	sw	a4,0(a5)
E:/wch307/CHV307_Library-master/Example/libraries/sdk/Peripheral/ch32v30x_rcc.c:631
                }
            }

            if(Pll_6_5 == 1)
    393e:	fe842703          	lw	a4,-24(s0)
    3942:	4785                	li	a5,1
    3944:	02f71363          	bne	a4,a5,396a <RCC_GetClocksFreq+0x1a4>
E:/wch307/CHV307_Library-master/Example/libraries/sdk/Peripheral/ch32v30x_rcc.c:632
                RCC_Clocks->SYSCLK_Frequency = (RCC_Clocks->SYSCLK_Frequency / 2);
    3948:	fcc42783          	lw	a5,-52(s0)
    394c:	439c                	lw	a5,0(a5)
    394e:	0017d713          	srli	a4,a5,0x1
    3952:	fcc42783          	lw	a5,-52(s0)
    3956:	c398                	sw	a4,0(a5)
E:/wch307/CHV307_Library-master/Example/libraries/sdk/Peripheral/ch32v30x_rcc.c:634

            break;
    3958:	a809                	j	396a <RCC_GetClocksFreq+0x1a4>
E:/wch307/CHV307_Library-master/Example/libraries/sdk/Peripheral/ch32v30x_rcc.c:637

        default:
            RCC_Clocks->SYSCLK_Frequency = HSI_VALUE;
    395a:	fcc42783          	lw	a5,-52(s0)
    395e:	007a1737          	lui	a4,0x7a1
    3962:	20070713          	addi	a4,a4,512 # 7a1200 <_data_lma+0x795e2c>
    3966:	c398                	sw	a4,0(a5)
E:/wch307/CHV307_Library-master/Example/libraries/sdk/Peripheral/ch32v30x_rcc.c:638
            break;
    3968:	a011                	j	396c <RCC_GetClocksFreq+0x1a6>
E:/wch307/CHV307_Library-master/Example/libraries/sdk/Peripheral/ch32v30x_rcc.c:634
            break;
    396a:	0001                	nop
E:/wch307/CHV307_Library-master/Example/libraries/sdk/Peripheral/ch32v30x_rcc.c:641
    }

    tmp = RCC->CFGR0 & CFGR0_HPRE_Set_Mask;
    396c:	400217b7          	lui	a5,0x40021
    3970:	43dc                	lw	a5,4(a5)
    3972:	0f07f793          	andi	a5,a5,240
    3976:	fef42223          	sw	a5,-28(s0)
E:/wch307/CHV307_Library-master/Example/libraries/sdk/Peripheral/ch32v30x_rcc.c:642
    tmp = tmp >> 4;
    397a:	fe442783          	lw	a5,-28(s0)
    397e:	8391                	srli	a5,a5,0x4
    3980:	fef42223          	sw	a5,-28(s0)
E:/wch307/CHV307_Library-master/Example/libraries/sdk/Peripheral/ch32v30x_rcc.c:643
    presc = APBAHBPrescTable[tmp];
    3984:	200007b7          	lui	a5,0x20000
    3988:	01478713          	addi	a4,a5,20 # 20000014 <APBAHBPrescTable>
    398c:	fe442783          	lw	a5,-28(s0)
    3990:	97ba                	add	a5,a5,a4
    3992:	0007c783          	lbu	a5,0(a5)
    3996:	0ff7f793          	andi	a5,a5,255
    399a:	fcf42e23          	sw	a5,-36(s0)
E:/wch307/CHV307_Library-master/Example/libraries/sdk/Peripheral/ch32v30x_rcc.c:644
    RCC_Clocks->HCLK_Frequency = RCC_Clocks->SYSCLK_Frequency >> presc;
    399e:	fcc42783          	lw	a5,-52(s0)
    39a2:	4398                	lw	a4,0(a5)
    39a4:	fdc42783          	lw	a5,-36(s0)
    39a8:	00f75733          	srl	a4,a4,a5
    39ac:	fcc42783          	lw	a5,-52(s0)
    39b0:	c3d8                	sw	a4,4(a5)
E:/wch307/CHV307_Library-master/Example/libraries/sdk/Peripheral/ch32v30x_rcc.c:645
    tmp = RCC->CFGR0 & CFGR0_PPRE1_Set_Mask;
    39b2:	400217b7          	lui	a5,0x40021
    39b6:	43dc                	lw	a5,4(a5)
    39b8:	7007f793          	andi	a5,a5,1792
    39bc:	fef42223          	sw	a5,-28(s0)
E:/wch307/CHV307_Library-master/Example/libraries/sdk/Peripheral/ch32v30x_rcc.c:646
    tmp = tmp >> 8;
    39c0:	fe442783          	lw	a5,-28(s0)
    39c4:	83a1                	srli	a5,a5,0x8
    39c6:	fef42223          	sw	a5,-28(s0)
E:/wch307/CHV307_Library-master/Example/libraries/sdk/Peripheral/ch32v30x_rcc.c:647
    presc = APBAHBPrescTable[tmp];
    39ca:	200007b7          	lui	a5,0x20000
    39ce:	01478713          	addi	a4,a5,20 # 20000014 <APBAHBPrescTable>
    39d2:	fe442783          	lw	a5,-28(s0)
    39d6:	97ba                	add	a5,a5,a4
    39d8:	0007c783          	lbu	a5,0(a5)
    39dc:	0ff7f793          	andi	a5,a5,255
    39e0:	fcf42e23          	sw	a5,-36(s0)
E:/wch307/CHV307_Library-master/Example/libraries/sdk/Peripheral/ch32v30x_rcc.c:648
    RCC_Clocks->PCLK1_Frequency = RCC_Clocks->HCLK_Frequency >> presc;
    39e4:	fcc42783          	lw	a5,-52(s0)
    39e8:	43d8                	lw	a4,4(a5)
    39ea:	fdc42783          	lw	a5,-36(s0)
    39ee:	00f75733          	srl	a4,a4,a5
    39f2:	fcc42783          	lw	a5,-52(s0)
    39f6:	c798                	sw	a4,8(a5)
E:/wch307/CHV307_Library-master/Example/libraries/sdk/Peripheral/ch32v30x_rcc.c:649
    tmp = RCC->CFGR0 & CFGR0_PPRE2_Set_Mask;
    39f8:	400217b7          	lui	a5,0x40021
    39fc:	43d8                	lw	a4,4(a5)
    39fe:	6791                	lui	a5,0x4
    3a00:	80078793          	addi	a5,a5,-2048 # 3800 <RCC_GetClocksFreq+0x3a>
    3a04:	8ff9                	and	a5,a5,a4
    3a06:	fef42223          	sw	a5,-28(s0)
E:/wch307/CHV307_Library-master/Example/libraries/sdk/Peripheral/ch32v30x_rcc.c:650
    tmp = tmp >> 11;
    3a0a:	fe442783          	lw	a5,-28(s0)
    3a0e:	83ad                	srli	a5,a5,0xb
    3a10:	fef42223          	sw	a5,-28(s0)
E:/wch307/CHV307_Library-master/Example/libraries/sdk/Peripheral/ch32v30x_rcc.c:651
    presc = APBAHBPrescTable[tmp];
    3a14:	200007b7          	lui	a5,0x20000
    3a18:	01478713          	addi	a4,a5,20 # 20000014 <APBAHBPrescTable>
    3a1c:	fe442783          	lw	a5,-28(s0)
    3a20:	97ba                	add	a5,a5,a4
    3a22:	0007c783          	lbu	a5,0(a5)
    3a26:	0ff7f793          	andi	a5,a5,255
    3a2a:	fcf42e23          	sw	a5,-36(s0)
E:/wch307/CHV307_Library-master/Example/libraries/sdk/Peripheral/ch32v30x_rcc.c:652
    RCC_Clocks->PCLK2_Frequency = RCC_Clocks->HCLK_Frequency >> presc;
    3a2e:	fcc42783          	lw	a5,-52(s0)
    3a32:	43d8                	lw	a4,4(a5)
    3a34:	fdc42783          	lw	a5,-36(s0)
    3a38:	00f75733          	srl	a4,a4,a5
    3a3c:	fcc42783          	lw	a5,-52(s0)
    3a40:	c7d8                	sw	a4,12(a5)
E:/wch307/CHV307_Library-master/Example/libraries/sdk/Peripheral/ch32v30x_rcc.c:653
    tmp = RCC->CFGR0 & CFGR0_ADCPRE_Set_Mask;
    3a42:	400217b7          	lui	a5,0x40021
    3a46:	43d8                	lw	a4,4(a5)
    3a48:	67b1                	lui	a5,0xc
    3a4a:	8ff9                	and	a5,a5,a4
    3a4c:	fef42223          	sw	a5,-28(s0)
E:/wch307/CHV307_Library-master/Example/libraries/sdk/Peripheral/ch32v30x_rcc.c:654
    tmp = tmp >> 14;
    3a50:	fe442783          	lw	a5,-28(s0)
    3a54:	83b9                	srli	a5,a5,0xe
    3a56:	fef42223          	sw	a5,-28(s0)
E:/wch307/CHV307_Library-master/Example/libraries/sdk/Peripheral/ch32v30x_rcc.c:655
    presc = ADCPrescTable[tmp];
    3a5a:	81418713          	addi	a4,gp,-2028 # 2000024c <ADCPrescTable>
    3a5e:	fe442783          	lw	a5,-28(s0)
    3a62:	97ba                	add	a5,a5,a4
    3a64:	0007c783          	lbu	a5,0(a5) # c000 <_data_lma+0xc2c>
    3a68:	0ff7f793          	andi	a5,a5,255
    3a6c:	fcf42e23          	sw	a5,-36(s0)
E:/wch307/CHV307_Library-master/Example/libraries/sdk/Peripheral/ch32v30x_rcc.c:656
    RCC_Clocks->ADCCLK_Frequency = RCC_Clocks->PCLK2_Frequency / presc;
    3a70:	fcc42783          	lw	a5,-52(s0)
    3a74:	47d8                	lw	a4,12(a5)
    3a76:	fdc42783          	lw	a5,-36(s0)
    3a7a:	02f75733          	divu	a4,a4,a5
    3a7e:	fcc42783          	lw	a5,-52(s0)
    3a82:	cb98                	sw	a4,16(a5)
E:/wch307/CHV307_Library-master/Example/libraries/sdk/Peripheral/ch32v30x_rcc.c:657
}
    3a84:	0001                	nop
    3a86:	5472                	lw	s0,60(sp)
    3a88:	6121                	addi	sp,sp,64
    3a8a:	8082                	ret

00003a8c <RCC_APB2PeriphClockCmd>:
RCC_APB2PeriphClockCmd():
E:/wch307/CHV307_Library-master/Example/libraries/sdk/Peripheral/ch32v30x_rcc.c:719
 *          NewState - ENABLE or DISABLE
 *
 * @return  none
 */
void RCC_APB2PeriphClockCmd(uint32_t RCC_APB2Periph, FunctionalState NewState)
{
    3a8c:	1101                	addi	sp,sp,-32
    3a8e:	ce22                	sw	s0,28(sp)
    3a90:	1000                	addi	s0,sp,32
    3a92:	fea42623          	sw	a0,-20(s0)
    3a96:	feb42423          	sw	a1,-24(s0)
E:/wch307/CHV307_Library-master/Example/libraries/sdk/Peripheral/ch32v30x_rcc.c:720
    if(NewState != DISABLE)
    3a9a:	fe842783          	lw	a5,-24(s0)
    3a9e:	cb99                	beqz	a5,3ab4 <RCC_APB2PeriphClockCmd+0x28>
E:/wch307/CHV307_Library-master/Example/libraries/sdk/Peripheral/ch32v30x_rcc.c:722
    {
        RCC->APB2PCENR |= RCC_APB2Periph;
    3aa0:	400217b7          	lui	a5,0x40021
    3aa4:	4f94                	lw	a3,24(a5)
    3aa6:	400217b7          	lui	a5,0x40021
    3aaa:	fec42703          	lw	a4,-20(s0)
    3aae:	8f55                	or	a4,a4,a3
    3ab0:	cf98                	sw	a4,24(a5)
E:/wch307/CHV307_Library-master/Example/libraries/sdk/Peripheral/ch32v30x_rcc.c:728
    }
    else
    {
        RCC->APB2PCENR &= ~RCC_APB2Periph;
    }
}
    3ab2:	a821                	j	3aca <RCC_APB2PeriphClockCmd+0x3e>
E:/wch307/CHV307_Library-master/Example/libraries/sdk/Peripheral/ch32v30x_rcc.c:726
        RCC->APB2PCENR &= ~RCC_APB2Periph;
    3ab4:	400217b7          	lui	a5,0x40021
    3ab8:	4f94                	lw	a3,24(a5)
    3aba:	fec42783          	lw	a5,-20(s0)
    3abe:	fff7c713          	not	a4,a5
    3ac2:	400217b7          	lui	a5,0x40021
    3ac6:	8f75                	and	a4,a4,a3
    3ac8:	cf98                	sw	a4,24(a5)
E:/wch307/CHV307_Library-master/Example/libraries/sdk/Peripheral/ch32v30x_rcc.c:728
}
    3aca:	0001                	nop
    3acc:	4472                	lw	s0,28(sp)
    3ace:	6105                	addi	sp,sp,32
    3ad0:	8082                	ret

00003ad2 <RCC_APB1PeriphClockCmd>:
RCC_APB1PeriphClockCmd():
E:/wch307/CHV307_Library-master/Example/libraries/sdk/Peripheral/ch32v30x_rcc.c:764
 *          NewState - ENABLE or DISABLE.
 *
 * @return  none
 */
void RCC_APB1PeriphClockCmd(uint32_t RCC_APB1Periph, FunctionalState NewState)
{
    3ad2:	1101                	addi	sp,sp,-32
    3ad4:	ce22                	sw	s0,28(sp)
    3ad6:	1000                	addi	s0,sp,32
    3ad8:	fea42623          	sw	a0,-20(s0)
    3adc:	feb42423          	sw	a1,-24(s0)
E:/wch307/CHV307_Library-master/Example/libraries/sdk/Peripheral/ch32v30x_rcc.c:765
    if(NewState != DISABLE)
    3ae0:	fe842783          	lw	a5,-24(s0)
    3ae4:	cb99                	beqz	a5,3afa <RCC_APB1PeriphClockCmd+0x28>
E:/wch307/CHV307_Library-master/Example/libraries/sdk/Peripheral/ch32v30x_rcc.c:767
    {
        RCC->APB1PCENR |= RCC_APB1Periph;
    3ae6:	400217b7          	lui	a5,0x40021
    3aea:	4fd4                	lw	a3,28(a5)
    3aec:	400217b7          	lui	a5,0x40021
    3af0:	fec42703          	lw	a4,-20(s0)
    3af4:	8f55                	or	a4,a4,a3
    3af6:	cfd8                	sw	a4,28(a5)
E:/wch307/CHV307_Library-master/Example/libraries/sdk/Peripheral/ch32v30x_rcc.c:773
    }
    else
    {
        RCC->APB1PCENR &= ~RCC_APB1Periph;
    }
}
    3af8:	a821                	j	3b10 <RCC_APB1PeriphClockCmd+0x3e>
E:/wch307/CHV307_Library-master/Example/libraries/sdk/Peripheral/ch32v30x_rcc.c:771
        RCC->APB1PCENR &= ~RCC_APB1Periph;
    3afa:	400217b7          	lui	a5,0x40021
    3afe:	4fd4                	lw	a3,28(a5)
    3b00:	fec42783          	lw	a5,-20(s0)
    3b04:	fff7c713          	not	a4,a5
    3b08:	400217b7          	lui	a5,0x40021
    3b0c:	8f75                	and	a4,a4,a3
    3b0e:	cfd8                	sw	a4,28(a5)
E:/wch307/CHV307_Library-master/Example/libraries/sdk/Peripheral/ch32v30x_rcc.c:773
}
    3b10:	0001                	nop
    3b12:	4472                	lw	s0,28(sp)
    3b14:	6105                	addi	sp,sp,32
    3b16:	8082                	ret

00003b18 <TIM_GetITStatus>:
TIM_GetITStatus():
E:/wch307/CHV307_Library-master/Example/libraries/sdk/Peripheral/ch32v30x_tim.c:2129
 *            TIM_IT_Break - TIM Break Interrupt source.
 *
 * @return  none
 */
ITStatus TIM_GetITStatus(TIM_TypeDef *TIMx, uint16_t TIM_IT)
{
    3b18:	7179                	addi	sp,sp,-48
    3b1a:	d622                	sw	s0,44(sp)
    3b1c:	1800                	addi	s0,sp,48
    3b1e:	fca42e23          	sw	a0,-36(s0)
    3b22:	87ae                	mv	a5,a1
    3b24:	fcf41d23          	sh	a5,-38(s0)
E:/wch307/CHV307_Library-master/Example/libraries/sdk/Peripheral/ch32v30x_tim.c:2130
    ITStatus bitstatus = RESET;
    3b28:	fe042623          	sw	zero,-20(s0)
E:/wch307/CHV307_Library-master/Example/libraries/sdk/Peripheral/ch32v30x_tim.c:2131
    uint16_t itstatus = 0x0, itenable = 0x0;
    3b2c:	fe041523          	sh	zero,-22(s0)
    3b30:	fe041423          	sh	zero,-24(s0)
E:/wch307/CHV307_Library-master/Example/libraries/sdk/Peripheral/ch32v30x_tim.c:2133

    itstatus = TIMx->INTFR & TIM_IT;
    3b34:	fdc42783          	lw	a5,-36(s0)
    3b38:	0107d783          	lhu	a5,16(a5) # 40021010 <_eusrstack+0x20011010>
    3b3c:	01079713          	slli	a4,a5,0x10
    3b40:	8341                	srli	a4,a4,0x10
    3b42:	fda45783          	lhu	a5,-38(s0)
    3b46:	8ff9                	and	a5,a5,a4
    3b48:	fef41523          	sh	a5,-22(s0)
E:/wch307/CHV307_Library-master/Example/libraries/sdk/Peripheral/ch32v30x_tim.c:2135

    itenable = TIMx->DMAINTENR & TIM_IT;
    3b4c:	fdc42783          	lw	a5,-36(s0)
    3b50:	00c7d783          	lhu	a5,12(a5)
    3b54:	01079713          	slli	a4,a5,0x10
    3b58:	8341                	srli	a4,a4,0x10
    3b5a:	fda45783          	lhu	a5,-38(s0)
    3b5e:	8ff9                	and	a5,a5,a4
    3b60:	fef41423          	sh	a5,-24(s0)
E:/wch307/CHV307_Library-master/Example/libraries/sdk/Peripheral/ch32v30x_tim.c:2136
    if((itstatus != (uint16_t)RESET) && (itenable != (uint16_t)RESET))
    3b64:	fea45783          	lhu	a5,-22(s0)
    3b68:	cb81                	beqz	a5,3b78 <TIM_GetITStatus+0x60>
E:/wch307/CHV307_Library-master/Example/libraries/sdk/Peripheral/ch32v30x_tim.c:2136 (discriminator 1)
    3b6a:	fe845783          	lhu	a5,-24(s0)
    3b6e:	c789                	beqz	a5,3b78 <TIM_GetITStatus+0x60>
E:/wch307/CHV307_Library-master/Example/libraries/sdk/Peripheral/ch32v30x_tim.c:2138
    {
        bitstatus = SET;
    3b70:	4785                	li	a5,1
    3b72:	fef42623          	sw	a5,-20(s0)
    3b76:	a019                	j	3b7c <TIM_GetITStatus+0x64>
E:/wch307/CHV307_Library-master/Example/libraries/sdk/Peripheral/ch32v30x_tim.c:2142
    }
    else
    {
        bitstatus = RESET;
    3b78:	fe042623          	sw	zero,-20(s0)
E:/wch307/CHV307_Library-master/Example/libraries/sdk/Peripheral/ch32v30x_tim.c:2145
    }

    return bitstatus;
    3b7c:	fec42783          	lw	a5,-20(s0)
E:/wch307/CHV307_Library-master/Example/libraries/sdk/Peripheral/ch32v30x_tim.c:2146
}
    3b80:	853e                	mv	a0,a5
    3b82:	5432                	lw	s0,44(sp)
    3b84:	6145                	addi	sp,sp,48
    3b86:	8082                	ret

00003b88 <TIM_ClearITPendingBit>:
TIM_ClearITPendingBit():
E:/wch307/CHV307_Library-master/Example/libraries/sdk/Peripheral/ch32v30x_tim.c:2167
 *            TIM_IT_Break - TIM Break Interrupt source.
 *
 * @return  none
 */
void TIM_ClearITPendingBit(TIM_TypeDef *TIMx, uint16_t TIM_IT)
{
    3b88:	1101                	addi	sp,sp,-32
    3b8a:	ce22                	sw	s0,28(sp)
    3b8c:	1000                	addi	s0,sp,32
    3b8e:	fea42623          	sw	a0,-20(s0)
    3b92:	87ae                	mv	a5,a1
    3b94:	fef41523          	sh	a5,-22(s0)
E:/wch307/CHV307_Library-master/Example/libraries/sdk/Peripheral/ch32v30x_tim.c:2168
    TIMx->INTFR = (uint16_t)~TIM_IT;
    3b98:	fea45783          	lhu	a5,-22(s0)
    3b9c:	fff7c793          	not	a5,a5
    3ba0:	01079713          	slli	a4,a5,0x10
    3ba4:	8341                	srli	a4,a4,0x10
    3ba6:	fec42783          	lw	a5,-20(s0)
    3baa:	00e79823          	sh	a4,16(a5)
E:/wch307/CHV307_Library-master/Example/libraries/sdk/Peripheral/ch32v30x_tim.c:2169
}
    3bae:	0001                	nop
    3bb0:	4472                	lw	s0,28(sp)
    3bb2:	6105                	addi	sp,sp,32
    3bb4:	8082                	ret

00003bb6 <USART_Init>:
USART_Init():
E:/wch307/CHV307_Library-master/Example/libraries/sdk/Peripheral/ch32v30x_usart.c:126
 *        USART peripheral.
 *
 * @return  none
 */
void USART_Init(USART_TypeDef *USARTx, USART_InitTypeDef *USART_InitStruct)
{
    3bb6:	715d                	addi	sp,sp,-80
    3bb8:	c686                	sw	ra,76(sp)
    3bba:	c4a2                	sw	s0,72(sp)
    3bbc:	0880                	addi	s0,sp,80
    3bbe:	faa42e23          	sw	a0,-68(s0)
    3bc2:	fab42c23          	sw	a1,-72(s0)
E:/wch307/CHV307_Library-master/Example/libraries/sdk/Peripheral/ch32v30x_usart.c:127
    uint32_t          tmpreg = 0x00, apbclock = 0x00;
    3bc6:	fe042623          	sw	zero,-20(s0)
    3bca:	fe042423          	sw	zero,-24(s0)
E:/wch307/CHV307_Library-master/Example/libraries/sdk/Peripheral/ch32v30x_usart.c:128
    uint32_t          integerdivider = 0x00;
    3bce:	fe042223          	sw	zero,-28(s0)
E:/wch307/CHV307_Library-master/Example/libraries/sdk/Peripheral/ch32v30x_usart.c:129
    uint32_t          fractionaldivider = 0x00;
    3bd2:	fe042023          	sw	zero,-32(s0)
E:/wch307/CHV307_Library-master/Example/libraries/sdk/Peripheral/ch32v30x_usart.c:130
    uint32_t          usartxbase = 0;
    3bd6:	fc042e23          	sw	zero,-36(s0)
E:/wch307/CHV307_Library-master/Example/libraries/sdk/Peripheral/ch32v30x_usart.c:137

    if(USART_InitStruct->USART_HardwareFlowControl != USART_HardwareFlowControl_None)
    {
    }

    usartxbase = (uint32_t)USARTx;
    3bda:	fbc42783          	lw	a5,-68(s0)
    3bde:	fcf42e23          	sw	a5,-36(s0)
E:/wch307/CHV307_Library-master/Example/libraries/sdk/Peripheral/ch32v30x_usart.c:138
    tmpreg = USARTx->CTLR2;
    3be2:	fbc42783          	lw	a5,-68(s0)
    3be6:	0107d783          	lhu	a5,16(a5)
    3bea:	07c2                	slli	a5,a5,0x10
    3bec:	83c1                	srli	a5,a5,0x10
    3bee:	fef42623          	sw	a5,-20(s0)
E:/wch307/CHV307_Library-master/Example/libraries/sdk/Peripheral/ch32v30x_usart.c:139
    tmpreg &= CTLR2_STOP_CLEAR_Mask;
    3bf2:	fec42703          	lw	a4,-20(s0)
    3bf6:	67b5                	lui	a5,0xd
    3bf8:	17fd                	addi	a5,a5,-1
    3bfa:	8ff9                	and	a5,a5,a4
    3bfc:	fef42623          	sw	a5,-20(s0)
E:/wch307/CHV307_Library-master/Example/libraries/sdk/Peripheral/ch32v30x_usart.c:140
    tmpreg |= (uint32_t)USART_InitStruct->USART_StopBits;
    3c00:	fb842783          	lw	a5,-72(s0)
    3c04:	0067d783          	lhu	a5,6(a5) # d006 <_data_lma+0x1c32>
    3c08:	873e                	mv	a4,a5
    3c0a:	fec42783          	lw	a5,-20(s0)
    3c0e:	8fd9                	or	a5,a5,a4
    3c10:	fef42623          	sw	a5,-20(s0)
E:/wch307/CHV307_Library-master/Example/libraries/sdk/Peripheral/ch32v30x_usart.c:142

    USARTx->CTLR2 = (uint16_t)tmpreg;
    3c14:	fec42783          	lw	a5,-20(s0)
    3c18:	01079713          	slli	a4,a5,0x10
    3c1c:	8341                	srli	a4,a4,0x10
    3c1e:	fbc42783          	lw	a5,-68(s0)
    3c22:	00e79823          	sh	a4,16(a5)
E:/wch307/CHV307_Library-master/Example/libraries/sdk/Peripheral/ch32v30x_usart.c:143
    tmpreg = USARTx->CTLR1;
    3c26:	fbc42783          	lw	a5,-68(s0)
    3c2a:	00c7d783          	lhu	a5,12(a5)
    3c2e:	07c2                	slli	a5,a5,0x10
    3c30:	83c1                	srli	a5,a5,0x10
    3c32:	fef42623          	sw	a5,-20(s0)
E:/wch307/CHV307_Library-master/Example/libraries/sdk/Peripheral/ch32v30x_usart.c:144
    tmpreg &= CTLR1_CLEAR_Mask;
    3c36:	fec42703          	lw	a4,-20(s0)
    3c3a:	67bd                	lui	a5,0xf
    3c3c:	9f378793          	addi	a5,a5,-1549 # e9f3 <_data_lma+0x361f>
    3c40:	8ff9                	and	a5,a5,a4
    3c42:	fef42623          	sw	a5,-20(s0)
E:/wch307/CHV307_Library-master/Example/libraries/sdk/Peripheral/ch32v30x_usart.c:145
    tmpreg |= (uint32_t)USART_InitStruct->USART_WordLength | USART_InitStruct->USART_Parity |
    3c46:	fb842783          	lw	a5,-72(s0)
    3c4a:	0047d703          	lhu	a4,4(a5)
    3c4e:	fb842783          	lw	a5,-72(s0)
    3c52:	0087d783          	lhu	a5,8(a5)
    3c56:	8fd9                	or	a5,a5,a4
    3c58:	01079713          	slli	a4,a5,0x10
    3c5c:	8341                	srli	a4,a4,0x10
E:/wch307/CHV307_Library-master/Example/libraries/sdk/Peripheral/ch32v30x_usart.c:146
              USART_InitStruct->USART_Mode;
    3c5e:	fb842783          	lw	a5,-72(s0)
    3c62:	00a7d783          	lhu	a5,10(a5)
E:/wch307/CHV307_Library-master/Example/libraries/sdk/Peripheral/ch32v30x_usart.c:145
    tmpreg |= (uint32_t)USART_InitStruct->USART_WordLength | USART_InitStruct->USART_Parity |
    3c66:	8fd9                	or	a5,a5,a4
    3c68:	07c2                	slli	a5,a5,0x10
    3c6a:	83c1                	srli	a5,a5,0x10
    3c6c:	873e                	mv	a4,a5
    3c6e:	fec42783          	lw	a5,-20(s0)
    3c72:	8fd9                	or	a5,a5,a4
    3c74:	fef42623          	sw	a5,-20(s0)
E:/wch307/CHV307_Library-master/Example/libraries/sdk/Peripheral/ch32v30x_usart.c:147
    USARTx->CTLR1 = (uint16_t)tmpreg;
    3c78:	fec42783          	lw	a5,-20(s0)
    3c7c:	01079713          	slli	a4,a5,0x10
    3c80:	8341                	srli	a4,a4,0x10
    3c82:	fbc42783          	lw	a5,-68(s0)
    3c86:	00e79623          	sh	a4,12(a5)
E:/wch307/CHV307_Library-master/Example/libraries/sdk/Peripheral/ch32v30x_usart.c:149

    tmpreg = USARTx->CTLR3;
    3c8a:	fbc42783          	lw	a5,-68(s0)
    3c8e:	0147d783          	lhu	a5,20(a5)
    3c92:	07c2                	slli	a5,a5,0x10
    3c94:	83c1                	srli	a5,a5,0x10
    3c96:	fef42623          	sw	a5,-20(s0)
E:/wch307/CHV307_Library-master/Example/libraries/sdk/Peripheral/ch32v30x_usart.c:150
    tmpreg &= CTLR3_CLEAR_Mask;
    3c9a:	fec42703          	lw	a4,-20(s0)
    3c9e:	67c1                	lui	a5,0x10
    3ca0:	cff78793          	addi	a5,a5,-769 # fcff <_data_lma+0x492b>
    3ca4:	8ff9                	and	a5,a5,a4
    3ca6:	fef42623          	sw	a5,-20(s0)
E:/wch307/CHV307_Library-master/Example/libraries/sdk/Peripheral/ch32v30x_usart.c:151
    tmpreg |= USART_InitStruct->USART_HardwareFlowControl;
    3caa:	fb842783          	lw	a5,-72(s0)
    3cae:	00c7d783          	lhu	a5,12(a5)
    3cb2:	873e                	mv	a4,a5
    3cb4:	fec42783          	lw	a5,-20(s0)
    3cb8:	8fd9                	or	a5,a5,a4
    3cba:	fef42623          	sw	a5,-20(s0)
E:/wch307/CHV307_Library-master/Example/libraries/sdk/Peripheral/ch32v30x_usart.c:152
    USARTx->CTLR3 = (uint16_t)tmpreg;
    3cbe:	fec42783          	lw	a5,-20(s0)
    3cc2:	01079713          	slli	a4,a5,0x10
    3cc6:	8341                	srli	a4,a4,0x10
    3cc8:	fbc42783          	lw	a5,-68(s0)
    3ccc:	00e79a23          	sh	a4,20(a5)
E:/wch307/CHV307_Library-master/Example/libraries/sdk/Peripheral/ch32v30x_usart.c:154

    RCC_GetClocksFreq(&RCC_ClocksStatus);
    3cd0:	fc840793          	addi	a5,s0,-56
    3cd4:	853e                	mv	a0,a5
    3cd6:	af1ff0ef          	jal	ra,37c6 <RCC_GetClocksFreq>
E:/wch307/CHV307_Library-master/Example/libraries/sdk/Peripheral/ch32v30x_usart.c:156

    if(usartxbase == USART1_BASE)
    3cda:	fdc42703          	lw	a4,-36(s0)
    3cde:	400147b7          	lui	a5,0x40014
    3ce2:	80078793          	addi	a5,a5,-2048 # 40013800 <_eusrstack+0x20003800>
    3ce6:	00f71763          	bne	a4,a5,3cf4 <USART_Init+0x13e>
E:/wch307/CHV307_Library-master/Example/libraries/sdk/Peripheral/ch32v30x_usart.c:158
    {
        apbclock = RCC_ClocksStatus.PCLK2_Frequency;
    3cea:	fd442783          	lw	a5,-44(s0)
    3cee:	fef42423          	sw	a5,-24(s0)
    3cf2:	a029                	j	3cfc <USART_Init+0x146>
E:/wch307/CHV307_Library-master/Example/libraries/sdk/Peripheral/ch32v30x_usart.c:162
    }
    else
    {
        apbclock = RCC_ClocksStatus.PCLK1_Frequency;
    3cf4:	fd042783          	lw	a5,-48(s0)
    3cf8:	fef42423          	sw	a5,-24(s0)
E:/wch307/CHV307_Library-master/Example/libraries/sdk/Peripheral/ch32v30x_usart.c:165
    }

    if((USARTx->CTLR1 & CTLR1_OVER8_Set) != 0)
    3cfc:	fbc42783          	lw	a5,-68(s0)
    3d00:	00c7d783          	lhu	a5,12(a5)
    3d04:	07c2                	slli	a5,a5,0x10
    3d06:	83c1                	srli	a5,a5,0x10
    3d08:	07c2                	slli	a5,a5,0x10
    3d0a:	87c1                	srai	a5,a5,0x10
    3d0c:	0207d263          	bgez	a5,3d30 <USART_Init+0x17a>
E:/wch307/CHV307_Library-master/Example/libraries/sdk/Peripheral/ch32v30x_usart.c:167
    {
        integerdivider = ((25 * apbclock) / (2 * (USART_InitStruct->USART_BaudRate)));
    3d10:	fe842703          	lw	a4,-24(s0)
    3d14:	87ba                	mv	a5,a4
    3d16:	0786                	slli	a5,a5,0x1
    3d18:	97ba                	add	a5,a5,a4
    3d1a:	078e                	slli	a5,a5,0x3
    3d1c:	973e                	add	a4,a4,a5
    3d1e:	fb842783          	lw	a5,-72(s0)
    3d22:	439c                	lw	a5,0(a5)
    3d24:	0786                	slli	a5,a5,0x1
    3d26:	02f757b3          	divu	a5,a4,a5
    3d2a:	fef42223          	sw	a5,-28(s0)
    3d2e:	a005                	j	3d4e <USART_Init+0x198>
E:/wch307/CHV307_Library-master/Example/libraries/sdk/Peripheral/ch32v30x_usart.c:171
    }
    else
    {
        integerdivider = ((25 * apbclock) / (4 * (USART_InitStruct->USART_BaudRate)));
    3d30:	fe842703          	lw	a4,-24(s0)
    3d34:	87ba                	mv	a5,a4
    3d36:	0786                	slli	a5,a5,0x1
    3d38:	97ba                	add	a5,a5,a4
    3d3a:	078e                	slli	a5,a5,0x3
    3d3c:	973e                	add	a4,a4,a5
    3d3e:	fb842783          	lw	a5,-72(s0)
    3d42:	439c                	lw	a5,0(a5)
    3d44:	078a                	slli	a5,a5,0x2
    3d46:	02f757b3          	divu	a5,a4,a5
    3d4a:	fef42223          	sw	a5,-28(s0)
E:/wch307/CHV307_Library-master/Example/libraries/sdk/Peripheral/ch32v30x_usart.c:173
    }
    tmpreg = (integerdivider / 100) << 4;
    3d4e:	fe442703          	lw	a4,-28(s0)
    3d52:	06400793          	li	a5,100
    3d56:	02f757b3          	divu	a5,a4,a5
    3d5a:	0792                	slli	a5,a5,0x4
    3d5c:	fef42623          	sw	a5,-20(s0)
E:/wch307/CHV307_Library-master/Example/libraries/sdk/Peripheral/ch32v30x_usart.c:175

    fractionaldivider = integerdivider - (100 * (tmpreg >> 4));
    3d60:	fec42783          	lw	a5,-20(s0)
    3d64:	0047d713          	srli	a4,a5,0x4
    3d68:	06400793          	li	a5,100
    3d6c:	02f707b3          	mul	a5,a4,a5
    3d70:	fe442703          	lw	a4,-28(s0)
    3d74:	40f707b3          	sub	a5,a4,a5
    3d78:	fef42023          	sw	a5,-32(s0)
E:/wch307/CHV307_Library-master/Example/libraries/sdk/Peripheral/ch32v30x_usart.c:177

    if((USARTx->CTLR1 & CTLR1_OVER8_Set) != 0)
    3d7c:	fbc42783          	lw	a5,-68(s0)
    3d80:	00c7d783          	lhu	a5,12(a5)
    3d84:	07c2                	slli	a5,a5,0x10
    3d86:	83c1                	srli	a5,a5,0x10
    3d88:	07c2                	slli	a5,a5,0x10
    3d8a:	87c1                	srai	a5,a5,0x10
    3d8c:	0207d263          	bgez	a5,3db0 <USART_Init+0x1fa>
E:/wch307/CHV307_Library-master/Example/libraries/sdk/Peripheral/ch32v30x_usart.c:179
    {
        tmpreg |= ((((fractionaldivider * 8) + 50) / 100)) & ((uint8_t)0x07);
    3d90:	fe042783          	lw	a5,-32(s0)
    3d94:	078e                	slli	a5,a5,0x3
    3d96:	03278713          	addi	a4,a5,50
    3d9a:	06400793          	li	a5,100
    3d9e:	02f757b3          	divu	a5,a4,a5
    3da2:	8b9d                	andi	a5,a5,7
    3da4:	fec42703          	lw	a4,-20(s0)
    3da8:	8fd9                	or	a5,a5,a4
    3daa:	fef42623          	sw	a5,-20(s0)
    3dae:	a005                	j	3dce <USART_Init+0x218>
E:/wch307/CHV307_Library-master/Example/libraries/sdk/Peripheral/ch32v30x_usart.c:183
    }
    else
    {
        tmpreg |= ((((fractionaldivider * 16) + 50) / 100)) & ((uint8_t)0x0F);
    3db0:	fe042783          	lw	a5,-32(s0)
    3db4:	0792                	slli	a5,a5,0x4
    3db6:	03278713          	addi	a4,a5,50
    3dba:	06400793          	li	a5,100
    3dbe:	02f757b3          	divu	a5,a4,a5
    3dc2:	8bbd                	andi	a5,a5,15
    3dc4:	fec42703          	lw	a4,-20(s0)
    3dc8:	8fd9                	or	a5,a5,a4
    3dca:	fef42623          	sw	a5,-20(s0)
E:/wch307/CHV307_Library-master/Example/libraries/sdk/Peripheral/ch32v30x_usart.c:186
    }

    USARTx->BRR = (uint16_t)tmpreg;
    3dce:	fec42783          	lw	a5,-20(s0)
    3dd2:	01079713          	slli	a4,a5,0x10
    3dd6:	8341                	srli	a4,a4,0x10
    3dd8:	fbc42783          	lw	a5,-68(s0)
    3ddc:	00e79423          	sh	a4,8(a5)
E:/wch307/CHV307_Library-master/Example/libraries/sdk/Peripheral/ch32v30x_usart.c:187
}
    3de0:	0001                	nop
    3de2:	40b6                	lw	ra,76(sp)
    3de4:	4426                	lw	s0,72(sp)
    3de6:	6161                	addi	sp,sp,80
    3de8:	8082                	ret

00003dea <USART_Cmd>:
USART_Cmd():
E:/wch307/CHV307_Library-master/Example/libraries/sdk/Peripheral/ch32v30x_usart.c:262
 *          NewState: ENABLE or DISABLE.
 *
 * @return  none
 */
void USART_Cmd(USART_TypeDef *USARTx, FunctionalState NewState)
{
    3dea:	1101                	addi	sp,sp,-32
    3dec:	ce22                	sw	s0,28(sp)
    3dee:	1000                	addi	s0,sp,32
    3df0:	fea42623          	sw	a0,-20(s0)
    3df4:	feb42423          	sw	a1,-24(s0)
E:/wch307/CHV307_Library-master/Example/libraries/sdk/Peripheral/ch32v30x_usart.c:263
    if(NewState != DISABLE)
    3df8:	fe842783          	lw	a5,-24(s0)
    3dfc:	c395                	beqz	a5,3e20 <USART_Cmd+0x36>
E:/wch307/CHV307_Library-master/Example/libraries/sdk/Peripheral/ch32v30x_usart.c:265
    {
        USARTx->CTLR1 |= CTLR1_UE_Set;
    3dfe:	fec42783          	lw	a5,-20(s0)
    3e02:	00c7d783          	lhu	a5,12(a5)
    3e06:	01079713          	slli	a4,a5,0x10
    3e0a:	8341                	srli	a4,a4,0x10
    3e0c:	6789                	lui	a5,0x2
    3e0e:	8fd9                	or	a5,a5,a4
    3e10:	01079713          	slli	a4,a5,0x10
    3e14:	8341                	srli	a4,a4,0x10
    3e16:	fec42783          	lw	a5,-20(s0)
    3e1a:	00e79623          	sh	a4,12(a5) # 200c <USART3_IRQHandler+0x6>
E:/wch307/CHV307_Library-master/Example/libraries/sdk/Peripheral/ch32v30x_usart.c:271
    }
    else
    {
        USARTx->CTLR1 &= CTLR1_UE_Reset;
    }
}
    3e1e:	a015                	j	3e42 <USART_Cmd+0x58>
E:/wch307/CHV307_Library-master/Example/libraries/sdk/Peripheral/ch32v30x_usart.c:269
        USARTx->CTLR1 &= CTLR1_UE_Reset;
    3e20:	fec42783          	lw	a5,-20(s0)
    3e24:	00c7d783          	lhu	a5,12(a5)
    3e28:	01079713          	slli	a4,a5,0x10
    3e2c:	8341                	srli	a4,a4,0x10
    3e2e:	77f9                	lui	a5,0xffffe
    3e30:	17fd                	addi	a5,a5,-1
    3e32:	8ff9                	and	a5,a5,a4
    3e34:	01079713          	slli	a4,a5,0x10
    3e38:	8341                	srli	a4,a4,0x10
    3e3a:	fec42783          	lw	a5,-20(s0)
    3e3e:	00e79623          	sh	a4,12(a5) # ffffe00c <_eusrstack+0xdffee00c>
E:/wch307/CHV307_Library-master/Example/libraries/sdk/Peripheral/ch32v30x_usart.c:271
}
    3e42:	0001                	nop
    3e44:	4472                	lw	s0,28(sp)
    3e46:	6105                	addi	sp,sp,32
    3e48:	8082                	ret

00003e4a <USART_ITConfig>:
USART_ITConfig():
E:/wch307/CHV307_Library-master/Example/libraries/sdk/Peripheral/ch32v30x_usart.c:294
 *          NewState - ENABLE or DISABLE.
 *
 * @return  none
 */
void USART_ITConfig(USART_TypeDef *USARTx, uint16_t USART_IT, FunctionalState NewState)
{
    3e4a:	7179                	addi	sp,sp,-48
    3e4c:	d622                	sw	s0,44(sp)
    3e4e:	1800                	addi	s0,sp,48
    3e50:	fca42e23          	sw	a0,-36(s0)
    3e54:	87ae                	mv	a5,a1
    3e56:	fcc42a23          	sw	a2,-44(s0)
    3e5a:	fcf41d23          	sh	a5,-38(s0)
E:/wch307/CHV307_Library-master/Example/libraries/sdk/Peripheral/ch32v30x_usart.c:295
    uint32_t usartreg = 0x00, itpos = 0x00, itmask = 0x00;
    3e5e:	fe042423          	sw	zero,-24(s0)
    3e62:	fe042223          	sw	zero,-28(s0)
    3e66:	fe042023          	sw	zero,-32(s0)
E:/wch307/CHV307_Library-master/Example/libraries/sdk/Peripheral/ch32v30x_usart.c:296
    uint32_t usartxbase = 0x00;
    3e6a:	fe042623          	sw	zero,-20(s0)
E:/wch307/CHV307_Library-master/Example/libraries/sdk/Peripheral/ch32v30x_usart.c:302

    if(USART_IT == USART_IT_CTS)
    {
    }

    usartxbase = (uint32_t)USARTx;
    3e6e:	fdc42783          	lw	a5,-36(s0)
    3e72:	fef42623          	sw	a5,-20(s0)
E:/wch307/CHV307_Library-master/Example/libraries/sdk/Peripheral/ch32v30x_usart.c:303
    usartreg = (((uint8_t)USART_IT) >> 0x05);
    3e76:	fda45783          	lhu	a5,-38(s0)
    3e7a:	0ff7f793          	andi	a5,a5,255
    3e7e:	8395                	srli	a5,a5,0x5
    3e80:	0ff7f793          	andi	a5,a5,255
    3e84:	fef42423          	sw	a5,-24(s0)
E:/wch307/CHV307_Library-master/Example/libraries/sdk/Peripheral/ch32v30x_usart.c:304
    itpos = USART_IT & IT_Mask;
    3e88:	fda45783          	lhu	a5,-38(s0)
    3e8c:	8bfd                	andi	a5,a5,31
    3e8e:	fef42223          	sw	a5,-28(s0)
E:/wch307/CHV307_Library-master/Example/libraries/sdk/Peripheral/ch32v30x_usart.c:305
    itmask = (((uint32_t)0x01) << itpos);
    3e92:	fe442783          	lw	a5,-28(s0)
    3e96:	4705                	li	a4,1
    3e98:	00f717b3          	sll	a5,a4,a5
    3e9c:	fef42023          	sw	a5,-32(s0)
E:/wch307/CHV307_Library-master/Example/libraries/sdk/Peripheral/ch32v30x_usart.c:307

    if(usartreg == 0x01)
    3ea0:	fe842703          	lw	a4,-24(s0)
    3ea4:	4785                	li	a5,1
    3ea6:	00f71863          	bne	a4,a5,3eb6 <USART_ITConfig+0x6c>
E:/wch307/CHV307_Library-master/Example/libraries/sdk/Peripheral/ch32v30x_usart.c:309
    {
        usartxbase += 0x0C;
    3eaa:	fec42783          	lw	a5,-20(s0)
    3eae:	07b1                	addi	a5,a5,12
    3eb0:	fef42623          	sw	a5,-20(s0)
    3eb4:	a00d                	j	3ed6 <USART_ITConfig+0x8c>
E:/wch307/CHV307_Library-master/Example/libraries/sdk/Peripheral/ch32v30x_usart.c:311
    }
    else if(usartreg == 0x02)
    3eb6:	fe842703          	lw	a4,-24(s0)
    3eba:	4789                	li	a5,2
    3ebc:	00f71863          	bne	a4,a5,3ecc <USART_ITConfig+0x82>
E:/wch307/CHV307_Library-master/Example/libraries/sdk/Peripheral/ch32v30x_usart.c:313
    {
        usartxbase += 0x10;
    3ec0:	fec42783          	lw	a5,-20(s0)
    3ec4:	07c1                	addi	a5,a5,16
    3ec6:	fef42623          	sw	a5,-20(s0)
    3eca:	a031                	j	3ed6 <USART_ITConfig+0x8c>
E:/wch307/CHV307_Library-master/Example/libraries/sdk/Peripheral/ch32v30x_usart.c:317
    }
    else
    {
        usartxbase += 0x14;
    3ecc:	fec42783          	lw	a5,-20(s0)
    3ed0:	07d1                	addi	a5,a5,20
    3ed2:	fef42623          	sw	a5,-20(s0)
E:/wch307/CHV307_Library-master/Example/libraries/sdk/Peripheral/ch32v30x_usart.c:320
    }

    if(NewState != DISABLE)
    3ed6:	fd442783          	lw	a5,-44(s0)
    3eda:	cb99                	beqz	a5,3ef0 <USART_ITConfig+0xa6>
E:/wch307/CHV307_Library-master/Example/libraries/sdk/Peripheral/ch32v30x_usart.c:322
    {
        *(__IO uint32_t *)usartxbase |= itmask;
    3edc:	fec42783          	lw	a5,-20(s0)
    3ee0:	4394                	lw	a3,0(a5)
    3ee2:	fec42783          	lw	a5,-20(s0)
    3ee6:	fe042703          	lw	a4,-32(s0)
    3eea:	8f55                	or	a4,a4,a3
    3eec:	c398                	sw	a4,0(a5)
E:/wch307/CHV307_Library-master/Example/libraries/sdk/Peripheral/ch32v30x_usart.c:328
    }
    else
    {
        *(__IO uint32_t *)usartxbase &= ~itmask;
    }
}
    3eee:	a821                	j	3f06 <USART_ITConfig+0xbc>
E:/wch307/CHV307_Library-master/Example/libraries/sdk/Peripheral/ch32v30x_usart.c:326
        *(__IO uint32_t *)usartxbase &= ~itmask;
    3ef0:	fec42783          	lw	a5,-20(s0)
    3ef4:	4394                	lw	a3,0(a5)
    3ef6:	fe042783          	lw	a5,-32(s0)
    3efa:	fff7c713          	not	a4,a5
    3efe:	fec42783          	lw	a5,-20(s0)
    3f02:	8f75                	and	a4,a4,a3
    3f04:	c398                	sw	a4,0(a5)
E:/wch307/CHV307_Library-master/Example/libraries/sdk/Peripheral/ch32v30x_usart.c:328
}
    3f06:	0001                	nop
    3f08:	5432                	lw	s0,44(sp)
    3f0a:	6145                	addi	sp,sp,48
    3f0c:	8082                	ret

00003f0e <USART_SendData>:
USART_SendData():
E:/wch307/CHV307_Library-master/Example/libraries/sdk/Peripheral/ch32v30x_usart.c:462
 *          Data - the data to transmit.
 *
 * @return  none
 */
void USART_SendData(USART_TypeDef *USARTx, uint16_t Data)
{
    3f0e:	1101                	addi	sp,sp,-32
    3f10:	ce22                	sw	s0,28(sp)
    3f12:	1000                	addi	s0,sp,32
    3f14:	fea42623          	sw	a0,-20(s0)
    3f18:	87ae                	mv	a5,a1
    3f1a:	fef41523          	sh	a5,-22(s0)
E:/wch307/CHV307_Library-master/Example/libraries/sdk/Peripheral/ch32v30x_usart.c:463
    USARTx->DATAR = (Data & (uint16_t)0x01FF);
    3f1e:	fea45783          	lhu	a5,-22(s0)
    3f22:	1ff7f793          	andi	a5,a5,511
    3f26:	01079713          	slli	a4,a5,0x10
    3f2a:	8341                	srli	a4,a4,0x10
    3f2c:	fec42783          	lw	a5,-20(s0)
    3f30:	00e79223          	sh	a4,4(a5)
E:/wch307/CHV307_Library-master/Example/libraries/sdk/Peripheral/ch32v30x_usart.c:464
}
    3f34:	0001                	nop
    3f36:	4472                	lw	s0,28(sp)
    3f38:	6105                	addi	sp,sp,32
    3f3a:	8082                	ret

00003f3c <USART_GetFlagStatus>:
USART_GetFlagStatus():
E:/wch307/CHV307_Library-master/Example/libraries/sdk/Peripheral/ch32v30x_usart.c:697
 *            USART_FLAG_PE - Parity Error flag.
 *
 * @return  none
 */
FlagStatus USART_GetFlagStatus(USART_TypeDef *USARTx, uint16_t USART_FLAG)
{
    3f3c:	7179                	addi	sp,sp,-48
    3f3e:	d622                	sw	s0,44(sp)
    3f40:	1800                	addi	s0,sp,48
    3f42:	fca42e23          	sw	a0,-36(s0)
    3f46:	87ae                	mv	a5,a1
    3f48:	fcf41d23          	sh	a5,-38(s0)
E:/wch307/CHV307_Library-master/Example/libraries/sdk/Peripheral/ch32v30x_usart.c:698
    FlagStatus bitstatus = RESET;
    3f4c:	fe042623          	sw	zero,-20(s0)
E:/wch307/CHV307_Library-master/Example/libraries/sdk/Peripheral/ch32v30x_usart.c:704

    if(USART_FLAG == USART_FLAG_CTS)
    {
    }

    if((USARTx->STATR & USART_FLAG) != (uint16_t)RESET)
    3f50:	fdc42783          	lw	a5,-36(s0)
    3f54:	0007d783          	lhu	a5,0(a5)
    3f58:	01079713          	slli	a4,a5,0x10
    3f5c:	8341                	srli	a4,a4,0x10
    3f5e:	fda45783          	lhu	a5,-38(s0)
    3f62:	8ff9                	and	a5,a5,a4
    3f64:	07c2                	slli	a5,a5,0x10
    3f66:	83c1                	srli	a5,a5,0x10
    3f68:	c789                	beqz	a5,3f72 <USART_GetFlagStatus+0x36>
E:/wch307/CHV307_Library-master/Example/libraries/sdk/Peripheral/ch32v30x_usart.c:706
    {
        bitstatus = SET;
    3f6a:	4785                	li	a5,1
    3f6c:	fef42623          	sw	a5,-20(s0)
    3f70:	a019                	j	3f76 <USART_GetFlagStatus+0x3a>
E:/wch307/CHV307_Library-master/Example/libraries/sdk/Peripheral/ch32v30x_usart.c:710
    }
    else
    {
        bitstatus = RESET;
    3f72:	fe042623          	sw	zero,-20(s0)
E:/wch307/CHV307_Library-master/Example/libraries/sdk/Peripheral/ch32v30x_usart.c:712
    }
    return bitstatus;
    3f76:	fec42783          	lw	a5,-20(s0)
E:/wch307/CHV307_Library-master/Example/libraries/sdk/Peripheral/ch32v30x_usart.c:713
}
    3f7a:	853e                	mv	a0,a5
    3f7c:	5432                	lw	s0,44(sp)
    3f7e:	6145                	addi	sp,sp,48
    3f80:	8082                	ret

00003f82 <USART_GetITStatus>:
USART_GetITStatus():
E:/wch307/CHV307_Library-master/Example/libraries/sdk/Peripheral/ch32v30x_usart.c:760
 *            USART_IT_PE - Parity Error interrupt.
 *
 * @return  none
 */
ITStatus USART_GetITStatus(USART_TypeDef *USARTx, uint16_t USART_IT)
{
    3f82:	7179                	addi	sp,sp,-48
    3f84:	d622                	sw	s0,44(sp)
    3f86:	1800                	addi	s0,sp,48
    3f88:	fca42e23          	sw	a0,-36(s0)
    3f8c:	87ae                	mv	a5,a1
    3f8e:	fcf41d23          	sh	a5,-38(s0)
E:/wch307/CHV307_Library-master/Example/libraries/sdk/Peripheral/ch32v30x_usart.c:761
    uint32_t bitpos = 0x00, itmask = 0x00, usartreg = 0x00;
    3f92:	fe042223          	sw	zero,-28(s0)
    3f96:	fe042623          	sw	zero,-20(s0)
    3f9a:	fe042023          	sw	zero,-32(s0)
E:/wch307/CHV307_Library-master/Example/libraries/sdk/Peripheral/ch32v30x_usart.c:762
    ITStatus bitstatus = RESET;
    3f9e:	fe042423          	sw	zero,-24(s0)
E:/wch307/CHV307_Library-master/Example/libraries/sdk/Peripheral/ch32v30x_usart.c:768

    if(USART_IT == USART_IT_CTS)
    {
    }

    usartreg = (((uint8_t)USART_IT) >> 0x05);
    3fa2:	fda45783          	lhu	a5,-38(s0)
    3fa6:	0ff7f793          	andi	a5,a5,255
    3faa:	8395                	srli	a5,a5,0x5
    3fac:	0ff7f793          	andi	a5,a5,255
    3fb0:	fef42023          	sw	a5,-32(s0)
E:/wch307/CHV307_Library-master/Example/libraries/sdk/Peripheral/ch32v30x_usart.c:769
    itmask = USART_IT & IT_Mask;
    3fb4:	fda45783          	lhu	a5,-38(s0)
    3fb8:	8bfd                	andi	a5,a5,31
    3fba:	fef42623          	sw	a5,-20(s0)
E:/wch307/CHV307_Library-master/Example/libraries/sdk/Peripheral/ch32v30x_usart.c:770
    itmask = (uint32_t)0x01 << itmask;
    3fbe:	fec42783          	lw	a5,-20(s0)
    3fc2:	4705                	li	a4,1
    3fc4:	00f717b3          	sll	a5,a4,a5
    3fc8:	fef42623          	sw	a5,-20(s0)
E:/wch307/CHV307_Library-master/Example/libraries/sdk/Peripheral/ch32v30x_usart.c:772

    if(usartreg == 0x01)
    3fcc:	fe042703          	lw	a4,-32(s0)
    3fd0:	4785                	li	a5,1
    3fd2:	00f71f63          	bne	a4,a5,3ff0 <USART_GetITStatus+0x6e>
E:/wch307/CHV307_Library-master/Example/libraries/sdk/Peripheral/ch32v30x_usart.c:774
    {
        itmask &= USARTx->CTLR1;
    3fd6:	fdc42783          	lw	a5,-36(s0)
    3fda:	00c7d783          	lhu	a5,12(a5)
    3fde:	07c2                	slli	a5,a5,0x10
    3fe0:	83c1                	srli	a5,a5,0x10
    3fe2:	873e                	mv	a4,a5
    3fe4:	fec42783          	lw	a5,-20(s0)
    3fe8:	8ff9                	and	a5,a5,a4
    3fea:	fef42623          	sw	a5,-20(s0)
    3fee:	a83d                	j	402c <USART_GetITStatus+0xaa>
E:/wch307/CHV307_Library-master/Example/libraries/sdk/Peripheral/ch32v30x_usart.c:776
    }
    else if(usartreg == 0x02)
    3ff0:	fe042703          	lw	a4,-32(s0)
    3ff4:	4789                	li	a5,2
    3ff6:	00f71f63          	bne	a4,a5,4014 <USART_GetITStatus+0x92>
E:/wch307/CHV307_Library-master/Example/libraries/sdk/Peripheral/ch32v30x_usart.c:778
    {
        itmask &= USARTx->CTLR2;
    3ffa:	fdc42783          	lw	a5,-36(s0)
    3ffe:	0107d783          	lhu	a5,16(a5)
    4002:	07c2                	slli	a5,a5,0x10
    4004:	83c1                	srli	a5,a5,0x10
    4006:	873e                	mv	a4,a5
    4008:	fec42783          	lw	a5,-20(s0)
    400c:	8ff9                	and	a5,a5,a4
    400e:	fef42623          	sw	a5,-20(s0)
    4012:	a829                	j	402c <USART_GetITStatus+0xaa>
E:/wch307/CHV307_Library-master/Example/libraries/sdk/Peripheral/ch32v30x_usart.c:782
    }
    else
    {
        itmask &= USARTx->CTLR3;
    4014:	fdc42783          	lw	a5,-36(s0)
    4018:	0147d783          	lhu	a5,20(a5)
    401c:	07c2                	slli	a5,a5,0x10
    401e:	83c1                	srli	a5,a5,0x10
    4020:	873e                	mv	a4,a5
    4022:	fec42783          	lw	a5,-20(s0)
    4026:	8ff9                	and	a5,a5,a4
    4028:	fef42623          	sw	a5,-20(s0)
E:/wch307/CHV307_Library-master/Example/libraries/sdk/Peripheral/ch32v30x_usart.c:785
    }

    bitpos = USART_IT >> 0x08;
    402c:	fda45783          	lhu	a5,-38(s0)
    4030:	83a1                	srli	a5,a5,0x8
    4032:	07c2                	slli	a5,a5,0x10
    4034:	83c1                	srli	a5,a5,0x10
    4036:	fef42223          	sw	a5,-28(s0)
E:/wch307/CHV307_Library-master/Example/libraries/sdk/Peripheral/ch32v30x_usart.c:786
    bitpos = (uint32_t)0x01 << bitpos;
    403a:	fe442783          	lw	a5,-28(s0)
    403e:	4705                	li	a4,1
    4040:	00f717b3          	sll	a5,a4,a5
    4044:	fef42223          	sw	a5,-28(s0)
E:/wch307/CHV307_Library-master/Example/libraries/sdk/Peripheral/ch32v30x_usart.c:787
    bitpos &= USARTx->STATR;
    4048:	fdc42783          	lw	a5,-36(s0)
    404c:	0007d783          	lhu	a5,0(a5)
    4050:	07c2                	slli	a5,a5,0x10
    4052:	83c1                	srli	a5,a5,0x10
    4054:	873e                	mv	a4,a5
    4056:	fe442783          	lw	a5,-28(s0)
    405a:	8ff9                	and	a5,a5,a4
    405c:	fef42223          	sw	a5,-28(s0)
E:/wch307/CHV307_Library-master/Example/libraries/sdk/Peripheral/ch32v30x_usart.c:789

    if((itmask != (uint16_t)RESET) && (bitpos != (uint16_t)RESET))
    4060:	fec42783          	lw	a5,-20(s0)
    4064:	cb81                	beqz	a5,4074 <USART_GetITStatus+0xf2>
E:/wch307/CHV307_Library-master/Example/libraries/sdk/Peripheral/ch32v30x_usart.c:789 (discriminator 1)
    4066:	fe442783          	lw	a5,-28(s0)
    406a:	c789                	beqz	a5,4074 <USART_GetITStatus+0xf2>
E:/wch307/CHV307_Library-master/Example/libraries/sdk/Peripheral/ch32v30x_usart.c:791
    {
        bitstatus = SET;
    406c:	4785                	li	a5,1
    406e:	fef42423          	sw	a5,-24(s0)
    4072:	a019                	j	4078 <USART_GetITStatus+0xf6>
E:/wch307/CHV307_Library-master/Example/libraries/sdk/Peripheral/ch32v30x_usart.c:795
    }
    else
    {
        bitstatus = RESET;
    4074:	fe042423          	sw	zero,-24(s0)
E:/wch307/CHV307_Library-master/Example/libraries/sdk/Peripheral/ch32v30x_usart.c:798
    }

    return bitstatus;
    4078:	fe842783          	lw	a5,-24(s0)
E:/wch307/CHV307_Library-master/Example/libraries/sdk/Peripheral/ch32v30x_usart.c:799
}
    407c:	853e                	mv	a0,a5
    407e:	5432                	lw	s0,44(sp)
    4080:	6145                	addi	sp,sp,48
    4082:	8082                	ret

00004084 <USART_ClearITPendingBit>:
USART_ClearITPendingBit():
E:/wch307/CHV307_Library-master/Example/libraries/sdk/Peripheral/ch32v30x_usart.c:816
 *            USART_IT_RXNE - Receive Data register not empty interrupt.
 *
 * @return  none
 */
void USART_ClearITPendingBit(USART_TypeDef *USARTx, uint16_t USART_IT)
{
    4084:	7179                	addi	sp,sp,-48
    4086:	d622                	sw	s0,44(sp)
    4088:	1800                	addi	s0,sp,48
    408a:	fca42e23          	sw	a0,-36(s0)
    408e:	87ae                	mv	a5,a1
    4090:	fcf41d23          	sh	a5,-38(s0)
E:/wch307/CHV307_Library-master/Example/libraries/sdk/Peripheral/ch32v30x_usart.c:817
    uint16_t bitpos = 0x00, itmask = 0x00;
    4094:	fe041723          	sh	zero,-18(s0)
    4098:	fe041623          	sh	zero,-20(s0)
E:/wch307/CHV307_Library-master/Example/libraries/sdk/Peripheral/ch32v30x_usart.c:823

    if(USART_IT == USART_IT_CTS)
    {
    }

    bitpos = USART_IT >> 0x08;
    409c:	fda45783          	lhu	a5,-38(s0)
    40a0:	83a1                	srli	a5,a5,0x8
    40a2:	fef41723          	sh	a5,-18(s0)
E:/wch307/CHV307_Library-master/Example/libraries/sdk/Peripheral/ch32v30x_usart.c:824
    itmask = ((uint16_t)0x01 << (uint16_t)bitpos);
    40a6:	fee45783          	lhu	a5,-18(s0)
    40aa:	4705                	li	a4,1
    40ac:	00f717b3          	sll	a5,a4,a5
    40b0:	fef41623          	sh	a5,-20(s0)
E:/wch307/CHV307_Library-master/Example/libraries/sdk/Peripheral/ch32v30x_usart.c:825
    USARTx->STATR = (uint16_t)~itmask;
    40b4:	fec45783          	lhu	a5,-20(s0)
    40b8:	fff7c793          	not	a5,a5
    40bc:	01079713          	slli	a4,a5,0x10
    40c0:	8341                	srli	a4,a4,0x10
    40c2:	fdc42783          	lw	a5,-36(s0)
    40c6:	00e79023          	sh	a4,0(a5)
E:/wch307/CHV307_Library-master/Example/libraries/sdk/Peripheral/ch32v30x_usart.c:826
}
    40ca:	0001                	nop
    40cc:	5432                	lw	s0,44(sp)
    40ce:	6145                	addi	sp,sp,48
    40d0:	8082                	ret

000040d2 <DevEP1_IN_Deal>:
DevEP1_IN_Deal():
E:/wch307/CHV307_Library-master/Example/libraries/sdk/Peripheral/ch32v30x_usbotg_device.c:329
* Description    : Device endpoint1 IN.
* Input          : l: IN length(<64B)
* Return         : None
*******************************************************************************/
void DevEP1_IN_Deal( UINT8 l )
{
    40d2:	1101                	addi	sp,sp,-32
    40d4:	ce22                	sw	s0,28(sp)
    40d6:	1000                	addi	s0,sp,32
    40d8:	87aa                	mv	a5,a0
    40da:	fef407a3          	sb	a5,-17(s0)
E:/wch307/CHV307_Library-master/Example/libraries/sdk/Peripheral/ch32v30x_usbotg_device.c:330
    USBOTG_FS->UEP1_TX_LEN = l;
    40de:	500007b7          	lui	a5,0x50000
    40e2:	fef44703          	lbu	a4,-17(s0)
    40e6:	0742                	slli	a4,a4,0x10
    40e8:	8341                	srli	a4,a4,0x10
    40ea:	02e79a23          	sh	a4,52(a5) # 50000034 <_eusrstack+0x2fff0034>
E:/wch307/CHV307_Library-master/Example/libraries/sdk/Peripheral/ch32v30x_usbotg_device.c:331
    USBOTG_FS->UEP1_TX_CTRL = (USBOTG_FS->UEP1_TX_CTRL & ~USBHD_UEP_T_RES_MASK)| USBHD_UEP_T_RES_ACK;
    40ee:	500007b7          	lui	a5,0x50000
    40f2:	0367c783          	lbu	a5,54(a5) # 50000036 <_eusrstack+0x2fff0036>
    40f6:	0ff7f713          	andi	a4,a5,255
    40fa:	500007b7          	lui	a5,0x50000
    40fe:	9b71                	andi	a4,a4,-4
    4100:	0ff77713          	andi	a4,a4,255
    4104:	02e78b23          	sb	a4,54(a5) # 50000036 <_eusrstack+0x2fff0036>
E:/wch307/CHV307_Library-master/Example/libraries/sdk/Peripheral/ch32v30x_usbotg_device.c:332
}
    4108:	0001                	nop
    410a:	4472                	lw	s0,28(sp)
    410c:	6105                	addi	sp,sp,32
    410e:	8082                	ret

00004110 <DevEP2_IN_Deal>:
DevEP2_IN_Deal():
E:/wch307/CHV307_Library-master/Example/libraries/sdk/Peripheral/ch32v30x_usbotg_device.c:341
* Description    : Device endpoint2 IN.
* Input          : l: IN length(<64B)
* Return         : None
*******************************************************************************/
void DevEP2_IN_Deal( UINT8 l )
{
    4110:	1101                	addi	sp,sp,-32
    4112:	ce22                	sw	s0,28(sp)
    4114:	1000                	addi	s0,sp,32
    4116:	87aa                	mv	a5,a0
    4118:	fef407a3          	sb	a5,-17(s0)
E:/wch307/CHV307_Library-master/Example/libraries/sdk/Peripheral/ch32v30x_usbotg_device.c:342
    USBOTG_FS->UEP2_TX_LEN = l;
    411c:	500007b7          	lui	a5,0x50000
    4120:	fef44703          	lbu	a4,-17(s0)
    4124:	0742                	slli	a4,a4,0x10
    4126:	8341                	srli	a4,a4,0x10
    4128:	02e79c23          	sh	a4,56(a5) # 50000038 <_eusrstack+0x2fff0038>
E:/wch307/CHV307_Library-master/Example/libraries/sdk/Peripheral/ch32v30x_usbotg_device.c:343
    USBOTG_FS->UEP2_TX_CTRL = (USBOTG_FS->UEP2_TX_CTRL & ~USBHD_UEP_T_RES_MASK)| USBHD_UEP_T_RES_ACK;
    412c:	500007b7          	lui	a5,0x50000
    4130:	03a7c783          	lbu	a5,58(a5) # 5000003a <_eusrstack+0x2fff003a>
    4134:	0ff7f713          	andi	a4,a5,255
    4138:	500007b7          	lui	a5,0x50000
    413c:	9b71                	andi	a4,a4,-4
    413e:	0ff77713          	andi	a4,a4,255
    4142:	02e78d23          	sb	a4,58(a5) # 5000003a <_eusrstack+0x2fff003a>
E:/wch307/CHV307_Library-master/Example/libraries/sdk/Peripheral/ch32v30x_usbotg_device.c:344
}
    4146:	0001                	nop
    4148:	4472                	lw	s0,28(sp)
    414a:	6105                	addi	sp,sp,32
    414c:	8082                	ret

0000414e <DevEP1_OUT_Deal>:
DevEP1_OUT_Deal():
E:/wch307/CHV307_Library-master/Example/libraries/sdk/Peripheral/ch32v30x_usbotg_device.c:353
* Description    : Deal device Endpoint 1 OUT.
* Input          : l: Data length.
* Return         : None
*******************************************************************************/
void DevEP1_OUT_Deal( UINT8 l )
{
    414e:	7179                	addi	sp,sp,-48
    4150:	d606                	sw	ra,44(sp)
    4152:	d422                	sw	s0,40(sp)
    4154:	1800                	addi	s0,sp,48
    4156:	87aa                	mv	a5,a0
    4158:	fcf40fa3          	sb	a5,-33(s0)
E:/wch307/CHV307_Library-master/Example/libraries/sdk/Peripheral/ch32v30x_usbotg_device.c:356
    UINT8 i;

    for(i=0; i<l; i++)
    415c:	fe0407a3          	sb	zero,-17(s0)
    4160:	a815                	j	4194 <DevEP1_OUT_Deal+0x46>
E:/wch307/CHV307_Library-master/Example/libraries/sdk/Peripheral/ch32v30x_usbotg_device.c:358 (discriminator 3)
    {
        pEP1_IN_DataBuf[i] = ~pEP1_OUT_DataBuf[i];
    4162:	8541a703          	lw	a4,-1964(gp) # 2000028c <pEP1_RAM_Addr>
    4166:	fef44783          	lbu	a5,-17(s0)
    416a:	97ba                	add	a5,a5,a4
    416c:	0007c703          	lbu	a4,0(a5)
    4170:	8541a683          	lw	a3,-1964(gp) # 2000028c <pEP1_RAM_Addr>
    4174:	fef44783          	lbu	a5,-17(s0)
    4178:	04078793          	addi	a5,a5,64
    417c:	97b6                	add	a5,a5,a3
    417e:	fff74713          	not	a4,a4
    4182:	0ff77713          	andi	a4,a4,255
    4186:	00e78023          	sb	a4,0(a5)
E:/wch307/CHV307_Library-master/Example/libraries/sdk/Peripheral/ch32v30x_usbotg_device.c:356 (discriminator 3)
    for(i=0; i<l; i++)
    418a:	fef44783          	lbu	a5,-17(s0)
    418e:	0785                	addi	a5,a5,1
    4190:	fef407a3          	sb	a5,-17(s0)
E:/wch307/CHV307_Library-master/Example/libraries/sdk/Peripheral/ch32v30x_usbotg_device.c:356 (discriminator 1)
    4194:	fef44703          	lbu	a4,-17(s0)
    4198:	fdf44783          	lbu	a5,-33(s0)
    419c:	fcf763e3          	bltu	a4,a5,4162 <DevEP1_OUT_Deal+0x14>
E:/wch307/CHV307_Library-master/Example/libraries/sdk/Peripheral/ch32v30x_usbotg_device.c:361
    }

    DevEP1_IN_Deal( l );
    41a0:	fdf44783          	lbu	a5,-33(s0)
    41a4:	853e                	mv	a0,a5
    41a6:	3735                	jal	40d2 <DevEP1_IN_Deal>
E:/wch307/CHV307_Library-master/Example/libraries/sdk/Peripheral/ch32v30x_usbotg_device.c:362
}
    41a8:	0001                	nop
    41aa:	50b2                	lw	ra,44(sp)
    41ac:	5422                	lw	s0,40(sp)
    41ae:	6145                	addi	sp,sp,48
    41b0:	8082                	ret

000041b2 <DevEP2_OUT_Deal>:
DevEP2_OUT_Deal():
E:/wch307/CHV307_Library-master/Example/libraries/sdk/Peripheral/ch32v30x_usbotg_device.c:371
* Description    : Deal device Endpoint 2 OUT.
* Input          : l: Data length.
* Return         : None
*******************************************************************************/
void DevEP2_OUT_Deal( UINT8 l )
{
    41b2:	7179                	addi	sp,sp,-48
    41b4:	d606                	sw	ra,44(sp)
    41b6:	d422                	sw	s0,40(sp)
    41b8:	1800                	addi	s0,sp,48
    41ba:	87aa                	mv	a5,a0
    41bc:	fcf40fa3          	sb	a5,-33(s0)
E:/wch307/CHV307_Library-master/Example/libraries/sdk/Peripheral/ch32v30x_usbotg_device.c:374
    UINT8 i;

    for(i=0; i<l; i++)
    41c0:	fe0407a3          	sb	zero,-17(s0)
    41c4:	a815                	j	41f8 <DevEP2_OUT_Deal+0x46>
E:/wch307/CHV307_Library-master/Example/libraries/sdk/Peripheral/ch32v30x_usbotg_device.c:376 (discriminator 3)
    {
        pEP2_IN_DataBuf[i] = ~pEP2_OUT_DataBuf[i];
    41c6:	8581a703          	lw	a4,-1960(gp) # 20000290 <pEP2_RAM_Addr>
    41ca:	fef44783          	lbu	a5,-17(s0)
    41ce:	97ba                	add	a5,a5,a4
    41d0:	0007c703          	lbu	a4,0(a5)
    41d4:	8581a683          	lw	a3,-1960(gp) # 20000290 <pEP2_RAM_Addr>
    41d8:	fef44783          	lbu	a5,-17(s0)
    41dc:	04078793          	addi	a5,a5,64
    41e0:	97b6                	add	a5,a5,a3
    41e2:	fff74713          	not	a4,a4
    41e6:	0ff77713          	andi	a4,a4,255
    41ea:	00e78023          	sb	a4,0(a5)
E:/wch307/CHV307_Library-master/Example/libraries/sdk/Peripheral/ch32v30x_usbotg_device.c:374 (discriminator 3)
    for(i=0; i<l; i++)
    41ee:	fef44783          	lbu	a5,-17(s0)
    41f2:	0785                	addi	a5,a5,1
    41f4:	fef407a3          	sb	a5,-17(s0)
E:/wch307/CHV307_Library-master/Example/libraries/sdk/Peripheral/ch32v30x_usbotg_device.c:374 (discriminator 1)
    41f8:	fef44703          	lbu	a4,-17(s0)
    41fc:	fdf44783          	lbu	a5,-33(s0)
    4200:	fcf763e3          	bltu	a4,a5,41c6 <DevEP2_OUT_Deal+0x14>
E:/wch307/CHV307_Library-master/Example/libraries/sdk/Peripheral/ch32v30x_usbotg_device.c:379
    }

    DevEP2_IN_Deal( l );
    4204:	fdf44783          	lbu	a5,-33(s0)
    4208:	853e                	mv	a0,a5
    420a:	3719                	jal	4110 <DevEP2_IN_Deal>
E:/wch307/CHV307_Library-master/Example/libraries/sdk/Peripheral/ch32v30x_usbotg_device.c:380
}
    420c:	0001                	nop
    420e:	50b2                	lw	ra,44(sp)
    4210:	5422                	lw	s0,40(sp)
    4212:	6145                	addi	sp,sp,48
    4214:	8082                	ret

00004216 <OTG_FS_IRQHandler>:
OTG_FS_IRQHandler():
E:/wch307/CHV307_Library-master/Example/libraries/sdk/Peripheral/ch32v30x_usbotg_device.c:389
* Description    : OTG_FS_IRQHandler OTG设备中断处理函数
* Input          : None
* Return         : None
*******************************************************************************/
void OTG_FS_IRQHandler( void )
{
    4216:	7171                	addi	sp,sp,-176
    4218:	d706                	sw	ra,172(sp)
    421a:	d516                	sw	t0,168(sp)
    421c:	d31a                	sw	t1,164(sp)
    421e:	d11e                	sw	t2,160(sp)
    4220:	cf22                	sw	s0,156(sp)
    4222:	cd2a                	sw	a0,152(sp)
    4224:	cb2e                	sw	a1,148(sp)
    4226:	c932                	sw	a2,144(sp)
    4228:	c736                	sw	a3,140(sp)
    422a:	c53a                	sw	a4,136(sp)
    422c:	c33e                	sw	a5,132(sp)
    422e:	c142                	sw	a6,128(sp)
    4230:	dec6                	sw	a7,124(sp)
    4232:	dcf2                	sw	t3,120(sp)
    4234:	daf6                	sw	t4,116(sp)
    4236:	d8fa                	sw	t5,112(sp)
    4238:	d6fe                	sw	t6,108(sp)
    423a:	ee82                	fsw	ft0,92(sp)
    423c:	ec86                	fsw	ft1,88(sp)
    423e:	ea8a                	fsw	ft2,84(sp)
    4240:	e88e                	fsw	ft3,80(sp)
    4242:	e692                	fsw	ft4,76(sp)
    4244:	e496                	fsw	ft5,72(sp)
    4246:	e29a                	fsw	ft6,68(sp)
    4248:	e09e                	fsw	ft7,64(sp)
    424a:	fe2a                	fsw	fa0,60(sp)
    424c:	fc2e                	fsw	fa1,56(sp)
    424e:	fa32                	fsw	fa2,52(sp)
    4250:	f836                	fsw	fa3,48(sp)
    4252:	f63a                	fsw	fa4,44(sp)
    4254:	f43e                	fsw	fa5,40(sp)
    4256:	f242                	fsw	fa6,36(sp)
    4258:	f046                	fsw	fa7,32(sp)
    425a:	ee72                	fsw	ft8,28(sp)
    425c:	ec76                	fsw	ft9,24(sp)
    425e:	ea7a                	fsw	ft10,20(sp)
    4260:	e87e                	fsw	ft11,16(sp)
    4262:	1900                	addi	s0,sp,176
E:/wch307/CHV307_Library-master/Example/libraries/sdk/Peripheral/ch32v30x_usbotg_device.c:391
    UINT8  len, chtype;
    UINT8  intflag, errflag = 0;
    4264:	f4040f23          	sb	zero,-162(s0)
E:/wch307/CHV307_Library-master/Example/libraries/sdk/Peripheral/ch32v30x_usbotg_device.c:393

    intflag = USBOTG_FS->INT_FG;
    4268:	500007b7          	lui	a5,0x50000
    426c:	0067c783          	lbu	a5,6(a5) # 50000006 <_eusrstack+0x2fff0006>
    4270:	f4f40ea3          	sb	a5,-163(s0)
E:/wch307/CHV307_Library-master/Example/libraries/sdk/Peripheral/ch32v30x_usbotg_device.c:395

    if( intflag & USBHD_UIF_TRANSFER )
    4274:	f5d44783          	lbu	a5,-163(s0)
    4278:	8b89                	andi	a5,a5,2
    427a:	3c078ae3          	beqz	a5,4e4e <OTG_FS_IRQHandler+0xc38>
E:/wch307/CHV307_Library-master/Example/libraries/sdk/Peripheral/ch32v30x_usbotg_device.c:397
    {
        switch ( USBOTG_FS->INT_ST & USBHD_UIS_TOKEN_MASK )
    427e:	500007b7          	lui	a5,0x50000
    4282:	0077c783          	lbu	a5,7(a5) # 50000007 <_eusrstack+0x2fff0007>
    4286:	0ff7f793          	andi	a5,a5,255
    428a:	0307f793          	andi	a5,a5,48
    428e:	4741                	li	a4,16
    4290:	3ae784e3          	beq	a5,a4,4e38 <OTG_FS_IRQHandler+0xc22>
    4294:	4741                	li	a4,16
    4296:	00f74663          	blt	a4,a5,42a2 <OTG_FS_IRQHandler+0x8c>
    429a:	20078ee3          	beqz	a5,4cb6 <OTG_FS_IRQHandler+0xaa0>
E:/wch307/CHV307_Library-master/Example/libraries/sdk/Peripheral/ch32v30x_usbotg_device.c:878
            case USBHD_UIS_TOKEN_SOF:

                break;

            default :
                break;
    429e:	39f0006f          	j	4e3c <OTG_FS_IRQHandler+0xc26>
    42a2:	02000713          	li	a4,32
    42a6:	04e786e3          	beq	a5,a4,4af2 <OTG_FS_IRQHandler+0x8dc>
    42aa:	03000713          	li	a4,48
    42ae:	38e797e3          	bne	a5,a4,4e3c <OTG_FS_IRQHandler+0xc26>
E:/wch307/CHV307_Library-master/Example/libraries/sdk/Peripheral/ch32v30x_usbotg_device.c:411
                USBOTG_FS->UEP0_TX_CTRL = USBHD_UEP_T_TOG|USBHD_UEP_T_RES_NAK;
    42b2:	500007b7          	lui	a5,0x50000
    42b6:	4719                	li	a4,6
    42b8:	02e78923          	sb	a4,50(a5) # 50000032 <_eusrstack+0x2fff0032>
E:/wch307/CHV307_Library-master/Example/libraries/sdk/Peripheral/ch32v30x_usbotg_device.c:412
                USBOTG_FS->UEP0_RX_CTRL = USBHD_UEP_R_TOG|USBHD_UEP_R_RES_ACK;
    42bc:	500007b7          	lui	a5,0x50000
    42c0:	4711                	li	a4,4
    42c2:	02e789a3          	sb	a4,51(a5) # 50000033 <_eusrstack+0x2fff0033>
E:/wch307/CHV307_Library-master/Example/libraries/sdk/Peripheral/ch32v30x_usbotg_device.c:413
                SetupReqLen  = pSetupReqPakHD->wLength;
    42c6:	8501a783          	lw	a5,-1968(gp) # 20000288 <pEP0_RAM_Addr>
    42ca:	0067c703          	lbu	a4,6(a5)
    42ce:	0077c783          	lbu	a5,7(a5)
    42d2:	07a2                	slli	a5,a5,0x8
    42d4:	8fd9                	or	a5,a5,a4
    42d6:	01079713          	slli	a4,a5,0x10
    42da:	8341                	srli	a4,a4,0x10
    42dc:	86e19323          	sh	a4,-1946(gp) # 2000029e <SetupReqLen>
E:/wch307/CHV307_Library-master/Example/libraries/sdk/Peripheral/ch32v30x_usbotg_device.c:414
                SetupReqCode = pSetupReqPakHD->bRequest;
    42e0:	8501a783          	lw	a5,-1968(gp) # 20000288 <pEP0_RAM_Addr>
    42e4:	0017c703          	lbu	a4,1(a5)
    42e8:	86e18223          	sb	a4,-1948(gp) # 2000029c <SetupReqCode>
E:/wch307/CHV307_Library-master/Example/libraries/sdk/Peripheral/ch32v30x_usbotg_device.c:415
                chtype = pSetupReqPakHD->bRequestType;
    42ec:	8501a783          	lw	a5,-1968(gp) # 20000288 <pEP0_RAM_Addr>
    42f0:	0007c783          	lbu	a5,0(a5)
    42f4:	f4f40e23          	sb	a5,-164(s0)
E:/wch307/CHV307_Library-master/Example/libraries/sdk/Peripheral/ch32v30x_usbotg_device.c:416
                len = 0;
    42f8:	f4040fa3          	sb	zero,-161(s0)
E:/wch307/CHV307_Library-master/Example/libraries/sdk/Peripheral/ch32v30x_usbotg_device.c:417
                errflag = 0;
    42fc:	f4040f23          	sb	zero,-162(s0)
E:/wch307/CHV307_Library-master/Example/libraries/sdk/Peripheral/ch32v30x_usbotg_device.c:419
                if ( ( pSetupReqPakHD->bRequestType & USB_REQ_TYP_MASK ) != USB_REQ_TYP_STANDARD )  //非标准请求
    4300:	8501a783          	lw	a5,-1968(gp) # 20000288 <pEP0_RAM_Addr>
    4304:	0007c783          	lbu	a5,0(a5)
    4308:	0607f793          	andi	a5,a5,96
    430c:	12078b63          	beqz	a5,4442 <OTG_FS_IRQHandler+0x22c>
E:/wch307/CHV307_Library-master/Example/libraries/sdk/Peripheral/ch32v30x_usbotg_device.c:422
                    if(SetupReqCode & 0x20)
    4310:	8641c783          	lbu	a5,-1948(gp) # 2000029c <SetupReqCode>
    4314:	0ff7f793          	andi	a5,a5,255
    4318:	0207f793          	andi	a5,a5,32
    431c:	c3d5                	beqz	a5,43c0 <OTG_FS_IRQHandler+0x1aa>
E:/wch307/CHV307_Library-master/Example/libraries/sdk/Peripheral/ch32v30x_usbotg_device.c:424
                        switch( SetupReqCode )
    431e:	8641c783          	lbu	a5,-1948(gp) # 2000029c <SetupReqCode>
    4322:	0ff7f793          	andi	a5,a5,255
    4326:	02100713          	li	a4,33
    432a:	00e78b63          	beq	a5,a4,4340 <OTG_FS_IRQHandler+0x12a>
    432e:	02200713          	li	a4,34
    4332:	08e78963          	beq	a5,a4,43c4 <OTG_FS_IRQHandler+0x1ae>
    4336:	02000713          	li	a4,32
    433a:	08e78763          	beq	a5,a4,43c8 <OTG_FS_IRQHandler+0x1b2>
    433e:	a8ad                	j	43b8 <OTG_FS_IRQHandler+0x1a2>
E:/wch307/CHV307_Library-master/Example/libraries/sdk/Peripheral/ch32v30x_usbotg_device.c:427
                                pDescr = LineCoding;
    4340:	81c18713          	addi	a4,gp,-2020 # 20000254 <LineCoding>
    4344:	84e1ae23          	sw	a4,-1956(gp) # 20000294 <pDescr>
E:/wch307/CHV307_Library-master/Example/libraries/sdk/Peripheral/ch32v30x_usbotg_device.c:428
                                len = sizeof(LineCoding);
    4348:	479d                	li	a5,7
    434a:	f4f40fa3          	sb	a5,-161(s0)
E:/wch307/CHV307_Library-master/Example/libraries/sdk/Peripheral/ch32v30x_usbotg_device.c:429
                                len = SetupReqLen >= DEFAULT_ENDP0_SIZE ? DEFAULT_ENDP0_SIZE : SetupReqLen;  // 本次传输长度
    434e:	8661d783          	lhu	a5,-1946(gp) # 2000029e <SetupReqLen>
    4352:	01079713          	slli	a4,a5,0x10
    4356:	8341                	srli	a4,a4,0x10
    4358:	479d                	li	a5,7
    435a:	00e7e963          	bltu	a5,a4,436c <OTG_FS_IRQHandler+0x156>
E:/wch307/CHV307_Library-master/Example/libraries/sdk/Peripheral/ch32v30x_usbotg_device.c:429 (discriminator 1)
    435e:	8661d783          	lhu	a5,-1946(gp) # 2000029e <SetupReqLen>
    4362:	07c2                	slli	a5,a5,0x10
    4364:	83c1                	srli	a5,a5,0x10
    4366:	0ff7f793          	andi	a5,a5,255
    436a:	a011                	j	436e <OTG_FS_IRQHandler+0x158>
E:/wch307/CHV307_Library-master/Example/libraries/sdk/Peripheral/ch32v30x_usbotg_device.c:429 (discriminator 2)
    436c:	47a1                	li	a5,8
E:/wch307/CHV307_Library-master/Example/libraries/sdk/Peripheral/ch32v30x_usbotg_device.c:429 (discriminator 4)
    436e:	f4f40fa3          	sb	a5,-161(s0)
E:/wch307/CHV307_Library-master/Example/libraries/sdk/Peripheral/ch32v30x_usbotg_device.c:430 (discriminator 4)
                                memcpy(pEP0_DataBuf,pDescr,len);
    4372:	8501a703          	lw	a4,-1968(gp) # 20000288 <pEP0_RAM_Addr>
    4376:	85c1a783          	lw	a5,-1956(gp) # 20000294 <pDescr>
    437a:	f5f44683          	lbu	a3,-161(s0)
    437e:	8636                	mv	a2,a3
    4380:	85be                	mv	a1,a5
    4382:	853a                	mv	a0,a4
    4384:	326030ef          	jal	ra,76aa <memcpy>
E:/wch307/CHV307_Library-master/Example/libraries/sdk/Peripheral/ch32v30x_usbotg_device.c:431 (discriminator 4)
                                SetupReqLen -= len;
    4388:	8661d783          	lhu	a5,-1946(gp) # 2000029e <SetupReqLen>
    438c:	01079713          	slli	a4,a5,0x10
    4390:	8341                	srli	a4,a4,0x10
    4392:	f5f44783          	lbu	a5,-161(s0)
    4396:	07c2                	slli	a5,a5,0x10
    4398:	83c1                	srli	a5,a5,0x10
    439a:	40f707b3          	sub	a5,a4,a5
    439e:	01079713          	slli	a4,a5,0x10
    43a2:	8341                	srli	a4,a4,0x10
    43a4:	86e19323          	sh	a4,-1946(gp) # 2000029e <SetupReqLen>
E:/wch307/CHV307_Library-master/Example/libraries/sdk/Peripheral/ch32v30x_usbotg_device.c:432 (discriminator 4)
                                pDescr += len;
    43a8:	85c1a703          	lw	a4,-1956(gp) # 20000294 <pDescr>
    43ac:	f5f44783          	lbu	a5,-161(s0)
    43b0:	973e                	add	a4,a4,a5
    43b2:	84e1ae23          	sw	a4,-1956(gp) # 20000294 <pDescr>
E:/wch307/CHV307_Library-master/Example/libraries/sdk/Peripheral/ch32v30x_usbotg_device.c:433 (discriminator 4)
                            break;
    43b6:	a811                	j	43ca <OTG_FS_IRQHandler+0x1b4>
E:/wch307/CHV307_Library-master/Example/libraries/sdk/Peripheral/ch32v30x_usbotg_device.c:442
                                errflag = 0xFF;
    43b8:	57fd                	li	a5,-1
    43ba:	f4f40f23          	sb	a5,-162(s0)
    43be:	a031                	j	43ca <OTG_FS_IRQHandler+0x1b4>
E:/wch307/CHV307_Library-master/Example/libraries/sdk/Peripheral/ch32v30x_usbotg_device.c:444
                    }
    43c0:	0001                	nop
    43c2:	a021                	j	43ca <OTG_FS_IRQHandler+0x1b4>
E:/wch307/CHV307_Library-master/Example/libraries/sdk/Peripheral/ch32v30x_usbotg_device.c:436
                            break;
    43c4:	0001                	nop
    43c6:	a011                	j	43ca <OTG_FS_IRQHandler+0x1b4>
E:/wch307/CHV307_Library-master/Example/libraries/sdk/Peripheral/ch32v30x_usbotg_device.c:439
                            break;
    43c8:	0001                	nop
E:/wch307/CHV307_Library-master/Example/libraries/sdk/Peripheral/ch32v30x_usbotg_device.c:461
                    if( errflag != 0xFF )
    43ca:	f5e44703          	lbu	a4,-162(s0)
    43ce:	0ff00793          	li	a5,255
    43d2:	68f70363          	beq	a4,a5,4a58 <OTG_FS_IRQHandler+0x842>
E:/wch307/CHV307_Library-master/Example/libraries/sdk/Peripheral/ch32v30x_usbotg_device.c:463
                        if( SetupReqLen > len )
    43d6:	f5f44783          	lbu	a5,-161(s0)
    43da:	01079713          	slli	a4,a5,0x10
    43de:	8341                	srli	a4,a4,0x10
    43e0:	8661d783          	lhu	a5,-1946(gp) # 2000029e <SetupReqLen>
    43e4:	07c2                	slli	a5,a5,0x10
    43e6:	83c1                	srli	a5,a5,0x10
    43e8:	00f77963          	bgeu	a4,a5,43fa <OTG_FS_IRQHandler+0x1e4>
E:/wch307/CHV307_Library-master/Example/libraries/sdk/Peripheral/ch32v30x_usbotg_device.c:465
                            SetupReqLen = len;
    43ec:	f5f44783          	lbu	a5,-161(s0)
    43f0:	01079713          	slli	a4,a5,0x10
    43f4:	8341                	srli	a4,a4,0x10
    43f6:	86e19323          	sh	a4,-1946(gp) # 2000029e <SetupReqLen>
E:/wch307/CHV307_Library-master/Example/libraries/sdk/Peripheral/ch32v30x_usbotg_device.c:467
                        len = ( USBHD_Dev_SetupReqLen >= DevEP0SIZE ) ? DevEP0SIZE : USBHD_Dev_SetupReqLen;
    43fa:	8601d783          	lhu	a5,-1952(gp) # 20000298 <USBHD_Dev_SetupReqLen>
    43fe:	01079713          	slli	a4,a5,0x10
    4402:	8341                	srli	a4,a4,0x10
    4404:	479d                	li	a5,7
    4406:	00e7e963          	bltu	a5,a4,4418 <OTG_FS_IRQHandler+0x202>
E:/wch307/CHV307_Library-master/Example/libraries/sdk/Peripheral/ch32v30x_usbotg_device.c:467 (discriminator 1)
    440a:	8601d783          	lhu	a5,-1952(gp) # 20000298 <USBHD_Dev_SetupReqLen>
    440e:	07c2                	slli	a5,a5,0x10
    4410:	83c1                	srli	a5,a5,0x10
    4412:	0ff7f793          	andi	a5,a5,255
    4416:	a011                	j	441a <OTG_FS_IRQHandler+0x204>
E:/wch307/CHV307_Library-master/Example/libraries/sdk/Peripheral/ch32v30x_usbotg_device.c:467 (discriminator 2)
    4418:	47a1                	li	a5,8
E:/wch307/CHV307_Library-master/Example/libraries/sdk/Peripheral/ch32v30x_usbotg_device.c:467 (discriminator 4)
    441a:	f4f40fa3          	sb	a5,-161(s0)
E:/wch307/CHV307_Library-master/Example/libraries/sdk/Peripheral/ch32v30x_usbotg_device.c:468 (discriminator 4)
                        memcpy( EP0_DatabufHD, pDescr, len );
    441e:	85c1a783          	lw	a5,-1956(gp) # 20000294 <pDescr>
    4422:	f5f44703          	lbu	a4,-161(s0)
    4426:	863a                	mv	a2,a4
    4428:	85be                	mv	a1,a5
    442a:	84818513          	addi	a0,gp,-1976 # 20000280 <EP0_DatabufHD>
    442e:	27c030ef          	jal	ra,76aa <memcpy>
E:/wch307/CHV307_Library-master/Example/libraries/sdk/Peripheral/ch32v30x_usbotg_device.c:469 (discriminator 4)
                        pDescr += len;
    4432:	85c1a703          	lw	a4,-1956(gp) # 20000294 <pDescr>
    4436:	f5f44783          	lbu	a5,-161(s0)
    443a:	973e                	add	a4,a4,a5
    443c:	84e1ae23          	sw	a4,-1956(gp) # 20000294 <pDescr>
    4440:	ad21                	j	4a58 <OTG_FS_IRQHandler+0x842>
E:/wch307/CHV307_Library-master/Example/libraries/sdk/Peripheral/ch32v30x_usbotg_device.c:475
                    switch( SetupReqCode )
    4442:	8641c783          	lbu	a5,-1948(gp) # 2000029c <SetupReqCode>
    4446:	0ff7f793          	andi	a5,a5,255
    444a:	472d                	li	a4,11
    444c:	5ef76b63          	bltu	a4,a5,4a42 <OTG_FS_IRQHandler+0x82c>
    4450:	00279713          	slli	a4,a5,0x2
    4454:	67ad                	lui	a5,0xb
    4456:	e7478793          	addi	a5,a5,-396 # ae74 <MyUSBQUADescHD+0xc>
    445a:	97ba                	add	a5,a5,a4
    445c:	439c                	lw	a5,0(a5)
    445e:	8782                	jr	a5
E:/wch307/CHV307_Library-master/Example/libraries/sdk/Peripheral/ch32v30x_usbotg_device.c:479 (discriminator 1)
                            switch( ((pSetupReqPakHD->wValue)>>8) )
    4460:	8501a783          	lw	a5,-1968(gp) # 20000288 <pEP0_RAM_Addr>
    4464:	0027c703          	lbu	a4,2(a5)
    4468:	0037c783          	lbu	a5,3(a5)
    446c:	07a2                	slli	a5,a5,0x8
    446e:	8fd9                	or	a5,a5,a4
    4470:	07c2                	slli	a5,a5,0x10
    4472:	83c1                	srli	a5,a5,0x10
    4474:	83a1                	srli	a5,a5,0x8
    4476:	07c2                	slli	a5,a5,0x10
    4478:	83c1                	srli	a5,a5,0x10
    447a:	02200713          	li	a4,34
    447e:	12f76563          	bltu	a4,a5,45a8 <OTG_FS_IRQHandler+0x392>
    4482:	00279713          	slli	a4,a5,0x2
    4486:	67ad                	lui	a5,0xb
    4488:	ea478793          	addi	a5,a5,-348 # aea4 <MyUSBQUADescHD+0x3c>
    448c:	97ba                	add	a5,a5,a4
    448e:	439c                	lw	a5,0(a5)
    4490:	8782                	jr	a5
E:/wch307/CHV307_Library-master/Example/libraries/sdk/Peripheral/ch32v30x_usbotg_device.c:483
                                    pDescr = MyDevDescrHD;
    4492:	672d                	lui	a4,0xb
    4494:	dc870713          	addi	a4,a4,-568 # adc8 <MyDevDescrHD>
    4498:	84e1ae23          	sw	a4,-1956(gp) # 20000294 <pDescr>
E:/wch307/CHV307_Library-master/Example/libraries/sdk/Peripheral/ch32v30x_usbotg_device.c:484
                                    len = MyDevDescrHD[0];
    449c:	47c9                	li	a5,18
    449e:	f4f40fa3          	sb	a5,-161(s0)
E:/wch307/CHV307_Library-master/Example/libraries/sdk/Peripheral/ch32v30x_usbotg_device.c:485
                                    break;
    44a2:	a239                	j	45b0 <OTG_FS_IRQHandler+0x39a>
E:/wch307/CHV307_Library-master/Example/libraries/sdk/Peripheral/ch32v30x_usbotg_device.c:489
                                    pDescr = MyCfgDescrHD;
    44a4:	672d                	lui	a4,0xb
    44a6:	ddc70713          	addi	a4,a4,-548 # addc <MyCfgDescrHD>
    44aa:	84e1ae23          	sw	a4,-1956(gp) # 20000294 <pDescr>
E:/wch307/CHV307_Library-master/Example/libraries/sdk/Peripheral/ch32v30x_usbotg_device.c:490
                                    len = MyCfgDescrHD[2];
    44ae:	04300793          	li	a5,67
    44b2:	f4f40fa3          	sb	a5,-161(s0)
E:/wch307/CHV307_Library-master/Example/libraries/sdk/Peripheral/ch32v30x_usbotg_device.c:491
                                    break;
    44b6:	a8ed                	j	45b0 <OTG_FS_IRQHandler+0x39a>
E:/wch307/CHV307_Library-master/Example/libraries/sdk/Peripheral/ch32v30x_usbotg_device.c:495 (discriminator 2)
                                    switch( (pSetupReqPakHD->wValue)&0xff )
    44b8:	8501a783          	lw	a5,-1968(gp) # 20000288 <pEP0_RAM_Addr>
    44bc:	0027c703          	lbu	a4,2(a5)
    44c0:	0037c783          	lbu	a5,3(a5)
    44c4:	07a2                	slli	a5,a5,0x8
    44c6:	8fd9                	or	a5,a5,a4
    44c8:	07c2                	slli	a5,a5,0x10
    44ca:	83c1                	srli	a5,a5,0x10
    44cc:	0ff7f793          	andi	a5,a5,255
    44d0:	4705                	li	a4,1
    44d2:	02e78663          	beq	a5,a4,44fe <OTG_FS_IRQHandler+0x2e8>
    44d6:	4705                	li	a4,1
    44d8:	00f74463          	blt	a4,a5,44e0 <OTG_FS_IRQHandler+0x2ca>
    44dc:	cb89                	beqz	a5,44ee <OTG_FS_IRQHandler+0x2d8>
    44de:	a899                	j	4534 <OTG_FS_IRQHandler+0x31e>
    44e0:	4709                	li	a4,2
    44e2:	02e78763          	beq	a5,a4,4510 <OTG_FS_IRQHandler+0x2fa>
    44e6:	470d                	li	a4,3
    44e8:	02e78d63          	beq	a5,a4,4522 <OTG_FS_IRQHandler+0x30c>
    44ec:	a0a1                	j	4534 <OTG_FS_IRQHandler+0x31e>
E:/wch307/CHV307_Library-master/Example/libraries/sdk/Peripheral/ch32v30x_usbotg_device.c:499
                                        pDescr = MyLangDescrHD;
    44ee:	83018713          	addi	a4,gp,-2000 # 20000268 <MyLangDescrHD>
    44f2:	84e1ae23          	sw	a4,-1956(gp) # 20000294 <pDescr>
E:/wch307/CHV307_Library-master/Example/libraries/sdk/Peripheral/ch32v30x_usbotg_device.c:500
                                        len = MyLangDescrHD[0];
    44f6:	4791                	li	a5,4
    44f8:	f4f40fa3          	sb	a5,-161(s0)
E:/wch307/CHV307_Library-master/Example/libraries/sdk/Peripheral/ch32v30x_usbotg_device.c:501
                                            break;
    44fc:	a081                	j	453c <OTG_FS_IRQHandler+0x326>
E:/wch307/CHV307_Library-master/Example/libraries/sdk/Peripheral/ch32v30x_usbotg_device.c:505
                                            pDescr = MyManuInfoHD;
    44fe:	672d                	lui	a4,0xb
    4500:	e3470713          	addi	a4,a4,-460 # ae34 <MyManuInfoHD>
    4504:	84e1ae23          	sw	a4,-1956(gp) # 20000294 <pDescr>
E:/wch307/CHV307_Library-master/Example/libraries/sdk/Peripheral/ch32v30x_usbotg_device.c:506
                                            len = MyManuInfoHD[0];
    4508:	47b9                	li	a5,14
    450a:	f4f40fa3          	sb	a5,-161(s0)
E:/wch307/CHV307_Library-master/Example/libraries/sdk/Peripheral/ch32v30x_usbotg_device.c:507
                                            break;
    450e:	a03d                	j	453c <OTG_FS_IRQHandler+0x326>
E:/wch307/CHV307_Library-master/Example/libraries/sdk/Peripheral/ch32v30x_usbotg_device.c:511
                                            pDescr = MyProdInfoHD;
    4510:	672d                	lui	a4,0xb
    4512:	e4470713          	addi	a4,a4,-444 # ae44 <MyProdInfoHD>
    4516:	84e1ae23          	sw	a4,-1956(gp) # 20000294 <pDescr>
E:/wch307/CHV307_Library-master/Example/libraries/sdk/Peripheral/ch32v30x_usbotg_device.c:512
                                            len = MyProdInfoHD[0];
    451a:	47b1                	li	a5,12
    451c:	f4f40fa3          	sb	a5,-161(s0)
E:/wch307/CHV307_Library-master/Example/libraries/sdk/Peripheral/ch32v30x_usbotg_device.c:513
                                            break;
    4520:	a831                	j	453c <OTG_FS_IRQHandler+0x326>
E:/wch307/CHV307_Library-master/Example/libraries/sdk/Peripheral/ch32v30x_usbotg_device.c:517
                                            pDescr = MySerNumInfoHD;
    4522:	672d                	lui	a4,0xb
    4524:	e5070713          	addi	a4,a4,-432 # ae50 <MySerNumInfoHD>
    4528:	84e1ae23          	sw	a4,-1956(gp) # 20000294 <pDescr>
E:/wch307/CHV307_Library-master/Example/libraries/sdk/Peripheral/ch32v30x_usbotg_device.c:518
                                            len = sizeof( MySerNumInfoHD );
    452c:	47d9                	li	a5,22
    452e:	f4f40fa3          	sb	a5,-161(s0)
E:/wch307/CHV307_Library-master/Example/libraries/sdk/Peripheral/ch32v30x_usbotg_device.c:519
                                            break;
    4532:	a029                	j	453c <OTG_FS_IRQHandler+0x326>
E:/wch307/CHV307_Library-master/Example/libraries/sdk/Peripheral/ch32v30x_usbotg_device.c:522
                                            errflag = 0xFF;
    4534:	57fd                	li	a5,-1
    4536:	f4f40f23          	sb	a5,-162(s0)
E:/wch307/CHV307_Library-master/Example/libraries/sdk/Peripheral/ch32v30x_usbotg_device.c:523
                                            break;
    453a:	0001                	nop
E:/wch307/CHV307_Library-master/Example/libraries/sdk/Peripheral/ch32v30x_usbotg_device.c:525
                                    break;
    453c:	a895                	j	45b0 <OTG_FS_IRQHandler+0x39a>
E:/wch307/CHV307_Library-master/Example/libraries/sdk/Peripheral/ch32v30x_usbotg_device.c:529
                                    pDescr = MyReportDescHD;
    453e:	672d                	lui	a4,0xb
    4540:	e2070713          	addi	a4,a4,-480 # ae20 <MyReportDescHD>
    4544:	84e1ae23          	sw	a4,-1956(gp) # 20000294 <pDescr>
E:/wch307/CHV307_Library-master/Example/libraries/sdk/Peripheral/ch32v30x_usbotg_device.c:530
                                    len = sizeof( MyReportDescHD );
    4548:	47d1                	li	a5,20
    454a:	f4f40fa3          	sb	a5,-161(s0)
E:/wch307/CHV307_Library-master/Example/libraries/sdk/Peripheral/ch32v30x_usbotg_device.c:531
                                    break;
    454e:	a08d                	j	45b0 <OTG_FS_IRQHandler+0x39a>
E:/wch307/CHV307_Library-master/Example/libraries/sdk/Peripheral/ch32v30x_usbotg_device.c:535
                                    pDescr = ( PUINT8 )&MyUSBQUADescHD[ 0 ];
    4550:	672d                	lui	a4,0xb
    4552:	e6870713          	addi	a4,a4,-408 # ae68 <MyUSBQUADescHD>
    4556:	84e1ae23          	sw	a4,-1956(gp) # 20000294 <pDescr>
E:/wch307/CHV307_Library-master/Example/libraries/sdk/Peripheral/ch32v30x_usbotg_device.c:536
                                    len = sizeof( MyUSBQUADescHD );
    455a:	47a9                	li	a5,10
    455c:	f4f40fa3          	sb	a5,-161(s0)
E:/wch307/CHV307_Library-master/Example/libraries/sdk/Peripheral/ch32v30x_usbotg_device.c:537
                                    break;
    4560:	a881                	j	45b0 <OTG_FS_IRQHandler+0x39a>
E:/wch307/CHV307_Library-master/Example/libraries/sdk/Peripheral/ch32v30x_usbotg_device.c:542
                                    if( USBHD_Dev_Speed == 0x00 )
    4562:	8181c783          	lbu	a5,-2024(gp) # 20000250 <USBHD_Dev_Speed>
    4566:	0ff7f793          	andi	a5,a5,255
    456a:	e79d                	bnez	a5,4598 <OTG_FS_IRQHandler+0x382>
E:/wch307/CHV307_Library-master/Example/libraries/sdk/Peripheral/ch32v30x_usbotg_device.c:545
                                      memcpy( &TAB_USB_FS_OSC_DESC[ 2 ], &MyCfgDescrHD[ 2 ], sizeof( MyCfgDescrHD ) - 2 );
    456c:	04100613          	li	a2,65
    4570:	67ad                	lui	a5,0xb
    4572:	dde78593          	addi	a1,a5,-546 # adde <MyCfgDescrHD+0x2>
    4576:	200007b7          	lui	a5,0x20000
    457a:	02678513          	addi	a0,a5,38 # 20000026 <TAB_USB_FS_OSC_DESC+0x2>
    457e:	12c030ef          	jal	ra,76aa <memcpy>
E:/wch307/CHV307_Library-master/Example/libraries/sdk/Peripheral/ch32v30x_usbotg_device.c:546
                                      pDescr = ( PUINT8 )&TAB_USB_FS_OSC_DESC[ 0 ];
    4582:	20000737          	lui	a4,0x20000
    4586:	02470713          	addi	a4,a4,36 # 20000024 <TAB_USB_FS_OSC_DESC>
    458a:	84e1ae23          	sw	a4,-1956(gp) # 20000294 <pDescr>
E:/wch307/CHV307_Library-master/Example/libraries/sdk/Peripheral/ch32v30x_usbotg_device.c:547
                                      len = sizeof( TAB_USB_FS_OSC_DESC );
    458e:	04300793          	li	a5,67
    4592:	f4f40fa3          	sb	a5,-161(s0)
E:/wch307/CHV307_Library-master/Example/libraries/sdk/Peripheral/ch32v30x_usbotg_device.c:553
                                    break;
    4596:	a829                	j	45b0 <OTG_FS_IRQHandler+0x39a>
E:/wch307/CHV307_Library-master/Example/libraries/sdk/Peripheral/ch32v30x_usbotg_device.c:551
                                      errflag = 0xFF;
    4598:	57fd                	li	a5,-1
    459a:	f4f40f23          	sb	a5,-162(s0)
E:/wch307/CHV307_Library-master/Example/libraries/sdk/Peripheral/ch32v30x_usbotg_device.c:553
                                    break;
    459e:	a809                	j	45b0 <OTG_FS_IRQHandler+0x39a>
E:/wch307/CHV307_Library-master/Example/libraries/sdk/Peripheral/ch32v30x_usbotg_device.c:558
                                    errflag = 0xFF;
    45a0:	57fd                	li	a5,-1
    45a2:	f4f40f23          	sb	a5,-162(s0)
E:/wch307/CHV307_Library-master/Example/libraries/sdk/Peripheral/ch32v30x_usbotg_device.c:559
                                    break;
    45a6:	a029                	j	45b0 <OTG_FS_IRQHandler+0x39a>
E:/wch307/CHV307_Library-master/Example/libraries/sdk/Peripheral/ch32v30x_usbotg_device.c:562
                                    errflag = 0xff;
    45a8:	57fd                	li	a5,-1
    45aa:	f4f40f23          	sb	a5,-162(s0)
E:/wch307/CHV307_Library-master/Example/libraries/sdk/Peripheral/ch32v30x_usbotg_device.c:563
                                    break;
    45ae:	0001                	nop
E:/wch307/CHV307_Library-master/Example/libraries/sdk/Peripheral/ch32v30x_usbotg_device.c:567
                            if( SetupReqLen>len )   SetupReqLen = len;
    45b0:	f5f44783          	lbu	a5,-161(s0)
    45b4:	01079713          	slli	a4,a5,0x10
    45b8:	8341                	srli	a4,a4,0x10
    45ba:	8661d783          	lhu	a5,-1946(gp) # 2000029e <SetupReqLen>
    45be:	07c2                	slli	a5,a5,0x10
    45c0:	83c1                	srli	a5,a5,0x10
    45c2:	00f77963          	bgeu	a4,a5,45d4 <OTG_FS_IRQHandler+0x3be>
E:/wch307/CHV307_Library-master/Example/libraries/sdk/Peripheral/ch32v30x_usbotg_device.c:567 (discriminator 1)
    45c6:	f5f44783          	lbu	a5,-161(s0)
    45ca:	01079713          	slli	a4,a5,0x10
    45ce:	8341                	srli	a4,a4,0x10
    45d0:	86e19323          	sh	a4,-1946(gp) # 2000029e <SetupReqLen>
E:/wch307/CHV307_Library-master/Example/libraries/sdk/Peripheral/ch32v30x_usbotg_device.c:568
                            len = (SetupReqLen >= DevEP0SIZE) ? DevEP0SIZE : SetupReqLen;
    45d4:	8661d783          	lhu	a5,-1946(gp) # 2000029e <SetupReqLen>
    45d8:	01079713          	slli	a4,a5,0x10
    45dc:	8341                	srli	a4,a4,0x10
    45de:	479d                	li	a5,7
    45e0:	00e7e963          	bltu	a5,a4,45f2 <OTG_FS_IRQHandler+0x3dc>
E:/wch307/CHV307_Library-master/Example/libraries/sdk/Peripheral/ch32v30x_usbotg_device.c:568 (discriminator 1)
    45e4:	8661d783          	lhu	a5,-1946(gp) # 2000029e <SetupReqLen>
    45e8:	07c2                	slli	a5,a5,0x10
    45ea:	83c1                	srli	a5,a5,0x10
    45ec:	0ff7f793          	andi	a5,a5,255
    45f0:	a011                	j	45f4 <OTG_FS_IRQHandler+0x3de>
E:/wch307/CHV307_Library-master/Example/libraries/sdk/Peripheral/ch32v30x_usbotg_device.c:568 (discriminator 2)
    45f2:	47a1                	li	a5,8
E:/wch307/CHV307_Library-master/Example/libraries/sdk/Peripheral/ch32v30x_usbotg_device.c:568 (discriminator 4)
    45f4:	f4f40fa3          	sb	a5,-161(s0)
E:/wch307/CHV307_Library-master/Example/libraries/sdk/Peripheral/ch32v30x_usbotg_device.c:569 (discriminator 4)
                            memcpy( pEP0_DataBuf, pDescr, len );
    45f8:	8501a703          	lw	a4,-1968(gp) # 20000288 <pEP0_RAM_Addr>
    45fc:	85c1a783          	lw	a5,-1956(gp) # 20000294 <pDescr>
    4600:	f5f44683          	lbu	a3,-161(s0)
    4604:	8636                	mv	a2,a3
    4606:	85be                	mv	a1,a5
    4608:	853a                	mv	a0,a4
    460a:	0a0030ef          	jal	ra,76aa <memcpy>
E:/wch307/CHV307_Library-master/Example/libraries/sdk/Peripheral/ch32v30x_usbotg_device.c:570 (discriminator 4)
                            pDescr += len;
    460e:	85c1a703          	lw	a4,-1956(gp) # 20000294 <pDescr>
    4612:	f5f44783          	lbu	a5,-161(s0)
    4616:	973e                	add	a4,a4,a5
    4618:	84e1ae23          	sw	a4,-1956(gp) # 20000294 <pDescr>
E:/wch307/CHV307_Library-master/Example/libraries/sdk/Peripheral/ch32v30x_usbotg_device.c:572 (discriminator 4)
                            break;
    461c:	a935                	j	4a58 <OTG_FS_IRQHandler+0x842>
E:/wch307/CHV307_Library-master/Example/libraries/sdk/Peripheral/ch32v30x_usbotg_device.c:576
                            SetupReqLen = (pSetupReqPakHD->wValue)&0xff;
    461e:	8501a783          	lw	a5,-1968(gp) # 20000288 <pEP0_RAM_Addr>
    4622:	0027c703          	lbu	a4,2(a5)
    4626:	0037c783          	lbu	a5,3(a5)
    462a:	07a2                	slli	a5,a5,0x8
    462c:	8fd9                	or	a5,a5,a4
    462e:	07c2                	slli	a5,a5,0x10
    4630:	83c1                	srli	a5,a5,0x10
    4632:	0ff7f793          	andi	a5,a5,255
    4636:	01079713          	slli	a4,a5,0x10
    463a:	8341                	srli	a4,a4,0x10
    463c:	86e19323          	sh	a4,-1946(gp) # 2000029e <SetupReqLen>
E:/wch307/CHV307_Library-master/Example/libraries/sdk/Peripheral/ch32v30x_usbotg_device.c:577
                            break;
    4640:	a921                	j	4a58 <OTG_FS_IRQHandler+0x842>
E:/wch307/CHV307_Library-master/Example/libraries/sdk/Peripheral/ch32v30x_usbotg_device.c:581
                            pEP0_DataBuf[0] = DevConfig;
    4642:	8501a783          	lw	a5,-1968(gp) # 20000288 <pEP0_RAM_Addr>
    4646:	8631c703          	lbu	a4,-1949(gp) # 2000029b <DevConfig>
    464a:	0ff77713          	andi	a4,a4,255
    464e:	00e78023          	sb	a4,0(a5)
E:/wch307/CHV307_Library-master/Example/libraries/sdk/Peripheral/ch32v30x_usbotg_device.c:582
                            if ( SetupReqLen > 1 ) SetupReqLen = 1;
    4652:	8661d783          	lhu	a5,-1946(gp) # 2000029e <SetupReqLen>
    4656:	01079713          	slli	a4,a5,0x10
    465a:	8341                	srli	a4,a4,0x10
    465c:	4785                	li	a5,1
    465e:	3ee7f663          	bgeu	a5,a4,4a4a <OTG_FS_IRQHandler+0x834>
E:/wch307/CHV307_Library-master/Example/libraries/sdk/Peripheral/ch32v30x_usbotg_device.c:582 (discriminator 1)
    4662:	4705                	li	a4,1
    4664:	86e19323          	sh	a4,-1946(gp) # 2000029e <SetupReqLen>
E:/wch307/CHV307_Library-master/Example/libraries/sdk/Peripheral/ch32v30x_usbotg_device.c:583 (discriminator 1)
                            break;
    4668:	a6cd                	j	4a4a <OTG_FS_IRQHandler+0x834>
E:/wch307/CHV307_Library-master/Example/libraries/sdk/Peripheral/ch32v30x_usbotg_device.c:587
                            DevConfig = (pSetupReqPakHD->wValue)&0xff;
    466a:	8501a783          	lw	a5,-1968(gp) # 20000288 <pEP0_RAM_Addr>
    466e:	0027c703          	lbu	a4,2(a5)
    4672:	0037c783          	lbu	a5,3(a5)
    4676:	07a2                	slli	a5,a5,0x8
    4678:	8fd9                	or	a5,a5,a4
    467a:	07c2                	slli	a5,a5,0x10
    467c:	83c1                	srli	a5,a5,0x10
    467e:	0ff7f713          	andi	a4,a5,255
    4682:	86e181a3          	sb	a4,-1949(gp) # 2000029b <DevConfig>
E:/wch307/CHV307_Library-master/Example/libraries/sdk/Peripheral/ch32v30x_usbotg_device.c:588
                            break;
    4686:	aec9                	j	4a58 <OTG_FS_IRQHandler+0x842>
E:/wch307/CHV307_Library-master/Example/libraries/sdk/Peripheral/ch32v30x_usbotg_device.c:592
                            if ( ( pSetupReqPakHD->bRequestType & USB_REQ_RECIP_MASK ) == USB_REQ_RECIP_ENDP )
    4688:	8501a783          	lw	a5,-1968(gp) # 20000288 <pEP0_RAM_Addr>
    468c:	0007c783          	lbu	a5,0(a5)
    4690:	01f7f713          	andi	a4,a5,31
    4694:	4789                	li	a5,2
    4696:	0cf71f63          	bne	a4,a5,4774 <OTG_FS_IRQHandler+0x55e>
E:/wch307/CHV307_Library-master/Example/libraries/sdk/Peripheral/ch32v30x_usbotg_device.c:595
                                switch( (pSetupReqPakHD->wIndex)&0xff )
    469a:	8501a783          	lw	a5,-1968(gp) # 20000288 <pEP0_RAM_Addr>
    469e:	0047c703          	lbu	a4,4(a5)
    46a2:	0057c783          	lbu	a5,5(a5)
    46a6:	07a2                	slli	a5,a5,0x8
    46a8:	8fd9                	or	a5,a5,a4
    46aa:	07c2                	slli	a5,a5,0x10
    46ac:	83c1                	srli	a5,a5,0x10
    46ae:	0ff7f793          	andi	a5,a5,255
    46b2:	4709                	li	a4,2
    46b4:	04e78863          	beq	a5,a4,4704 <OTG_FS_IRQHandler+0x4ee>
    46b8:	4709                	li	a4,2
    46ba:	00f74663          	blt	a4,a5,46c6 <OTG_FS_IRQHandler+0x4b0>
    46be:	4705                	li	a4,1
    46c0:	08e78763          	beq	a5,a4,474e <OTG_FS_IRQHandler+0x538>
    46c4:	a05d                	j	476a <OTG_FS_IRQHandler+0x554>
    46c6:	08100713          	li	a4,129
    46ca:	04e78b63          	beq	a5,a4,4720 <OTG_FS_IRQHandler+0x50a>
    46ce:	08200713          	li	a4,130
    46d2:	08e79c63          	bne	a5,a4,476a <OTG_FS_IRQHandler+0x554>
E:/wch307/CHV307_Library-master/Example/libraries/sdk/Peripheral/ch32v30x_usbotg_device.c:598
                                    USBOTG_FS->UEP2_TX_CTRL = (USBOTG_FS->UEP2_TX_CTRL & ~( USBHD_UEP_T_TOG|USBHD_UEP_T_RES_MASK )) | USBHD_UEP_T_RES_NAK;
    46d6:	500007b7          	lui	a5,0x50000
    46da:	03a7c783          	lbu	a5,58(a5) # 5000003a <_eusrstack+0x2fff003a>
    46de:	0ff7f793          	andi	a5,a5,255
    46e2:	07e2                	slli	a5,a5,0x18
    46e4:	87e1                	srai	a5,a5,0x18
    46e6:	9be1                	andi	a5,a5,-8
    46e8:	07e2                	slli	a5,a5,0x18
    46ea:	87e1                	srai	a5,a5,0x18
    46ec:	0027e793          	ori	a5,a5,2
    46f0:	01879713          	slli	a4,a5,0x18
    46f4:	8761                	srai	a4,a4,0x18
    46f6:	500007b7          	lui	a5,0x50000
    46fa:	0ff77713          	andi	a4,a4,255
    46fe:	02e78d23          	sb	a4,58(a5) # 5000003a <_eusrstack+0x2fff003a>
E:/wch307/CHV307_Library-master/Example/libraries/sdk/Peripheral/ch32v30x_usbotg_device.c:599
                                    break;
    4702:	a8ad                	j	477c <OTG_FS_IRQHandler+0x566>
E:/wch307/CHV307_Library-master/Example/libraries/sdk/Peripheral/ch32v30x_usbotg_device.c:602
                                    USBOTG_FS->UEP2_RX_CTRL = (USBOTG_FS->UEP2_RX_CTRL & ~( USBHD_UEP_R_TOG|USBHD_UEP_R_RES_MASK )) | USBHD_UEP_R_RES_ACK;
    4704:	500007b7          	lui	a5,0x50000
    4708:	03b7c783          	lbu	a5,59(a5) # 5000003b <_eusrstack+0x2fff003b>
    470c:	0ff7f713          	andi	a4,a5,255
    4710:	500007b7          	lui	a5,0x50000
    4714:	9b61                	andi	a4,a4,-8
    4716:	0ff77713          	andi	a4,a4,255
    471a:	02e78da3          	sb	a4,59(a5) # 5000003b <_eusrstack+0x2fff003b>
E:/wch307/CHV307_Library-master/Example/libraries/sdk/Peripheral/ch32v30x_usbotg_device.c:603
                                    break;
    471e:	a8b9                	j	477c <OTG_FS_IRQHandler+0x566>
E:/wch307/CHV307_Library-master/Example/libraries/sdk/Peripheral/ch32v30x_usbotg_device.c:606
                                    USBOTG_FS->UEP1_TX_CTRL = (USBOTG_FS->UEP1_TX_CTRL & ~( USBHD_UEP_T_TOG|USBHD_UEP_T_RES_MASK )) | USBHD_UEP_T_RES_NAK;
    4720:	500007b7          	lui	a5,0x50000
    4724:	0367c783          	lbu	a5,54(a5) # 50000036 <_eusrstack+0x2fff0036>
    4728:	0ff7f793          	andi	a5,a5,255
    472c:	07e2                	slli	a5,a5,0x18
    472e:	87e1                	srai	a5,a5,0x18
    4730:	9be1                	andi	a5,a5,-8
    4732:	07e2                	slli	a5,a5,0x18
    4734:	87e1                	srai	a5,a5,0x18
    4736:	0027e793          	ori	a5,a5,2
    473a:	01879713          	slli	a4,a5,0x18
    473e:	8761                	srai	a4,a4,0x18
    4740:	500007b7          	lui	a5,0x50000
    4744:	0ff77713          	andi	a4,a4,255
    4748:	02e78b23          	sb	a4,54(a5) # 50000036 <_eusrstack+0x2fff0036>
E:/wch307/CHV307_Library-master/Example/libraries/sdk/Peripheral/ch32v30x_usbotg_device.c:607
                                    break;
    474c:	a805                	j	477c <OTG_FS_IRQHandler+0x566>
E:/wch307/CHV307_Library-master/Example/libraries/sdk/Peripheral/ch32v30x_usbotg_device.c:610
                                    USBOTG_FS->UEP1_RX_CTRL = (USBOTG_FS->UEP1_RX_CTRL & ~( USBHD_UEP_R_TOG|USBHD_UEP_R_RES_MASK )) | USBHD_UEP_R_RES_ACK;
    474e:	500007b7          	lui	a5,0x50000
    4752:	0377c783          	lbu	a5,55(a5) # 50000037 <_eusrstack+0x2fff0037>
    4756:	0ff7f713          	andi	a4,a5,255
    475a:	500007b7          	lui	a5,0x50000
    475e:	9b61                	andi	a4,a4,-8
    4760:	0ff77713          	andi	a4,a4,255
    4764:	02e78ba3          	sb	a4,55(a5) # 50000037 <_eusrstack+0x2fff0037>
E:/wch307/CHV307_Library-master/Example/libraries/sdk/Peripheral/ch32v30x_usbotg_device.c:611
                                    break;
    4768:	a811                	j	477c <OTG_FS_IRQHandler+0x566>
E:/wch307/CHV307_Library-master/Example/libraries/sdk/Peripheral/ch32v30x_usbotg_device.c:614
                                    errflag = 0xFF;
    476a:	57fd                	li	a5,-1
    476c:	f4f40f23          	sb	a5,-162(s0)
E:/wch307/CHV307_Library-master/Example/libraries/sdk/Peripheral/ch32v30x_usbotg_device.c:615
                                    break;
    4770:	0001                	nop
    4772:	a029                	j	477c <OTG_FS_IRQHandler+0x566>
E:/wch307/CHV307_Library-master/Example/libraries/sdk/Peripheral/ch32v30x_usbotg_device.c:619
                            else    errflag = 0xFF;
    4774:	57fd                	li	a5,-1
    4776:	f4f40f23          	sb	a5,-162(s0)
E:/wch307/CHV307_Library-master/Example/libraries/sdk/Peripheral/ch32v30x_usbotg_device.c:620
                            break;
    477a:	acf9                	j	4a58 <OTG_FS_IRQHandler+0x842>
    477c:	acf1                	j	4a58 <OTG_FS_IRQHandler+0x842>
E:/wch307/CHV307_Library-master/Example/libraries/sdk/Peripheral/ch32v30x_usbotg_device.c:624
                            if( ( pMySetupReqPakHD->bRequestType & 0x1F ) == 0x00 )
    477e:	84818793          	addi	a5,gp,-1976 # 20000280 <EP0_DatabufHD>
    4782:	0007c783          	lbu	a5,0(a5)
    4786:	8bfd                	andi	a5,a5,31
    4788:	e3a1                	bnez	a5,47c8 <OTG_FS_IRQHandler+0x5b2>
E:/wch307/CHV307_Library-master/Example/libraries/sdk/Peripheral/ch32v30x_usbotg_device.c:627
                                if( pMySetupReqPakHD->wValue == 0x01 )
    478a:	84818793          	addi	a5,gp,-1976 # 20000280 <EP0_DatabufHD>
    478e:	0027c703          	lbu	a4,2(a5)
    4792:	0037c783          	lbu	a5,3(a5)
    4796:	07a2                	slli	a5,a5,0x8
    4798:	8fd9                	or	a5,a5,a4
    479a:	01079713          	slli	a4,a5,0x10
    479e:	8341                	srli	a4,a4,0x10
    47a0:	4785                	li	a5,1
    47a2:	00f71f63          	bne	a4,a5,47c0 <OTG_FS_IRQHandler+0x5aa>
E:/wch307/CHV307_Library-master/Example/libraries/sdk/Peripheral/ch32v30x_usbotg_device.c:629
                                    if( MyCfgDescrHD[ 7 ] & 0x20 )
    47a6:	0a000793          	li	a5,160
    47aa:	0207f793          	andi	a5,a5,32
    47ae:	c789                	beqz	a5,47b8 <OTG_FS_IRQHandler+0x5a2>
E:/wch307/CHV307_Library-master/Example/libraries/sdk/Peripheral/ch32v30x_usbotg_device.c:632
                                        USBHD_Dev_SleepStatus = 0x01;
    47b0:	4705                	li	a4,1
    47b2:	86e18123          	sb	a4,-1950(gp) # 2000029a <USBHD_Dev_SleepStatus>
E:/wch307/CHV307_Library-master/Example/libraries/sdk/Peripheral/ch32v30x_usbotg_device.c:690
                            break;
    47b6:	a44d                	j	4a58 <OTG_FS_IRQHandler+0x842>
E:/wch307/CHV307_Library-master/Example/libraries/sdk/Peripheral/ch32v30x_usbotg_device.c:636
                                        errflag = 0xFF;
    47b8:	57fd                	li	a5,-1
    47ba:	f4f40f23          	sb	a5,-162(s0)
E:/wch307/CHV307_Library-master/Example/libraries/sdk/Peripheral/ch32v30x_usbotg_device.c:690
                            break;
    47be:	ac69                	j	4a58 <OTG_FS_IRQHandler+0x842>
E:/wch307/CHV307_Library-master/Example/libraries/sdk/Peripheral/ch32v30x_usbotg_device.c:641
                                    errflag = 0xFF;
    47c0:	57fd                	li	a5,-1
    47c2:	f4f40f23          	sb	a5,-162(s0)
E:/wch307/CHV307_Library-master/Example/libraries/sdk/Peripheral/ch32v30x_usbotg_device.c:690
                            break;
    47c6:	ac49                	j	4a58 <OTG_FS_IRQHandler+0x842>
E:/wch307/CHV307_Library-master/Example/libraries/sdk/Peripheral/ch32v30x_usbotg_device.c:644
                            else if( ( pMySetupReqPakHD->bRequestType & 0x1F ) == 0x02 )
    47c8:	84818793          	addi	a5,gp,-1976 # 20000280 <EP0_DatabufHD>
    47cc:	0007c783          	lbu	a5,0(a5)
    47d0:	01f7f713          	andi	a4,a5,31
    47d4:	4789                	li	a5,2
    47d6:	10f71c63          	bne	a4,a5,48ee <OTG_FS_IRQHandler+0x6d8>
E:/wch307/CHV307_Library-master/Example/libraries/sdk/Peripheral/ch32v30x_usbotg_device.c:647
                                if( pMySetupReqPakHD->wValue == 0x00 )
    47da:	84818793          	addi	a5,gp,-1976 # 20000280 <EP0_DatabufHD>
    47de:	0027c703          	lbu	a4,2(a5)
    47e2:	0037c783          	lbu	a5,3(a5)
    47e6:	07a2                	slli	a5,a5,0x8
    47e8:	8fd9                	or	a5,a5,a4
    47ea:	07c2                	slli	a5,a5,0x10
    47ec:	83c1                	srli	a5,a5,0x10
    47ee:	efe5                	bnez	a5,48e6 <OTG_FS_IRQHandler+0x6d0>
E:/wch307/CHV307_Library-master/Example/libraries/sdk/Peripheral/ch32v30x_usbotg_device.c:650
                                    switch( ( pMySetupReqPakHD->wIndex ) & 0xff )
    47f0:	84818793          	addi	a5,gp,-1976 # 20000280 <EP0_DatabufHD>
    47f4:	0047c703          	lbu	a4,4(a5)
    47f8:	0057c783          	lbu	a5,5(a5)
    47fc:	07a2                	slli	a5,a5,0x8
    47fe:	8fd9                	or	a5,a5,a4
    4800:	07c2                	slli	a5,a5,0x10
    4802:	83c1                	srli	a5,a5,0x10
    4804:	0ff7f793          	andi	a5,a5,255
    4808:	4709                	li	a4,2
    480a:	04e78763          	beq	a5,a4,4858 <OTG_FS_IRQHandler+0x642>
    480e:	4709                	li	a4,2
    4810:	00f74663          	blt	a4,a5,481c <OTG_FS_IRQHandler+0x606>
    4814:	4705                	li	a4,1
    4816:	08e78d63          	beq	a5,a4,48b0 <OTG_FS_IRQHandler+0x69a>
    481a:	a0c9                	j	48dc <OTG_FS_IRQHandler+0x6c6>
    481c:	08100713          	li	a4,129
    4820:	06e78263          	beq	a5,a4,4884 <OTG_FS_IRQHandler+0x66e>
    4824:	08200713          	li	a4,130
    4828:	0ae79a63          	bne	a5,a4,48dc <OTG_FS_IRQHandler+0x6c6>
E:/wch307/CHV307_Library-master/Example/libraries/sdk/Peripheral/ch32v30x_usbotg_device.c:654
                                            USBOTG_FS->UEP2_TX_CTRL = ( USBOTG_FS->UEP2_TX_CTRL &= ~USBHD_UEP_T_RES_MASK ) | USBHD_UEP_T_RES_STALL;
    482c:	500007b7          	lui	a5,0x50000
    4830:	03a7c783          	lbu	a5,58(a5) # 5000003a <_eusrstack+0x2fff003a>
    4834:	0ff7f793          	andi	a5,a5,255
    4838:	50000737          	lui	a4,0x50000
    483c:	9bf1                	andi	a5,a5,-4
    483e:	0ff7f793          	andi	a5,a5,255
    4842:	02f70d23          	sb	a5,58(a4) # 5000003a <_eusrstack+0x2fff003a>
    4846:	50000737          	lui	a4,0x50000
    484a:	0037e793          	ori	a5,a5,3
    484e:	0ff7f793          	andi	a5,a5,255
    4852:	02f70d23          	sb	a5,58(a4) # 5000003a <_eusrstack+0x2fff003a>
E:/wch307/CHV307_Library-master/Example/libraries/sdk/Peripheral/ch32v30x_usbotg_device.c:656
                                            break;
    4856:	a045                	j	48f6 <OTG_FS_IRQHandler+0x6e0>
E:/wch307/CHV307_Library-master/Example/libraries/sdk/Peripheral/ch32v30x_usbotg_device.c:660
                                            USBOTG_FS->UEP2_RX_CTRL = ( USBOTG_FS->UEP2_RX_CTRL &= ~USBHD_UEP_R_RES_MASK ) | USBHD_UEP_R_RES_STALL;
    4858:	500007b7          	lui	a5,0x50000
    485c:	03b7c783          	lbu	a5,59(a5) # 5000003b <_eusrstack+0x2fff003b>
    4860:	0ff7f793          	andi	a5,a5,255
    4864:	50000737          	lui	a4,0x50000
    4868:	9bf1                	andi	a5,a5,-4
    486a:	0ff7f793          	andi	a5,a5,255
    486e:	02f70da3          	sb	a5,59(a4) # 5000003b <_eusrstack+0x2fff003b>
    4872:	50000737          	lui	a4,0x50000
    4876:	0037e793          	ori	a5,a5,3
    487a:	0ff7f793          	andi	a5,a5,255
    487e:	02f70da3          	sb	a5,59(a4) # 5000003b <_eusrstack+0x2fff003b>
E:/wch307/CHV307_Library-master/Example/libraries/sdk/Peripheral/ch32v30x_usbotg_device.c:662
                                            break;
    4882:	a895                	j	48f6 <OTG_FS_IRQHandler+0x6e0>
E:/wch307/CHV307_Library-master/Example/libraries/sdk/Peripheral/ch32v30x_usbotg_device.c:666
                                            USBOTG_FS->UEP1_TX_CTRL = ( USBOTG_FS->UEP1_TX_CTRL &= ~USBHD_UEP_T_RES_MASK ) | USBHD_UEP_T_RES_STALL;
    4884:	500007b7          	lui	a5,0x50000
    4888:	0367c783          	lbu	a5,54(a5) # 50000036 <_eusrstack+0x2fff0036>
    488c:	0ff7f793          	andi	a5,a5,255
    4890:	50000737          	lui	a4,0x50000
    4894:	9bf1                	andi	a5,a5,-4
    4896:	0ff7f793          	andi	a5,a5,255
    489a:	02f70b23          	sb	a5,54(a4) # 50000036 <_eusrstack+0x2fff0036>
    489e:	50000737          	lui	a4,0x50000
    48a2:	0037e793          	ori	a5,a5,3
    48a6:	0ff7f793          	andi	a5,a5,255
    48aa:	02f70b23          	sb	a5,54(a4) # 50000036 <_eusrstack+0x2fff0036>
E:/wch307/CHV307_Library-master/Example/libraries/sdk/Peripheral/ch32v30x_usbotg_device.c:668
                                            break;
    48ae:	a0a1                	j	48f6 <OTG_FS_IRQHandler+0x6e0>
E:/wch307/CHV307_Library-master/Example/libraries/sdk/Peripheral/ch32v30x_usbotg_device.c:672
                                            USBOTG_FS->UEP1_RX_CTRL = ( USBOTG_FS->UEP1_RX_CTRL &= ~USBHD_UEP_R_RES_MASK ) | USBHD_UEP_R_RES_STALL;
    48b0:	500007b7          	lui	a5,0x50000
    48b4:	0377c783          	lbu	a5,55(a5) # 50000037 <_eusrstack+0x2fff0037>
    48b8:	0ff7f793          	andi	a5,a5,255
    48bc:	50000737          	lui	a4,0x50000
    48c0:	9bf1                	andi	a5,a5,-4
    48c2:	0ff7f793          	andi	a5,a5,255
    48c6:	02f70ba3          	sb	a5,55(a4) # 50000037 <_eusrstack+0x2fff0037>
    48ca:	50000737          	lui	a4,0x50000
    48ce:	0037e793          	ori	a5,a5,3
    48d2:	0ff7f793          	andi	a5,a5,255
    48d6:	02f70ba3          	sb	a5,55(a4) # 50000037 <_eusrstack+0x2fff0037>
E:/wch307/CHV307_Library-master/Example/libraries/sdk/Peripheral/ch32v30x_usbotg_device.c:674
                                            break;
    48da:	a831                	j	48f6 <OTG_FS_IRQHandler+0x6e0>
E:/wch307/CHV307_Library-master/Example/libraries/sdk/Peripheral/ch32v30x_usbotg_device.c:677
                                            errflag = 0xFF;
    48dc:	57fd                	li	a5,-1
    48de:	f4f40f23          	sb	a5,-162(s0)
E:/wch307/CHV307_Library-master/Example/libraries/sdk/Peripheral/ch32v30x_usbotg_device.c:678
                                            break;
    48e2:	0001                	nop
    48e4:	a809                	j	48f6 <OTG_FS_IRQHandler+0x6e0>
E:/wch307/CHV307_Library-master/Example/libraries/sdk/Peripheral/ch32v30x_usbotg_device.c:683
                                    errflag = 0xFF;
    48e6:	57fd                	li	a5,-1
    48e8:	f4f40f23          	sb	a5,-162(s0)
E:/wch307/CHV307_Library-master/Example/libraries/sdk/Peripheral/ch32v30x_usbotg_device.c:690
                            break;
    48ec:	a2b5                	j	4a58 <OTG_FS_IRQHandler+0x842>
E:/wch307/CHV307_Library-master/Example/libraries/sdk/Peripheral/ch32v30x_usbotg_device.c:688
                                errflag = 0xFF;
    48ee:	57fd                	li	a5,-1
    48f0:	f4f40f23          	sb	a5,-162(s0)
E:/wch307/CHV307_Library-master/Example/libraries/sdk/Peripheral/ch32v30x_usbotg_device.c:690
                            break;
    48f4:	a295                	j	4a58 <OTG_FS_IRQHandler+0x842>
E:/wch307/CHV307_Library-master/Example/libraries/sdk/Peripheral/ch32v30x_usbotg_device.c:690 (discriminator 4)
    48f6:	a28d                	j	4a58 <OTG_FS_IRQHandler+0x842>
E:/wch307/CHV307_Library-master/Example/libraries/sdk/Peripheral/ch32v30x_usbotg_device.c:694
                            pEP0_DataBuf[0] = 0x00;
    48f8:	8501a783          	lw	a5,-1968(gp) # 20000288 <pEP0_RAM_Addr>
    48fc:	00078023          	sb	zero,0(a5)
E:/wch307/CHV307_Library-master/Example/libraries/sdk/Peripheral/ch32v30x_usbotg_device.c:695
                            if ( SetupReqLen > 1 ) SetupReqLen = 1;
    4900:	8661d783          	lhu	a5,-1946(gp) # 2000029e <SetupReqLen>
    4904:	01079713          	slli	a4,a5,0x10
    4908:	8341                	srli	a4,a4,0x10
    490a:	4785                	li	a5,1
    490c:	14e7f163          	bgeu	a5,a4,4a4e <OTG_FS_IRQHandler+0x838>
E:/wch307/CHV307_Library-master/Example/libraries/sdk/Peripheral/ch32v30x_usbotg_device.c:695 (discriminator 1)
    4910:	4705                	li	a4,1
    4912:	86e19323          	sh	a4,-1946(gp) # 2000029e <SetupReqLen>
E:/wch307/CHV307_Library-master/Example/libraries/sdk/Peripheral/ch32v30x_usbotg_device.c:696 (discriminator 1)
                            break;
    4916:	aa25                	j	4a4e <OTG_FS_IRQHandler+0x838>
E:/wch307/CHV307_Library-master/Example/libraries/sdk/Peripheral/ch32v30x_usbotg_device.c:700
                            EP0_DatabufHD[ 0 ] = 0x00;
    4918:	84018423          	sb	zero,-1976(gp) # 20000280 <EP0_DatabufHD>
E:/wch307/CHV307_Library-master/Example/libraries/sdk/Peripheral/ch32v30x_usbotg_device.c:701
                            if( USBHD_Dev_SetupReqLen > 1 )
    491c:	8601d783          	lhu	a5,-1952(gp) # 20000298 <USBHD_Dev_SetupReqLen>
    4920:	01079713          	slli	a4,a5,0x10
    4924:	8341                	srli	a4,a4,0x10
    4926:	4785                	li	a5,1
    4928:	12e7f563          	bgeu	a5,a4,4a52 <OTG_FS_IRQHandler+0x83c>
E:/wch307/CHV307_Library-master/Example/libraries/sdk/Peripheral/ch32v30x_usbotg_device.c:703
                                USBHD_Dev_SetupReqLen = 1;
    492c:	4705                	li	a4,1
    492e:	86e19023          	sh	a4,-1952(gp) # 20000298 <USBHD_Dev_SetupReqLen>
E:/wch307/CHV307_Library-master/Example/libraries/sdk/Peripheral/ch32v30x_usbotg_device.c:705
                            break;
    4932:	a205                	j	4a52 <OTG_FS_IRQHandler+0x83c>
E:/wch307/CHV307_Library-master/Example/libraries/sdk/Peripheral/ch32v30x_usbotg_device.c:709
                            EP0_DatabufHD[ 0 ] = 0x00;
    4934:	84018423          	sb	zero,-1976(gp) # 20000280 <EP0_DatabufHD>
E:/wch307/CHV307_Library-master/Example/libraries/sdk/Peripheral/ch32v30x_usbotg_device.c:710
                            EP0_DatabufHD[ 1 ] = 0x00;
    4938:	84818793          	addi	a5,gp,-1976 # 20000280 <EP0_DatabufHD>
    493c:	000780a3          	sb	zero,1(a5)
E:/wch307/CHV307_Library-master/Example/libraries/sdk/Peripheral/ch32v30x_usbotg_device.c:711
                            if( pMySetupReqPakHD->wIndex == 0x81 )
    4940:	84818793          	addi	a5,gp,-1976 # 20000280 <EP0_DatabufHD>
    4944:	0047c703          	lbu	a4,4(a5)
    4948:	0057c783          	lbu	a5,5(a5)
    494c:	07a2                	slli	a5,a5,0x8
    494e:	8fd9                	or	a5,a5,a4
    4950:	01079713          	slli	a4,a5,0x10
    4954:	8341                	srli	a4,a4,0x10
    4956:	08100793          	li	a5,129
    495a:	02f71163          	bne	a4,a5,497c <OTG_FS_IRQHandler+0x766>
E:/wch307/CHV307_Library-master/Example/libraries/sdk/Peripheral/ch32v30x_usbotg_device.c:713
                                if( ( USBOTG_FS->UEP1_TX_CTRL & USBHD_UEP_T_RES_MASK ) == USBHD_UEP_T_RES_STALL )
    495e:	500007b7          	lui	a5,0x50000
    4962:	0367c783          	lbu	a5,54(a5) # 50000036 <_eusrstack+0x2fff0036>
    4966:	0ff7f793          	andi	a5,a5,255
    496a:	0037f713          	andi	a4,a5,3
    496e:	478d                	li	a5,3
    4970:	0af71d63          	bne	a4,a5,4a2a <OTG_FS_IRQHandler+0x814>
E:/wch307/CHV307_Library-master/Example/libraries/sdk/Peripheral/ch32v30x_usbotg_device.c:715
                                    EP0_DatabufHD[ 0 ] = 0x01;
    4974:	4705                	li	a4,1
    4976:	84e18423          	sb	a4,-1976(gp) # 20000280 <EP0_DatabufHD>
    497a:	a845                	j	4a2a <OTG_FS_IRQHandler+0x814>
E:/wch307/CHV307_Library-master/Example/libraries/sdk/Peripheral/ch32v30x_usbotg_device.c:718
                            else if( pMySetupReqPakHD->wIndex == 0x01 )
    497c:	84818793          	addi	a5,gp,-1976 # 20000280 <EP0_DatabufHD>
    4980:	0047c703          	lbu	a4,4(a5)
    4984:	0057c783          	lbu	a5,5(a5)
    4988:	07a2                	slli	a5,a5,0x8
    498a:	8fd9                	or	a5,a5,a4
    498c:	01079713          	slli	a4,a5,0x10
    4990:	8341                	srli	a4,a4,0x10
    4992:	4785                	li	a5,1
    4994:	02f71163          	bne	a4,a5,49b6 <OTG_FS_IRQHandler+0x7a0>
E:/wch307/CHV307_Library-master/Example/libraries/sdk/Peripheral/ch32v30x_usbotg_device.c:720
                                if( ( USBOTG_FS->UEP1_RX_CTRL & USBHD_UEP_R_RES_MASK ) == USBHD_UEP_R_RES_STALL )
    4998:	500007b7          	lui	a5,0x50000
    499c:	0377c783          	lbu	a5,55(a5) # 50000037 <_eusrstack+0x2fff0037>
    49a0:	0ff7f793          	andi	a5,a5,255
    49a4:	0037f713          	andi	a4,a5,3
    49a8:	478d                	li	a5,3
    49aa:	08f71063          	bne	a4,a5,4a2a <OTG_FS_IRQHandler+0x814>
E:/wch307/CHV307_Library-master/Example/libraries/sdk/Peripheral/ch32v30x_usbotg_device.c:722
                                    EP0_DatabufHD[ 0 ] = 0x01;
    49ae:	4705                	li	a4,1
    49b0:	84e18423          	sb	a4,-1976(gp) # 20000280 <EP0_DatabufHD>
    49b4:	a89d                	j	4a2a <OTG_FS_IRQHandler+0x814>
E:/wch307/CHV307_Library-master/Example/libraries/sdk/Peripheral/ch32v30x_usbotg_device.c:725
                            else if( pMySetupReqPakHD->wIndex == 0x82 )
    49b6:	84818793          	addi	a5,gp,-1976 # 20000280 <EP0_DatabufHD>
    49ba:	0047c703          	lbu	a4,4(a5)
    49be:	0057c783          	lbu	a5,5(a5)
    49c2:	07a2                	slli	a5,a5,0x8
    49c4:	8fd9                	or	a5,a5,a4
    49c6:	01079713          	slli	a4,a5,0x10
    49ca:	8341                	srli	a4,a4,0x10
    49cc:	08200793          	li	a5,130
    49d0:	02f71163          	bne	a4,a5,49f2 <OTG_FS_IRQHandler+0x7dc>
E:/wch307/CHV307_Library-master/Example/libraries/sdk/Peripheral/ch32v30x_usbotg_device.c:727
                                if( ( USBOTG_FS->UEP2_TX_CTRL & USBHD_UEP_T_RES_MASK ) == USBHD_UEP_T_RES_STALL )
    49d4:	500007b7          	lui	a5,0x50000
    49d8:	03a7c783          	lbu	a5,58(a5) # 5000003a <_eusrstack+0x2fff003a>
    49dc:	0ff7f793          	andi	a5,a5,255
    49e0:	0037f713          	andi	a4,a5,3
    49e4:	478d                	li	a5,3
    49e6:	04f71263          	bne	a4,a5,4a2a <OTG_FS_IRQHandler+0x814>
E:/wch307/CHV307_Library-master/Example/libraries/sdk/Peripheral/ch32v30x_usbotg_device.c:729
                                    EP0_DatabufHD[ 0 ] = 0x01;
    49ea:	4705                	li	a4,1
    49ec:	84e18423          	sb	a4,-1976(gp) # 20000280 <EP0_DatabufHD>
    49f0:	a82d                	j	4a2a <OTG_FS_IRQHandler+0x814>
E:/wch307/CHV307_Library-master/Example/libraries/sdk/Peripheral/ch32v30x_usbotg_device.c:732
                            else if( pMySetupReqPakHD->wIndex == 0x02 )
    49f2:	84818793          	addi	a5,gp,-1976 # 20000280 <EP0_DatabufHD>
    49f6:	0047c703          	lbu	a4,4(a5)
    49fa:	0057c783          	lbu	a5,5(a5)
    49fe:	07a2                	slli	a5,a5,0x8
    4a00:	8fd9                	or	a5,a5,a4
    4a02:	01079713          	slli	a4,a5,0x10
    4a06:	8341                	srli	a4,a4,0x10
    4a08:	4789                	li	a5,2
    4a0a:	02f71063          	bne	a4,a5,4a2a <OTG_FS_IRQHandler+0x814>
E:/wch307/CHV307_Library-master/Example/libraries/sdk/Peripheral/ch32v30x_usbotg_device.c:734
                                if( ( USBOTG_FS->UEP2_RX_CTRL & USBHD_UEP_R_RES_MASK ) == USBHD_UEP_R_RES_STALL )
    4a0e:	500007b7          	lui	a5,0x50000
    4a12:	03b7c783          	lbu	a5,59(a5) # 5000003b <_eusrstack+0x2fff003b>
    4a16:	0ff7f793          	andi	a5,a5,255
    4a1a:	0037f713          	andi	a4,a5,3
    4a1e:	478d                	li	a5,3
    4a20:	00f71563          	bne	a4,a5,4a2a <OTG_FS_IRQHandler+0x814>
E:/wch307/CHV307_Library-master/Example/libraries/sdk/Peripheral/ch32v30x_usbotg_device.c:736
                                    EP0_DatabufHD[ 0 ] = 0x01;
    4a24:	4705                	li	a4,1
    4a26:	84e18423          	sb	a4,-1976(gp) # 20000280 <EP0_DatabufHD>
E:/wch307/CHV307_Library-master/Example/libraries/sdk/Peripheral/ch32v30x_usbotg_device.c:739
                            if( USBHD_Dev_SetupReqLen > 2 )
    4a2a:	8601d783          	lhu	a5,-1952(gp) # 20000298 <USBHD_Dev_SetupReqLen>
    4a2e:	01079713          	slli	a4,a5,0x10
    4a32:	8341                	srli	a4,a4,0x10
    4a34:	4789                	li	a5,2
    4a36:	02e7f063          	bgeu	a5,a4,4a56 <OTG_FS_IRQHandler+0x840>
E:/wch307/CHV307_Library-master/Example/libraries/sdk/Peripheral/ch32v30x_usbotg_device.c:741
                                USBHD_Dev_SetupReqLen = 2;
    4a3a:	4709                	li	a4,2
    4a3c:	86e19023          	sh	a4,-1952(gp) # 20000298 <USBHD_Dev_SetupReqLen>
E:/wch307/CHV307_Library-master/Example/libraries/sdk/Peripheral/ch32v30x_usbotg_device.c:743
                            break;
    4a40:	a819                	j	4a56 <OTG_FS_IRQHandler+0x840>
E:/wch307/CHV307_Library-master/Example/libraries/sdk/Peripheral/ch32v30x_usbotg_device.c:746
                            errflag = 0xFF;
    4a42:	57fd                	li	a5,-1
    4a44:	f4f40f23          	sb	a5,-162(s0)
E:/wch307/CHV307_Library-master/Example/libraries/sdk/Peripheral/ch32v30x_usbotg_device.c:747
                            break;
    4a48:	a801                	j	4a58 <OTG_FS_IRQHandler+0x842>
E:/wch307/CHV307_Library-master/Example/libraries/sdk/Peripheral/ch32v30x_usbotg_device.c:583
                            break;
    4a4a:	0001                	nop
    4a4c:	a031                	j	4a58 <OTG_FS_IRQHandler+0x842>
E:/wch307/CHV307_Library-master/Example/libraries/sdk/Peripheral/ch32v30x_usbotg_device.c:696
                            break;
    4a4e:	0001                	nop
    4a50:	a021                	j	4a58 <OTG_FS_IRQHandler+0x842>
E:/wch307/CHV307_Library-master/Example/libraries/sdk/Peripheral/ch32v30x_usbotg_device.c:705
                            break;
    4a52:	0001                	nop
    4a54:	a011                	j	4a58 <OTG_FS_IRQHandler+0x842>
E:/wch307/CHV307_Library-master/Example/libraries/sdk/Peripheral/ch32v30x_usbotg_device.c:743
                            break;
    4a56:	0001                	nop
E:/wch307/CHV307_Library-master/Example/libraries/sdk/Peripheral/ch32v30x_usbotg_device.c:750
                if( errflag == 0xff)
    4a58:	f5e44703          	lbu	a4,-162(s0)
    4a5c:	0ff00793          	li	a5,255
    4a60:	00f71d63          	bne	a4,a5,4a7a <OTG_FS_IRQHandler+0x864>
E:/wch307/CHV307_Library-master/Example/libraries/sdk/Peripheral/ch32v30x_usbotg_device.c:753
                    USBOTG_FS->UEP0_TX_CTRL = USBHD_UEP_T_TOG|USBHD_UEP_T_RES_STALL;
    4a64:	500007b7          	lui	a5,0x50000
    4a68:	471d                	li	a4,7
    4a6a:	02e78923          	sb	a4,50(a5) # 50000032 <_eusrstack+0x2fff0032>
E:/wch307/CHV307_Library-master/Example/libraries/sdk/Peripheral/ch32v30x_usbotg_device.c:754
                    USBOTG_FS->UEP0_RX_CTRL = USBHD_UEP_R_TOG|USBHD_UEP_R_RES_STALL;
    4a6e:	500007b7          	lui	a5,0x50000
    4a72:	471d                	li	a4,7
    4a74:	02e789a3          	sb	a4,51(a5) # 50000033 <_eusrstack+0x2fff0033>
E:/wch307/CHV307_Library-master/Example/libraries/sdk/Peripheral/ch32v30x_usbotg_device.c:769
                break;
    4a78:	a6e9                	j	4e42 <OTG_FS_IRQHandler+0xc2c>
E:/wch307/CHV307_Library-master/Example/libraries/sdk/Peripheral/ch32v30x_usbotg_device.c:758
                    if( chtype & 0x80 )
    4a7a:	f5c40783          	lb	a5,-164(s0)
    4a7e:	0407d563          	bgez	a5,4ac8 <OTG_FS_IRQHandler+0x8b2>
E:/wch307/CHV307_Library-master/Example/libraries/sdk/Peripheral/ch32v30x_usbotg_device.c:760
                        len = (SetupReqLen>DevEP0SIZE) ? DevEP0SIZE : SetupReqLen;
    4a82:	8661d783          	lhu	a5,-1946(gp) # 2000029e <SetupReqLen>
    4a86:	01079713          	slli	a4,a5,0x10
    4a8a:	8341                	srli	a4,a4,0x10
    4a8c:	47a1                	li	a5,8
    4a8e:	00e7e963          	bltu	a5,a4,4aa0 <OTG_FS_IRQHandler+0x88a>
E:/wch307/CHV307_Library-master/Example/libraries/sdk/Peripheral/ch32v30x_usbotg_device.c:760 (discriminator 1)
    4a92:	8661d783          	lhu	a5,-1946(gp) # 2000029e <SetupReqLen>
    4a96:	07c2                	slli	a5,a5,0x10
    4a98:	83c1                	srli	a5,a5,0x10
    4a9a:	0ff7f793          	andi	a5,a5,255
    4a9e:	a011                	j	4aa2 <OTG_FS_IRQHandler+0x88c>
E:/wch307/CHV307_Library-master/Example/libraries/sdk/Peripheral/ch32v30x_usbotg_device.c:760 (discriminator 2)
    4aa0:	47a1                	li	a5,8
E:/wch307/CHV307_Library-master/Example/libraries/sdk/Peripheral/ch32v30x_usbotg_device.c:760 (discriminator 4)
    4aa2:	f4f40fa3          	sb	a5,-161(s0)
E:/wch307/CHV307_Library-master/Example/libraries/sdk/Peripheral/ch32v30x_usbotg_device.c:761 (discriminator 4)
                        SetupReqLen -= len;
    4aa6:	8661d783          	lhu	a5,-1946(gp) # 2000029e <SetupReqLen>
    4aaa:	01079713          	slli	a4,a5,0x10
    4aae:	8341                	srli	a4,a4,0x10
    4ab0:	f5f44783          	lbu	a5,-161(s0)
    4ab4:	07c2                	slli	a5,a5,0x10
    4ab6:	83c1                	srli	a5,a5,0x10
    4ab8:	40f707b3          	sub	a5,a4,a5
    4abc:	01079713          	slli	a4,a5,0x10
    4ac0:	8341                	srli	a4,a4,0x10
    4ac2:	86e19323          	sh	a4,-1946(gp) # 2000029e <SetupReqLen>
    4ac6:	a019                	j	4acc <OTG_FS_IRQHandler+0x8b6>
E:/wch307/CHV307_Library-master/Example/libraries/sdk/Peripheral/ch32v30x_usbotg_device.c:763
                    else  len = 0;
    4ac8:	f4040fa3          	sb	zero,-161(s0)
E:/wch307/CHV307_Library-master/Example/libraries/sdk/Peripheral/ch32v30x_usbotg_device.c:765
                    USBOTG_FS->UEP0_TX_LEN  = len;
    4acc:	500007b7          	lui	a5,0x50000
    4ad0:	f5f44703          	lbu	a4,-161(s0)
    4ad4:	0742                	slli	a4,a4,0x10
    4ad6:	8341                	srli	a4,a4,0x10
    4ad8:	02e79823          	sh	a4,48(a5) # 50000030 <_eusrstack+0x2fff0030>
E:/wch307/CHV307_Library-master/Example/libraries/sdk/Peripheral/ch32v30x_usbotg_device.c:766
                    USBOTG_FS->UEP0_TX_CTRL = USBHD_UEP_T_TOG|USBHD_UEP_T_RES_ACK;
    4adc:	500007b7          	lui	a5,0x50000
    4ae0:	4711                	li	a4,4
    4ae2:	02e78923          	sb	a4,50(a5) # 50000032 <_eusrstack+0x2fff0032>
E:/wch307/CHV307_Library-master/Example/libraries/sdk/Peripheral/ch32v30x_usbotg_device.c:767
                    USBOTG_FS->UEP0_RX_CTRL = USBHD_UEP_R_TOG|USBHD_UEP_R_RES_ACK;
    4ae6:	500007b7          	lui	a5,0x50000
    4aea:	4711                	li	a4,4
    4aec:	02e789a3          	sb	a4,51(a5) # 50000033 <_eusrstack+0x2fff0033>
E:/wch307/CHV307_Library-master/Example/libraries/sdk/Peripheral/ch32v30x_usbotg_device.c:769
                break;
    4af0:	ae89                	j	4e42 <OTG_FS_IRQHandler+0xc2c>
E:/wch307/CHV307_Library-master/Example/libraries/sdk/Peripheral/ch32v30x_usbotg_device.c:772
                switch ( USBOTG_FS->INT_ST & ( USBHD_UIS_TOKEN_MASK | USBHD_UIS_ENDP_MASK ) )
    4af2:	500007b7          	lui	a5,0x50000
    4af6:	0077c783          	lbu	a5,7(a5) # 50000007 <_eusrstack+0x2fff0007>
    4afa:	0ff7f793          	andi	a5,a5,255
    4afe:	03f7f793          	andi	a5,a5,63
    4b02:	02100713          	li	a4,33
    4b06:	12e78563          	beq	a5,a4,4c30 <OTG_FS_IRQHandler+0xa1a>
    4b0a:	02200713          	li	a4,34
    4b0e:	14e78d63          	beq	a5,a4,4c68 <OTG_FS_IRQHandler+0xa52>
    4b12:	02000713          	li	a4,32
    4b16:	18e79e63          	bne	a5,a4,4cb2 <OTG_FS_IRQHandler+0xa9c>
E:/wch307/CHV307_Library-master/Example/libraries/sdk/Peripheral/ch32v30x_usbotg_device.c:775 (discriminator 6)
                        switch( SetupReqCode )
    4b1a:	8641c783          	lbu	a5,-1948(gp) # 2000029c <SetupReqCode>
    4b1e:	0ff7f793          	andi	a5,a5,255
    4b22:	4715                	li	a4,5
    4b24:	0ae78063          	beq	a5,a4,4bc4 <OTG_FS_IRQHandler+0x9ae>
    4b28:	4719                	li	a4,6
    4b2a:	0ee79463          	bne	a5,a4,4c12 <OTG_FS_IRQHandler+0x9fc>
E:/wch307/CHV307_Library-master/Example/libraries/sdk/Peripheral/ch32v30x_usbotg_device.c:778
                                    len = SetupReqLen >= DevEP0SIZE ? DevEP0SIZE : SetupReqLen;
    4b2e:	8661d783          	lhu	a5,-1946(gp) # 2000029e <SetupReqLen>
    4b32:	01079713          	slli	a4,a5,0x10
    4b36:	8341                	srli	a4,a4,0x10
    4b38:	479d                	li	a5,7
    4b3a:	00e7e963          	bltu	a5,a4,4b4c <OTG_FS_IRQHandler+0x936>
E:/wch307/CHV307_Library-master/Example/libraries/sdk/Peripheral/ch32v30x_usbotg_device.c:778 (discriminator 1)
    4b3e:	8661d783          	lhu	a5,-1946(gp) # 2000029e <SetupReqLen>
    4b42:	07c2                	slli	a5,a5,0x10
    4b44:	83c1                	srli	a5,a5,0x10
    4b46:	0ff7f793          	andi	a5,a5,255
    4b4a:	a011                	j	4b4e <OTG_FS_IRQHandler+0x938>
E:/wch307/CHV307_Library-master/Example/libraries/sdk/Peripheral/ch32v30x_usbotg_device.c:778 (discriminator 2)
    4b4c:	47a1                	li	a5,8
E:/wch307/CHV307_Library-master/Example/libraries/sdk/Peripheral/ch32v30x_usbotg_device.c:778 (discriminator 4)
    4b4e:	f4f40fa3          	sb	a5,-161(s0)
E:/wch307/CHV307_Library-master/Example/libraries/sdk/Peripheral/ch32v30x_usbotg_device.c:779 (discriminator 4)
                                    memcpy( pEP0_DataBuf, pDescr, len );
    4b52:	8501a703          	lw	a4,-1968(gp) # 20000288 <pEP0_RAM_Addr>
    4b56:	85c1a783          	lw	a5,-1956(gp) # 20000294 <pDescr>
    4b5a:	f5f44683          	lbu	a3,-161(s0)
    4b5e:	8636                	mv	a2,a3
    4b60:	85be                	mv	a1,a5
    4b62:	853a                	mv	a0,a4
    4b64:	347020ef          	jal	ra,76aa <memcpy>
E:/wch307/CHV307_Library-master/Example/libraries/sdk/Peripheral/ch32v30x_usbotg_device.c:780 (discriminator 4)
                                    SetupReqLen -= len;
    4b68:	8661d783          	lhu	a5,-1946(gp) # 2000029e <SetupReqLen>
    4b6c:	01079713          	slli	a4,a5,0x10
    4b70:	8341                	srli	a4,a4,0x10
    4b72:	f5f44783          	lbu	a5,-161(s0)
    4b76:	07c2                	slli	a5,a5,0x10
    4b78:	83c1                	srli	a5,a5,0x10
    4b7a:	40f707b3          	sub	a5,a4,a5
    4b7e:	01079713          	slli	a4,a5,0x10
    4b82:	8341                	srli	a4,a4,0x10
    4b84:	86e19323          	sh	a4,-1946(gp) # 2000029e <SetupReqLen>
E:/wch307/CHV307_Library-master/Example/libraries/sdk/Peripheral/ch32v30x_usbotg_device.c:781 (discriminator 4)
                                    pDescr += len;
    4b88:	85c1a703          	lw	a4,-1956(gp) # 20000294 <pDescr>
    4b8c:	f5f44783          	lbu	a5,-161(s0)
    4b90:	973e                	add	a4,a4,a5
    4b92:	84e1ae23          	sw	a4,-1956(gp) # 20000294 <pDescr>
E:/wch307/CHV307_Library-master/Example/libraries/sdk/Peripheral/ch32v30x_usbotg_device.c:782 (discriminator 4)
                                    USBOTG_FS->UEP0_TX_LEN   = len;
    4b96:	500007b7          	lui	a5,0x50000
    4b9a:	f5f44703          	lbu	a4,-161(s0)
    4b9e:	0742                	slli	a4,a4,0x10
    4ba0:	8341                	srli	a4,a4,0x10
    4ba2:	02e79823          	sh	a4,48(a5) # 50000030 <_eusrstack+0x2fff0030>
E:/wch307/CHV307_Library-master/Example/libraries/sdk/Peripheral/ch32v30x_usbotg_device.c:783 (discriminator 4)
                                    USBOTG_FS->UEP0_TX_CTRL ^= USBHD_UEP_T_TOG;
    4ba6:	500007b7          	lui	a5,0x50000
    4baa:	0327c783          	lbu	a5,50(a5) # 50000032 <_eusrstack+0x2fff0032>
    4bae:	0ff7f713          	andi	a4,a5,255
    4bb2:	500007b7          	lui	a5,0x50000
    4bb6:	00474713          	xori	a4,a4,4
    4bba:	0ff77713          	andi	a4,a4,255
    4bbe:	02e78923          	sb	a4,50(a5) # 50000032 <_eusrstack+0x2fff0032>
E:/wch307/CHV307_Library-master/Example/libraries/sdk/Peripheral/ch32v30x_usbotg_device.c:784 (discriminator 4)
                                    break;
    4bc2:	a0b5                	j	4c2e <OTG_FS_IRQHandler+0xa18>
E:/wch307/CHV307_Library-master/Example/libraries/sdk/Peripheral/ch32v30x_usbotg_device.c:787
                                    USBOTG_FS->DEV_ADDR = (USBOTG_FS->DEV_ADDR&USBHD_UDA_GP_BIT) | SetupReqLen;
    4bc4:	500007b7          	lui	a5,0x50000
    4bc8:	0037c783          	lbu	a5,3(a5) # 50000003 <_eusrstack+0x2fff0003>
    4bcc:	0ff7f793          	andi	a5,a5,255
    4bd0:	07e2                	slli	a5,a5,0x18
    4bd2:	87e1                	srai	a5,a5,0x18
    4bd4:	f807f793          	andi	a5,a5,-128
    4bd8:	01879713          	slli	a4,a5,0x18
    4bdc:	8761                	srai	a4,a4,0x18
    4bde:	8661d783          	lhu	a5,-1946(gp) # 2000029e <SetupReqLen>
    4be2:	07c2                	slli	a5,a5,0x10
    4be4:	83c1                	srli	a5,a5,0x10
    4be6:	07e2                	slli	a5,a5,0x18
    4be8:	87e1                	srai	a5,a5,0x18
    4bea:	8fd9                	or	a5,a5,a4
    4bec:	01879713          	slli	a4,a5,0x18
    4bf0:	8761                	srai	a4,a4,0x18
    4bf2:	500007b7          	lui	a5,0x50000
    4bf6:	0ff77713          	andi	a4,a4,255
    4bfa:	00e781a3          	sb	a4,3(a5) # 50000003 <_eusrstack+0x2fff0003>
E:/wch307/CHV307_Library-master/Example/libraries/sdk/Peripheral/ch32v30x_usbotg_device.c:788
                                    USBOTG_FS->UEP0_TX_CTRL = USBHD_UEP_T_RES_NAK;
    4bfe:	500007b7          	lui	a5,0x50000
    4c02:	4709                	li	a4,2
    4c04:	02e78923          	sb	a4,50(a5) # 50000032 <_eusrstack+0x2fff0032>
E:/wch307/CHV307_Library-master/Example/libraries/sdk/Peripheral/ch32v30x_usbotg_device.c:789
                                    USBOTG_FS->UEP0_RX_CTRL = USBHD_UEP_R_RES_ACK;
    4c08:	500007b7          	lui	a5,0x50000
    4c0c:	020789a3          	sb	zero,51(a5) # 50000033 <_eusrstack+0x2fff0033>
E:/wch307/CHV307_Library-master/Example/libraries/sdk/Peripheral/ch32v30x_usbotg_device.c:790
                                    break;
    4c10:	a839                	j	4c2e <OTG_FS_IRQHandler+0xa18>
E:/wch307/CHV307_Library-master/Example/libraries/sdk/Peripheral/ch32v30x_usbotg_device.c:793
                                    USBOTG_FS->UEP0_TX_LEN = 0;
    4c12:	500007b7          	lui	a5,0x50000
    4c16:	02079823          	sh	zero,48(a5) # 50000030 <_eusrstack+0x2fff0030>
E:/wch307/CHV307_Library-master/Example/libraries/sdk/Peripheral/ch32v30x_usbotg_device.c:794
                                    USBOTG_FS->UEP0_TX_CTRL = USBHD_UEP_T_RES_NAK;
    4c1a:	500007b7          	lui	a5,0x50000
    4c1e:	4709                	li	a4,2
    4c20:	02e78923          	sb	a4,50(a5) # 50000032 <_eusrstack+0x2fff0032>
E:/wch307/CHV307_Library-master/Example/libraries/sdk/Peripheral/ch32v30x_usbotg_device.c:795
                                    USBOTG_FS->UEP0_RX_CTRL = USBHD_UEP_R_RES_ACK;
    4c24:	500007b7          	lui	a5,0x50000
    4c28:	020789a3          	sb	zero,51(a5) # 50000033 <_eusrstack+0x2fff0033>
E:/wch307/CHV307_Library-master/Example/libraries/sdk/Peripheral/ch32v30x_usbotg_device.c:796
                                    break;
    4c2c:	0001                	nop
E:/wch307/CHV307_Library-master/Example/libraries/sdk/Peripheral/ch32v30x_usbotg_device.c:799
                        break;
    4c2e:	a059                	j	4cb4 <OTG_FS_IRQHandler+0xa9e>
E:/wch307/CHV307_Library-master/Example/libraries/sdk/Peripheral/ch32v30x_usbotg_device.c:802
                    USBOTG_FS->UEP1_TX_CTRL  = (USBHD_UEP1_TX_CTRL & ~USBHD_UEP_T_RES_MASK) | USBHD_UEP_T_RES_ACK;
    4c30:	500007b7          	lui	a5,0x50000
    4c34:	0367c783          	lbu	a5,54(a5) # 50000036 <_eusrstack+0x2fff0036>
    4c38:	0ff7f713          	andi	a4,a5,255
    4c3c:	500007b7          	lui	a5,0x50000
    4c40:	9b71                	andi	a4,a4,-4
    4c42:	0ff77713          	andi	a4,a4,255
    4c46:	02e78b23          	sb	a4,54(a5) # 50000036 <_eusrstack+0x2fff0036>
E:/wch307/CHV307_Library-master/Example/libraries/sdk/Peripheral/ch32v30x_usbotg_device.c:803
                    USBOTG_FS->UEP1_TX_CTRL ^= USBHD_UEP_T_TOG;
    4c4a:	500007b7          	lui	a5,0x50000
    4c4e:	0367c783          	lbu	a5,54(a5) # 50000036 <_eusrstack+0x2fff0036>
    4c52:	0ff7f713          	andi	a4,a5,255
    4c56:	500007b7          	lui	a5,0x50000
    4c5a:	00474713          	xori	a4,a4,4
    4c5e:	0ff77713          	andi	a4,a4,255
    4c62:	02e78b23          	sb	a4,54(a5) # 50000036 <_eusrstack+0x2fff0036>
E:/wch307/CHV307_Library-master/Example/libraries/sdk/Peripheral/ch32v30x_usbotg_device.c:804
                    break;
    4c66:	a0b9                	j	4cb4 <OTG_FS_IRQHandler+0xa9e>
E:/wch307/CHV307_Library-master/Example/libraries/sdk/Peripheral/ch32v30x_usbotg_device.c:807
                    USBOTG_FS->UEP2_TX_CTRL ^= USBHD_UEP_T_TOG;
    4c68:	500007b7          	lui	a5,0x50000
    4c6c:	03a7c783          	lbu	a5,58(a5) # 5000003a <_eusrstack+0x2fff003a>
    4c70:	0ff7f713          	andi	a4,a5,255
    4c74:	500007b7          	lui	a5,0x50000
    4c78:	00474713          	xori	a4,a4,4
    4c7c:	0ff77713          	andi	a4,a4,255
    4c80:	02e78d23          	sb	a4,58(a5) # 5000003a <_eusrstack+0x2fff003a>
E:/wch307/CHV307_Library-master/Example/libraries/sdk/Peripheral/ch32v30x_usbotg_device.c:808
                    USBOTG_FS->UEP2_TX_CTRL = (USBOTG_FS->UEP2_TX_CTRL & ~USBHD_UEP_T_RES_MASK) | USBHD_UEP_T_RES_NAK;
    4c84:	500007b7          	lui	a5,0x50000
    4c88:	03a7c783          	lbu	a5,58(a5) # 5000003a <_eusrstack+0x2fff003a>
    4c8c:	0ff7f793          	andi	a5,a5,255
    4c90:	07e2                	slli	a5,a5,0x18
    4c92:	87e1                	srai	a5,a5,0x18
    4c94:	9bf1                	andi	a5,a5,-4
    4c96:	07e2                	slli	a5,a5,0x18
    4c98:	87e1                	srai	a5,a5,0x18
    4c9a:	0027e793          	ori	a5,a5,2
    4c9e:	01879713          	slli	a4,a5,0x18
    4ca2:	8761                	srai	a4,a4,0x18
    4ca4:	500007b7          	lui	a5,0x50000
    4ca8:	0ff77713          	andi	a4,a4,255
    4cac:	02e78d23          	sb	a4,58(a5) # 5000003a <_eusrstack+0x2fff003a>
E:/wch307/CHV307_Library-master/Example/libraries/sdk/Peripheral/ch32v30x_usbotg_device.c:809
                    break;
    4cb0:	a011                	j	4cb4 <OTG_FS_IRQHandler+0xa9e>
E:/wch307/CHV307_Library-master/Example/libraries/sdk/Peripheral/ch32v30x_usbotg_device.c:813
                    break;
    4cb2:	0001                	nop
E:/wch307/CHV307_Library-master/Example/libraries/sdk/Peripheral/ch32v30x_usbotg_device.c:816
                break;
    4cb4:	a279                	j	4e42 <OTG_FS_IRQHandler+0xc2c>
E:/wch307/CHV307_Library-master/Example/libraries/sdk/Peripheral/ch32v30x_usbotg_device.c:820
                switch ( USBOTG_FS->INT_ST & ( USBHD_UIS_TOKEN_MASK | USBHD_UIS_ENDP_MASK ) )
    4cb6:	500007b7          	lui	a5,0x50000
    4cba:	0077c783          	lbu	a5,7(a5) # 50000007 <_eusrstack+0x2fff0007>
    4cbe:	0ff7f793          	andi	a5,a5,255
    4cc2:	03f7f793          	andi	a5,a5,63
    4cc6:	4705                	li	a4,1
    4cc8:	0ce78a63          	beq	a5,a4,4d9c <OTG_FS_IRQHandler+0xb86>
    4ccc:	4709                	li	a4,2
    4cce:	10e78c63          	beq	a5,a4,4de6 <OTG_FS_IRQHandler+0xbd0>
    4cd2:	16079763          	bnez	a5,4e40 <OTG_FS_IRQHandler+0xc2a>
E:/wch307/CHV307_Library-master/Example/libraries/sdk/Peripheral/ch32v30x_usbotg_device.c:823 (discriminator 7)
                        switch( SetupReqCode )
    4cd6:	8641c783          	lbu	a5,-1948(gp) # 2000029c <SetupReqCode>
    4cda:	0ff7f793          	andi	a5,a5,255
    4cde:	873e                	mv	a4,a5
    4ce0:	02000793          	li	a5,32
    4ce4:	0af71363          	bne	a4,a5,4d8a <OTG_FS_IRQHandler+0xb74>
E:/wch307/CHV307_Library-master/Example/libraries/sdk/Peripheral/ch32v30x_usbotg_device.c:826
                                if((((LINECODINGST *)pEP0_DataBuf)->dataRat[0] || ((LINECODINGST *)pEP0_DataBuf)->dataRat[1] ||
    4ce8:	8501a783          	lw	a5,-1968(gp) # 20000288 <pEP0_RAM_Addr>
    4cec:	0007c783          	lbu	a5,0(a5)
    4cf0:	e385                	bnez	a5,4d10 <OTG_FS_IRQHandler+0xafa>
E:/wch307/CHV307_Library-master/Example/libraries/sdk/Peripheral/ch32v30x_usbotg_device.c:826 (discriminator 1)
    4cf2:	8501a783          	lw	a5,-1968(gp) # 20000288 <pEP0_RAM_Addr>
    4cf6:	0017c783          	lbu	a5,1(a5)
    4cfa:	eb99                	bnez	a5,4d10 <OTG_FS_IRQHandler+0xafa>
E:/wch307/CHV307_Library-master/Example/libraries/sdk/Peripheral/ch32v30x_usbotg_device.c:827 (discriminator 2)
                                  ((LINECODINGST *)pEP0_DataBuf)->dataRat[2] || ((LINECODINGST *)pEP0_DataBuf)->dataRat[3]))
    4cfc:	8501a783          	lw	a5,-1968(gp) # 20000288 <pEP0_RAM_Addr>
    4d00:	0027c783          	lbu	a5,2(a5)
E:/wch307/CHV307_Library-master/Example/libraries/sdk/Peripheral/ch32v30x_usbotg_device.c:826 (discriminator 2)
                                if((((LINECODINGST *)pEP0_DataBuf)->dataRat[0] || ((LINECODINGST *)pEP0_DataBuf)->dataRat[1] ||
    4d04:	e791                	bnez	a5,4d10 <OTG_FS_IRQHandler+0xafa>
E:/wch307/CHV307_Library-master/Example/libraries/sdk/Peripheral/ch32v30x_usbotg_device.c:827
                                  ((LINECODINGST *)pEP0_DataBuf)->dataRat[2] || ((LINECODINGST *)pEP0_DataBuf)->dataRat[3]))
    4d06:	8501a783          	lw	a5,-1968(gp) # 20000288 <pEP0_RAM_Addr>
    4d0a:	0037c783          	lbu	a5,3(a5)
    4d0e:	cf9d                	beqz	a5,4d4c <OTG_FS_IRQHandler+0xb36>
E:/wch307/CHV307_Library-master/Example/libraries/sdk/Peripheral/ch32v30x_usbotg_device.c:831
                                            (((LINECODINGST *)pEP0_DataBuf)->dataRat[3] <<24) |
    4d10:	8501a783          	lw	a5,-1968(gp) # 20000288 <pEP0_RAM_Addr>
    4d14:	0037c783          	lbu	a5,3(a5)
    4d18:	01879713          	slli	a4,a5,0x18
E:/wch307/CHV307_Library-master/Example/libraries/sdk/Peripheral/ch32v30x_usbotg_device.c:832
                                            (((LINECODINGST *)pEP0_DataBuf)->dataRat[2] <<16) |
    4d1c:	8501a783          	lw	a5,-1968(gp) # 20000288 <pEP0_RAM_Addr>
    4d20:	0027c783          	lbu	a5,2(a5)
    4d24:	07c2                	slli	a5,a5,0x10
E:/wch307/CHV307_Library-master/Example/libraries/sdk/Peripheral/ch32v30x_usbotg_device.c:831
                                            (((LINECODINGST *)pEP0_DataBuf)->dataRat[3] <<24) |
    4d26:	8f5d                	or	a4,a4,a5
E:/wch307/CHV307_Library-master/Example/libraries/sdk/Peripheral/ch32v30x_usbotg_device.c:833
                                            (((LINECODINGST *)pEP0_DataBuf)->dataRat[1] <<8) |
    4d28:	8501a783          	lw	a5,-1968(gp) # 20000288 <pEP0_RAM_Addr>
    4d2c:	0017c783          	lbu	a5,1(a5)
    4d30:	07a2                	slli	a5,a5,0x8
E:/wch307/CHV307_Library-master/Example/libraries/sdk/Peripheral/ch32v30x_usbotg_device.c:832
                                            (((LINECODINGST *)pEP0_DataBuf)->dataRat[2] <<16) |
    4d32:	8fd9                	or	a5,a5,a4
E:/wch307/CHV307_Library-master/Example/libraries/sdk/Peripheral/ch32v30x_usbotg_device.c:834
                                            (((LINECODINGST *)pEP0_DataBuf)->dataRat[0]));
    4d34:	8501a703          	lw	a4,-1968(gp) # 20000288 <pEP0_RAM_Addr>
    4d38:	00074703          	lbu	a4,0(a4)
E:/wch307/CHV307_Library-master/Example/libraries/sdk/Peripheral/ch32v30x_usbotg_device.c:830
                                    printf( "\nBaud Rate = %d",
    4d3c:	8fd9                	or	a5,a5,a4
    4d3e:	85be                	mv	a1,a5
    4d40:	67ad                	lui	a5,0xb
    4d42:	d6478513          	addi	a0,a5,-668 # ad64 <_sbrk+0x158>
    4d46:	410030ef          	jal	ra,8156 <iprintf>
E:/wch307/CHV307_Library-master/Example/libraries/sdk/Peripheral/ch32v30x_usbotg_device.c:843
                               break;
    4d4a:	a83d                	j	4d88 <OTG_FS_IRQHandler+0xb72>
E:/wch307/CHV307_Library-master/Example/libraries/sdk/Peripheral/ch32v30x_usbotg_device.c:838
                                    printf( "\ndataBit = %d",  ((LINECODINGST *)pEP0_DataBuf)->dataBit);
    4d4c:	8501a783          	lw	a5,-1968(gp) # 20000288 <pEP0_RAM_Addr>
    4d50:	0067c783          	lbu	a5,6(a5)
    4d54:	85be                	mv	a1,a5
    4d56:	67ad                	lui	a5,0xb
    4d58:	d7478513          	addi	a0,a5,-652 # ad74 <_sbrk+0x168>
    4d5c:	3fa030ef          	jal	ra,8156 <iprintf>
E:/wch307/CHV307_Library-master/Example/libraries/sdk/Peripheral/ch32v30x_usbotg_device.c:839
                                    printf( "\nstopBit = %d",  ((LINECODINGST *)pEP0_DataBuf)->stopBit);
    4d60:	8501a783          	lw	a5,-1968(gp) # 20000288 <pEP0_RAM_Addr>
    4d64:	0047c783          	lbu	a5,4(a5)
    4d68:	85be                	mv	a1,a5
    4d6a:	67ad                	lui	a5,0xb
    4d6c:	d8478513          	addi	a0,a5,-636 # ad84 <_sbrk+0x178>
    4d70:	3e6030ef          	jal	ra,8156 <iprintf>
E:/wch307/CHV307_Library-master/Example/libraries/sdk/Peripheral/ch32v30x_usbotg_device.c:840
                                    printf( "\nparityType = %d",  ((LINECODINGST *)pEP0_DataBuf)->parityType);
    4d74:	8501a783          	lw	a5,-1968(gp) # 20000288 <pEP0_RAM_Addr>
    4d78:	0057c783          	lbu	a5,5(a5)
    4d7c:	85be                	mv	a1,a5
    4d7e:	67ad                	lui	a5,0xb
    4d80:	d9478513          	addi	a0,a5,-620 # ad94 <_sbrk+0x188>
    4d84:	3d2030ef          	jal	ra,8156 <iprintf>
E:/wch307/CHV307_Library-master/Example/libraries/sdk/Peripheral/ch32v30x_usbotg_device.c:843
                               break;
    4d88:	0001                	nop
E:/wch307/CHV307_Library-master/Example/libraries/sdk/Peripheral/ch32v30x_usbotg_device.c:847
                    len = USBOTG_FS->RX_LEN;
    4d8a:	500007b7          	lui	a5,0x50000
    4d8e:	0087d783          	lhu	a5,8(a5) # 50000008 <_eusrstack+0x2fff0008>
    4d92:	07c2                	slli	a5,a5,0x10
    4d94:	83c1                	srli	a5,a5,0x10
    4d96:	f4f40fa3          	sb	a5,-161(s0)
E:/wch307/CHV307_Library-master/Example/libraries/sdk/Peripheral/ch32v30x_usbotg_device.c:848
                    break;
    4d9a:	a871                	j	4e36 <OTG_FS_IRQHandler+0xc20>
E:/wch307/CHV307_Library-master/Example/libraries/sdk/Peripheral/ch32v30x_usbotg_device.c:851
                        if ( USBOTG_FS->INT_ST & USBHD_UIS_TOG_OK )
    4d9c:	500007b7          	lui	a5,0x50000
    4da0:	0077c783          	lbu	a5,7(a5) # 50000007 <_eusrstack+0x2fff0007>
    4da4:	0ff7f793          	andi	a5,a5,255
    4da8:	0407f793          	andi	a5,a5,64
    4dac:	c3d1                	beqz	a5,4e30 <OTG_FS_IRQHandler+0xc1a>
E:/wch307/CHV307_Library-master/Example/libraries/sdk/Peripheral/ch32v30x_usbotg_device.c:853
                            USBOTG_FS->UEP1_RX_CTRL ^= USBHD_UEP_R_TOG;
    4dae:	500007b7          	lui	a5,0x50000
    4db2:	0377c783          	lbu	a5,55(a5) # 50000037 <_eusrstack+0x2fff0037>
    4db6:	0ff7f713          	andi	a4,a5,255
    4dba:	500007b7          	lui	a5,0x50000
    4dbe:	00474713          	xori	a4,a4,4
    4dc2:	0ff77713          	andi	a4,a4,255
    4dc6:	02e78ba3          	sb	a4,55(a5) # 50000037 <_eusrstack+0x2fff0037>
E:/wch307/CHV307_Library-master/Example/libraries/sdk/Peripheral/ch32v30x_usbotg_device.c:854
                            len = USBOTG_FS->RX_LEN;
    4dca:	500007b7          	lui	a5,0x50000
    4dce:	0087d783          	lhu	a5,8(a5) # 50000008 <_eusrstack+0x2fff0008>
    4dd2:	07c2                	slli	a5,a5,0x10
    4dd4:	83c1                	srli	a5,a5,0x10
    4dd6:	f4f40fa3          	sb	a5,-161(s0)
E:/wch307/CHV307_Library-master/Example/libraries/sdk/Peripheral/ch32v30x_usbotg_device.c:856
                            DevEP1_OUT_Deal( len );
    4dda:	f5f44783          	lbu	a5,-161(s0)
    4dde:	853e                	mv	a0,a5
    4de0:	b6eff0ef          	jal	ra,414e <DevEP1_OUT_Deal>
E:/wch307/CHV307_Library-master/Example/libraries/sdk/Peripheral/ch32v30x_usbotg_device.c:858
                        break;
    4de4:	a0b1                	j	4e30 <OTG_FS_IRQHandler+0xc1a>
E:/wch307/CHV307_Library-master/Example/libraries/sdk/Peripheral/ch32v30x_usbotg_device.c:861
                        if ( USBOTG_FS->INT_ST & USBHD_UIS_TOG_OK )
    4de6:	500007b7          	lui	a5,0x50000
    4dea:	0077c783          	lbu	a5,7(a5) # 50000007 <_eusrstack+0x2fff0007>
    4dee:	0ff7f793          	andi	a5,a5,255
    4df2:	0407f793          	andi	a5,a5,64
    4df6:	cf9d                	beqz	a5,4e34 <OTG_FS_IRQHandler+0xc1e>
E:/wch307/CHV307_Library-master/Example/libraries/sdk/Peripheral/ch32v30x_usbotg_device.c:863
                            USBOTG_FS->UEP2_RX_CTRL ^= USBHD_UEP_R_TOG;
    4df8:	500007b7          	lui	a5,0x50000
    4dfc:	03b7c783          	lbu	a5,59(a5) # 5000003b <_eusrstack+0x2fff003b>
    4e00:	0ff7f713          	andi	a4,a5,255
    4e04:	500007b7          	lui	a5,0x50000
    4e08:	00474713          	xori	a4,a4,4
    4e0c:	0ff77713          	andi	a4,a4,255
    4e10:	02e78da3          	sb	a4,59(a5) # 5000003b <_eusrstack+0x2fff003b>
E:/wch307/CHV307_Library-master/Example/libraries/sdk/Peripheral/ch32v30x_usbotg_device.c:864
                            len = USBOTG_FS->RX_LEN;
    4e14:	500007b7          	lui	a5,0x50000
    4e18:	0087d783          	lhu	a5,8(a5) # 50000008 <_eusrstack+0x2fff0008>
    4e1c:	07c2                	slli	a5,a5,0x10
    4e1e:	83c1                	srli	a5,a5,0x10
    4e20:	f4f40fa3          	sb	a5,-161(s0)
E:/wch307/CHV307_Library-master/Example/libraries/sdk/Peripheral/ch32v30x_usbotg_device.c:866
                            DevEP2_OUT_Deal( len );
    4e24:	f5f44783          	lbu	a5,-161(s0)
    4e28:	853e                	mv	a0,a5
    4e2a:	b88ff0ef          	jal	ra,41b2 <DevEP2_OUT_Deal>
E:/wch307/CHV307_Library-master/Example/libraries/sdk/Peripheral/ch32v30x_usbotg_device.c:868
                        break;
    4e2e:	a019                	j	4e34 <OTG_FS_IRQHandler+0xc1e>
E:/wch307/CHV307_Library-master/Example/libraries/sdk/Peripheral/ch32v30x_usbotg_device.c:858
                        break;
    4e30:	0001                	nop
    4e32:	a039                	j	4e40 <OTG_FS_IRQHandler+0xc2a>
E:/wch307/CHV307_Library-master/Example/libraries/sdk/Peripheral/ch32v30x_usbotg_device.c:868
                        break;
    4e34:	0001                	nop
E:/wch307/CHV307_Library-master/Example/libraries/sdk/Peripheral/ch32v30x_usbotg_device.c:871
                break;
    4e36:	a029                	j	4e40 <OTG_FS_IRQHandler+0xc2a>
E:/wch307/CHV307_Library-master/Example/libraries/sdk/Peripheral/ch32v30x_usbotg_device.c:875
                break;
    4e38:	0001                	nop
    4e3a:	a021                	j	4e42 <OTG_FS_IRQHandler+0xc2c>
E:/wch307/CHV307_Library-master/Example/libraries/sdk/Peripheral/ch32v30x_usbotg_device.c:878
                break;
    4e3c:	0001                	nop
    4e3e:	a011                	j	4e42 <OTG_FS_IRQHandler+0xc2c>
E:/wch307/CHV307_Library-master/Example/libraries/sdk/Peripheral/ch32v30x_usbotg_device.c:871
                break;
    4e40:	0001                	nop
E:/wch307/CHV307_Library-master/Example/libraries/sdk/Peripheral/ch32v30x_usbotg_device.c:882

        }

        USBOTG_FS->INT_FG = USBHD_UIF_TRANSFER;
    4e42:	500007b7          	lui	a5,0x50000
    4e46:	4709                	li	a4,2
    4e48:	00e78323          	sb	a4,6(a5) # 50000006 <_eusrstack+0x2fff0006>
E:/wch307/CHV307_Library-master/Example/libraries/sdk/Peripheral/ch32v30x_usbotg_device.c:908
    }
    else
    {
        USBOTG_FS->INT_FG = intflag;
    }
}
    4e4c:	a079                	j	4eda <OTG_FS_IRQHandler+0xcc4>
E:/wch307/CHV307_Library-master/Example/libraries/sdk/Peripheral/ch32v30x_usbotg_device.c:884
    else if( intflag & USBHD_UIF_BUS_RST )
    4e4e:	f5d44783          	lbu	a5,-163(s0)
    4e52:	8b85                	andi	a5,a5,1
    4e54:	cfb9                	beqz	a5,4eb2 <OTG_FS_IRQHandler+0xc9c>
E:/wch307/CHV307_Library-master/Example/libraries/sdk/Peripheral/ch32v30x_usbotg_device.c:886
        USBOTG_FS->DEV_ADDR = 0;
    4e56:	500007b7          	lui	a5,0x50000
    4e5a:	000781a3          	sb	zero,3(a5) # 50000003 <_eusrstack+0x2fff0003>
E:/wch307/CHV307_Library-master/Example/libraries/sdk/Peripheral/ch32v30x_usbotg_device.c:888
        USBOTG_FS->UEP0_RX_CTRL = USBHD_UEP_R_RES_ACK;
    4e5e:	500007b7          	lui	a5,0x50000
    4e62:	020789a3          	sb	zero,51(a5) # 50000033 <_eusrstack+0x2fff0033>
E:/wch307/CHV307_Library-master/Example/libraries/sdk/Peripheral/ch32v30x_usbotg_device.c:889
        USBOTG_FS->UEP1_RX_CTRL = USBHD_UEP_R_RES_ACK;
    4e66:	500007b7          	lui	a5,0x50000
    4e6a:	02078ba3          	sb	zero,55(a5) # 50000037 <_eusrstack+0x2fff0037>
E:/wch307/CHV307_Library-master/Example/libraries/sdk/Peripheral/ch32v30x_usbotg_device.c:890
        USBOTG_FS->UEP2_RX_CTRL = USBHD_UEP_R_RES_ACK;
    4e6e:	500007b7          	lui	a5,0x50000
    4e72:	02078da3          	sb	zero,59(a5) # 5000003b <_eusrstack+0x2fff003b>
E:/wch307/CHV307_Library-master/Example/libraries/sdk/Peripheral/ch32v30x_usbotg_device.c:892
        USBOTG_FS->UEP0_TX_CTRL = USBHD_UEP_T_RES_NAK;
    4e76:	500007b7          	lui	a5,0x50000
    4e7a:	4709                	li	a4,2
    4e7c:	02e78923          	sb	a4,50(a5) # 50000032 <_eusrstack+0x2fff0032>
E:/wch307/CHV307_Library-master/Example/libraries/sdk/Peripheral/ch32v30x_usbotg_device.c:893
        USBOTG_FS->UEP1_TX_CTRL = USBHD_UEP_T_RES_NAK;
    4e80:	500007b7          	lui	a5,0x50000
    4e84:	4709                	li	a4,2
    4e86:	02e78b23          	sb	a4,54(a5) # 50000036 <_eusrstack+0x2fff0036>
E:/wch307/CHV307_Library-master/Example/libraries/sdk/Peripheral/ch32v30x_usbotg_device.c:894
        USBOTG_FS->UEP2_TX_CTRL = USBHD_UEP_T_RES_NAK;
    4e8a:	500007b7          	lui	a5,0x50000
    4e8e:	4709                	li	a4,2
    4e90:	02e78d23          	sb	a4,58(a5) # 5000003a <_eusrstack+0x2fff003a>
E:/wch307/CHV307_Library-master/Example/libraries/sdk/Peripheral/ch32v30x_usbotg_device.c:896
        USBOTG_FS->INT_FG |= USBHD_UIF_BUS_RST;
    4e94:	500007b7          	lui	a5,0x50000
    4e98:	0067c783          	lbu	a5,6(a5) # 50000006 <_eusrstack+0x2fff0006>
    4e9c:	0ff7f713          	andi	a4,a5,255
    4ea0:	500007b7          	lui	a5,0x50000
    4ea4:	00176713          	ori	a4,a4,1
    4ea8:	0ff77713          	andi	a4,a4,255
    4eac:	00e78323          	sb	a4,6(a5) # 50000006 <_eusrstack+0x2fff0006>
E:/wch307/CHV307_Library-master/Example/libraries/sdk/Peripheral/ch32v30x_usbotg_device.c:908
}
    4eb0:	a02d                	j	4eda <OTG_FS_IRQHandler+0xcc4>
E:/wch307/CHV307_Library-master/Example/libraries/sdk/Peripheral/ch32v30x_usbotg_device.c:898
    else if( intflag & USBHD_UIF_SUSPEND )
    4eb2:	f5d44783          	lbu	a5,-163(s0)
    4eb6:	8b91                	andi	a5,a5,4
    4eb8:	cb99                	beqz	a5,4ece <OTG_FS_IRQHandler+0xcb8>
E:/wch307/CHV307_Library-master/Example/libraries/sdk/Peripheral/ch32v30x_usbotg_device.c:900
        if ( USBOTG_FS->MIS_ST & USBHD_UMS_SUSPEND ) {;}
    4eba:	500007b7          	lui	a5,0x50000
    4ebe:	0057c783          	lbu	a5,5(a5) # 50000005 <_eusrstack+0x2fff0005>
E:/wch307/CHV307_Library-master/Example/libraries/sdk/Peripheral/ch32v30x_usbotg_device.c:902
        USBOTG_FS->INT_FG = USBHD_UIF_SUSPEND;
    4ec2:	500007b7          	lui	a5,0x50000
    4ec6:	4711                	li	a4,4
    4ec8:	00e78323          	sb	a4,6(a5) # 50000006 <_eusrstack+0x2fff0006>
E:/wch307/CHV307_Library-master/Example/libraries/sdk/Peripheral/ch32v30x_usbotg_device.c:908
}
    4ecc:	a039                	j	4eda <OTG_FS_IRQHandler+0xcc4>
E:/wch307/CHV307_Library-master/Example/libraries/sdk/Peripheral/ch32v30x_usbotg_device.c:906
        USBOTG_FS->INT_FG = intflag;
    4ece:	500007b7          	lui	a5,0x50000
    4ed2:	f5d44703          	lbu	a4,-163(s0)
    4ed6:	00e78323          	sb	a4,6(a5) # 50000006 <_eusrstack+0x2fff0006>
E:/wch307/CHV307_Library-master/Example/libraries/sdk/Peripheral/ch32v30x_usbotg_device.c:908
}
    4eda:	0001                	nop
    4edc:	50ba                	lw	ra,172(sp)
    4ede:	52aa                	lw	t0,168(sp)
    4ee0:	531a                	lw	t1,164(sp)
    4ee2:	538a                	lw	t2,160(sp)
    4ee4:	447a                	lw	s0,156(sp)
    4ee6:	456a                	lw	a0,152(sp)
    4ee8:	45da                	lw	a1,148(sp)
    4eea:	464a                	lw	a2,144(sp)
    4eec:	46ba                	lw	a3,140(sp)
    4eee:	472a                	lw	a4,136(sp)
    4ef0:	479a                	lw	a5,132(sp)
    4ef2:	480a                	lw	a6,128(sp)
    4ef4:	58f6                	lw	a7,124(sp)
    4ef6:	5e66                	lw	t3,120(sp)
    4ef8:	5ed6                	lw	t4,116(sp)
    4efa:	5f46                	lw	t5,112(sp)
    4efc:	5fb6                	lw	t6,108(sp)
    4efe:	6076                	flw	ft0,92(sp)
    4f00:	60e6                	flw	ft1,88(sp)
    4f02:	6156                	flw	ft2,84(sp)
    4f04:	61c6                	flw	ft3,80(sp)
    4f06:	6236                	flw	ft4,76(sp)
    4f08:	62a6                	flw	ft5,72(sp)
    4f0a:	6316                	flw	ft6,68(sp)
    4f0c:	6386                	flw	ft7,64(sp)
    4f0e:	7572                	flw	fa0,60(sp)
    4f10:	75e2                	flw	fa1,56(sp)
    4f12:	7652                	flw	fa2,52(sp)
    4f14:	76c2                	flw	fa3,48(sp)
    4f16:	7732                	flw	fa4,44(sp)
    4f18:	77a2                	flw	fa5,40(sp)
    4f1a:	7812                	flw	fa6,36(sp)
    4f1c:	7882                	flw	fa7,32(sp)
    4f1e:	6e72                	flw	ft8,28(sp)
    4f20:	6ee2                	flw	ft9,24(sp)
    4f22:	6f52                	flw	ft10,20(sp)
    4f24:	6fc2                	flw	ft11,16(sp)
    4f26:	614d                	addi	sp,sp,176
    4f28:	30200073          	mret

00004f2c <__adddf3>:
__adddf3():
    4f2c:	1101                	addi	sp,sp,-32
    4f2e:	ce06                	sw	ra,28(sp)
    4f30:	cc22                	sw	s0,24(sp)
    4f32:	ca26                	sw	s1,20(sp)
    4f34:	c84a                	sw	s2,16(sp)
    4f36:	c64e                	sw	s3,12(sp)
    4f38:	c452                	sw	s4,8(sp)
    4f3a:	002029f3          	frrm	s3
    4f3e:	001008b7          	lui	a7,0x100
    4f42:	18fd                	addi	a7,a7,-1
    4f44:	00b8f7b3          	and	a5,a7,a1
    4f48:	0146de13          	srli	t3,a3,0x14
    4f4c:	00d8f8b3          	and	a7,a7,a3
    4f50:	0145d413          	srli	s0,a1,0x14
    4f54:	01d65313          	srli	t1,a2,0x1d
    4f58:	078e                	slli	a5,a5,0x3
    4f5a:	01d55713          	srli	a4,a0,0x1d
    4f5e:	088e                	slli	a7,a7,0x3
    4f60:	01f5d913          	srli	s2,a1,0x1f
    4f64:	7ff47413          	andi	s0,s0,2047
    4f68:	7ffe7593          	andi	a1,t3,2047
    4f6c:	82fd                	srli	a3,a3,0x1f
    4f6e:	011368b3          	or	a7,t1,a7
    4f72:	8f5d                	or	a4,a4,a5
    4f74:	00351813          	slli	a6,a0,0x3
    4f78:	00361e13          	slli	t3,a2,0x3
    4f7c:	40b40333          	sub	t1,s0,a1
    4f80:	1cd90563          	beq	s2,a3,514a <__adddf3+0x21e>
    4f84:	16605363          	blez	t1,50ea <__adddf3+0x1be>
    4f88:	20058763          	beqz	a1,5196 <__adddf3+0x26a>
    4f8c:	008006b7          	lui	a3,0x800
    4f90:	7ff00793          	li	a5,2047
    4f94:	00d8e8b3          	or	a7,a7,a3
    4f98:	3ef40063          	beq	s0,a5,5378 <__adddf3+0x44c>
    4f9c:	03800793          	li	a5,56
    4fa0:	3867c863          	blt	a5,t1,5330 <__adddf3+0x404>
    4fa4:	47fd                	li	a5,31
    4fa6:	5267cc63          	blt	a5,t1,54de <__adddf3+0x5b2>
    4faa:	02000793          	li	a5,32
    4fae:	406787b3          	sub	a5,a5,t1
    4fb2:	00f894b3          	sll	s1,a7,a5
    4fb6:	006e56b3          	srl	a3,t3,t1
    4fba:	00fe17b3          	sll	a5,t3,a5
    4fbe:	8cd5                	or	s1,s1,a3
    4fc0:	00f03e33          	snez	t3,a5
    4fc4:	0068d8b3          	srl	a7,a7,t1
    4fc8:	01c4e4b3          	or	s1,s1,t3
    4fcc:	41170733          	sub	a4,a4,a7
    4fd0:	409804b3          	sub	s1,a6,s1
    4fd4:	00983833          	sltu	a6,a6,s1
    4fd8:	41070733          	sub	a4,a4,a6
    4fdc:	00871793          	slli	a5,a4,0x8
    4fe0:	2407d863          	bgez	a5,5230 <__adddf3+0x304>
    4fe4:	00971a13          	slli	s4,a4,0x9
    4fe8:	009a5a13          	srli	s4,s4,0x9
    4fec:	300a0a63          	beqz	s4,5300 <__adddf3+0x3d4>
    4ff0:	8552                	mv	a0,s4
    4ff2:	642020ef          	jal	ra,7634 <__clzsi2>
    4ff6:	1561                	addi	a0,a0,-8
    4ff8:	02000793          	li	a5,32
    4ffc:	8f89                	sub	a5,a5,a0
    4ffe:	00aa1733          	sll	a4,s4,a0
    5002:	00f4d7b3          	srl	a5,s1,a5
    5006:	8fd9                	or	a5,a5,a4
    5008:	00a49a33          	sll	s4,s1,a0
    500c:	30854763          	blt	a0,s0,531a <__adddf3+0x3ee>
    5010:	8d01                	sub	a0,a0,s0
    5012:	00150713          	addi	a4,a0,1
    5016:	46fd                	li	a3,31
    5018:	48e6ce63          	blt	a3,a4,54b4 <__adddf3+0x588>
    501c:	02000693          	li	a3,32
    5020:	8e99                	sub	a3,a3,a4
    5022:	00d794b3          	sll	s1,a5,a3
    5026:	00ea5633          	srl	a2,s4,a4
    502a:	00da16b3          	sll	a3,s4,a3
    502e:	8cd1                	or	s1,s1,a2
    5030:	00d036b3          	snez	a3,a3
    5034:	8cd5                	or	s1,s1,a3
    5036:	00e7d733          	srl	a4,a5,a4
    503a:	00e4e7b3          	or	a5,s1,a4
    503e:	cff5                	beqz	a5,513a <__adddf3+0x20e>
    5040:	0074f793          	andi	a5,s1,7
    5044:	00149593          	slli	a1,s1,0x1
    5048:	00171613          	slli	a2,a4,0x1
    504c:	01f4d693          	srli	a3,s1,0x1f
    5050:	0075f513          	andi	a0,a1,7
    5054:	96b2                	add	a3,a3,a2
    5056:	4301                	li	t1,0
    5058:	c911                	beqz	a0,506c <__adddf3+0x140>
    505a:	4609                	li	a2,2
    505c:	60c98363          	beq	s3,a2,5662 <__adddf3+0x736>
    5060:	460d                	li	a2,3
    5062:	4305                	li	t1,1
    5064:	62c98363          	beq	s3,a2,568a <__adddf3+0x75e>
    5068:	60098663          	beqz	s3,5674 <__adddf3+0x748>
    506c:	01000637          	lui	a2,0x1000
    5070:	8ef1                	and	a3,a3,a2
    5072:	0016b613          	seqz	a2,a3
    5076:	0a0786e3          	beqz	a5,5922 <__adddf3+0x9f6>
    507a:	4401                	li	s0,0
    507c:	4789                	li	a5,2
    507e:	24f98e63          	beq	s3,a5,52da <__adddf3+0x3ae>
    5082:	478d                	li	a5,3
    5084:	4305                	li	t1,1
    5086:	26f98a63          	beq	s3,a5,52fa <__adddf3+0x3ce>
    508a:	22098c63          	beqz	s3,52c2 <__adddf3+0x396>
    508e:	008007b7          	lui	a5,0x800
    5092:	8ff9                	and	a5,a5,a4
    5094:	c219                	beqz	a2,509a <__adddf3+0x16e>
    5096:	00236313          	ori	t1,t1,2
    509a:	060787e3          	beqz	a5,5908 <__adddf3+0x9dc>
    509e:	0405                	addi	s0,s0,1
    50a0:	7ff00793          	li	a5,2047
    50a4:	1af40863          	beq	s0,a5,5254 <__adddf3+0x328>
    50a8:	ff8007b7          	lui	a5,0xff800
    50ac:	17fd                	addi	a5,a5,-1
    50ae:	8ff9                	and	a5,a5,a4
    50b0:	01d79813          	slli	a6,a5,0x1d
    50b4:	808d                	srli	s1,s1,0x3
    50b6:	07a6                	slli	a5,a5,0x9
    50b8:	00986833          	or	a6,a6,s1
    50bc:	83b1                	srli	a5,a5,0xc
    50be:	7ff47413          	andi	s0,s0,2047
    50c2:	00c79713          	slli	a4,a5,0xc
    50c6:	0452                	slli	s0,s0,0x14
    50c8:	8331                	srli	a4,a4,0xc
    50ca:	097e                	slli	s2,s2,0x1f
    50cc:	8f41                	or	a4,a4,s0
    50ce:	01276733          	or	a4,a4,s2
    50d2:	8542                	mv	a0,a6
    50d4:	85ba                	mv	a1,a4
    50d6:	28031563          	bnez	t1,5360 <__adddf3+0x434>
    50da:	40f2                	lw	ra,28(sp)
    50dc:	4462                	lw	s0,24(sp)
    50de:	44d2                	lw	s1,20(sp)
    50e0:	4942                	lw	s2,16(sp)
    50e2:	49b2                	lw	s3,12(sp)
    50e4:	4a22                	lw	s4,8(sp)
    50e6:	6105                	addi	sp,sp,32
    50e8:	8082                	ret
    50ea:	0c031463          	bnez	t1,51b2 <__adddf3+0x286>
    50ee:	00140793          	addi	a5,s0,1
    50f2:	7fe7f793          	andi	a5,a5,2046
    50f6:	2c079163          	bnez	a5,53b8 <__adddf3+0x48c>
    50fa:	01076eb3          	or	t4,a4,a6
    50fe:	01c8e7b3          	or	a5,a7,t3
    5102:	5c041463          	bnez	s0,56ca <__adddf3+0x79e>
    5106:	4e0e8663          	beqz	t4,55f2 <__adddf3+0x6c6>
    510a:	4e078a63          	beqz	a5,55fe <__adddf3+0x6d2>
    510e:	41c805b3          	sub	a1,a6,t3
    5112:	00b837b3          	sltu	a5,a6,a1
    5116:	41170633          	sub	a2,a4,a7
    511a:	8e1d                	sub	a2,a2,a5
    511c:	00861793          	slli	a5,a2,0x8
    5120:	6e07d863          	bgez	a5,5810 <__adddf3+0x8e4>
    5124:	410e04b3          	sub	s1,t3,a6
    5128:	009e37b3          	sltu	a5,t3,s1
    512c:	40e88733          	sub	a4,a7,a4
    5130:	8f1d                	sub	a4,a4,a5
    5132:	00e4e7b3          	or	a5,s1,a4
    5136:	8936                	mv	s2,a3
    5138:	f781                	bnez	a5,5040 <__adddf3+0x114>
    513a:	4801                	li	a6,0
    513c:	4401                	li	s0,0
    513e:	4301                	li	t1,0
    5140:	07b2                	slli	a5,a5,0xc
    5142:	83b1                	srli	a5,a5,0xc
    5144:	7ff47413          	andi	s0,s0,2047
    5148:	bfad                	j	50c2 <__adddf3+0x196>
    514a:	12605663          	blez	t1,5276 <__adddf3+0x34a>
    514e:	c9dd                	beqz	a1,5204 <__adddf3+0x2d8>
    5150:	008006b7          	lui	a3,0x800
    5154:	7ff00793          	li	a5,2047
    5158:	00d8e8b3          	or	a7,a7,a3
    515c:	20f40e63          	beq	s0,a5,5378 <__adddf3+0x44c>
    5160:	03800793          	li	a5,56
    5164:	3067c663          	blt	a5,t1,5470 <__adddf3+0x544>
    5168:	47fd                	li	a5,31
    516a:	3e67da63          	bge	a5,t1,555e <__adddf3+0x632>
    516e:	fe030493          	addi	s1,t1,-32
    5172:	02000693          	li	a3,32
    5176:	0098d7b3          	srl	a5,a7,s1
    517a:	00d30a63          	beq	t1,a3,518e <__adddf3+0x262>
    517e:	04000693          	li	a3,64
    5182:	40668333          	sub	t1,a3,t1
    5186:	006898b3          	sll	a7,a7,t1
    518a:	011e6e33          	or	t3,t3,a7
    518e:	01c034b3          	snez	s1,t3
    5192:	8cdd                	or	s1,s1,a5
    5194:	a4d5                	j	5478 <__adddf3+0x54c>
    5196:	01c8e7b3          	or	a5,a7,t3
    519a:	1a078063          	beqz	a5,533a <__adddf3+0x40e>
    519e:	fff30793          	addi	a5,t1,-1
    51a2:	48078363          	beqz	a5,5628 <__adddf3+0x6fc>
    51a6:	7ff00693          	li	a3,2047
    51aa:	1cd30763          	beq	t1,a3,5378 <__adddf3+0x44c>
    51ae:	833e                	mv	t1,a5
    51b0:	b3f5                	j	4f9c <__adddf3+0x70>
    51b2:	408587b3          	sub	a5,a1,s0
    51b6:	28041163          	bnez	s0,5438 <__adddf3+0x50c>
    51ba:	01076533          	or	a0,a4,a6
    51be:	c12d                	beqz	a0,5220 <__adddf3+0x2f4>
    51c0:	fff78513          	addi	a0,a5,-1 # ff7fffff <_eusrstack+0xdf7effff>
    51c4:	56050d63          	beqz	a0,573e <__adddf3+0x812>
    51c8:	7ff00313          	li	t1,2047
    51cc:	42678b63          	beq	a5,t1,5602 <__adddf3+0x6d6>
    51d0:	87aa                	mv	a5,a0
    51d2:	03800613          	li	a2,56
    51d6:	32f64863          	blt	a2,a5,5506 <__adddf3+0x5da>
    51da:	467d                	li	a2,31
    51dc:	52f64d63          	blt	a2,a5,5716 <__adddf3+0x7ea>
    51e0:	02000613          	li	a2,32
    51e4:	8e1d                	sub	a2,a2,a5
    51e6:	00c714b3          	sll	s1,a4,a2
    51ea:	00f85533          	srl	a0,a6,a5
    51ee:	00c81633          	sll	a2,a6,a2
    51f2:	8cc9                	or	s1,s1,a0
    51f4:	00c03633          	snez	a2,a2
    51f8:	00f757b3          	srl	a5,a4,a5
    51fc:	8cd1                	or	s1,s1,a2
    51fe:	40f888b3          	sub	a7,a7,a5
    5202:	a631                	j	550e <__adddf3+0x5e2>
    5204:	01c8e7b3          	or	a5,a7,t3
    5208:	12078963          	beqz	a5,533a <__adddf3+0x40e>
    520c:	fff30793          	addi	a5,t1,-1
    5210:	36078a63          	beqz	a5,5584 <__adddf3+0x658>
    5214:	7ff00693          	li	a3,2047
    5218:	4cd30e63          	beq	t1,a3,56f4 <__adddf3+0x7c8>
    521c:	833e                	mv	t1,a5
    521e:	b789                	j	5160 <__adddf3+0x234>
    5220:	7ff00713          	li	a4,2047
    5224:	62e78b63          	beq	a5,a4,585a <__adddf3+0x92e>
    5228:	8746                	mv	a4,a7
    522a:	84f2                	mv	s1,t3
    522c:	843e                	mv	s0,a5
    522e:	8936                	mv	s2,a3
    5230:	00e4e7b3          	or	a5,s1,a4
    5234:	e00405e3          	beqz	s0,503e <__adddf3+0x112>
    5238:	0074f793          	andi	a5,s1,7
    523c:	4601                	li	a2,0
    523e:	e2079fe3          	bnez	a5,507c <__adddf3+0x150>
    5242:	008007b7          	lui	a5,0x800
    5246:	8ff9                	and	a5,a5,a4
    5248:	4301                	li	t1,0
    524a:	bd81                	j	509a <__adddf3+0x16e>
    524c:	478d                	li	a5,3
    524e:	0af98063          	beq	s3,a5,52ee <__adddf3+0x3c2>
    5252:	4315                	li	t1,5
    5254:	10098b63          	beqz	s3,536a <__adddf3+0x43e>
    5258:	478d                	li	a5,3
    525a:	10f98663          	beq	s3,a5,5366 <__adddf3+0x43a>
    525e:	4789                	li	a5,2
    5260:	34f98d63          	beq	s3,a5,55ba <__adddf3+0x68e>
    5264:	00536313          	ori	t1,t1,5
    5268:	200007b7          	lui	a5,0x20000
    526c:	587d                	li	a6,-1
    526e:	17fd                	addi	a5,a5,-1
    5270:	7fe00413          	li	s0,2046
    5274:	b5f1                	j	5140 <__adddf3+0x214>
    5276:	16031863          	bnez	t1,53e6 <__adddf3+0x4ba>
    527a:	00140693          	addi	a3,s0,1
    527e:	7fe6f793          	andi	a5,a3,2046
    5282:	40079763          	bnez	a5,5690 <__adddf3+0x764>
    5286:	010766b3          	or	a3,a4,a6
    528a:	32041d63          	bnez	s0,55c4 <__adddf3+0x698>
    528e:	01c8e7b3          	or	a5,a7,t3
    5292:	4a068f63          	beqz	a3,5750 <__adddf3+0x824>
    5296:	36078463          	beqz	a5,55fe <__adddf3+0x6d2>
    529a:	01c804b3          	add	s1,a6,t3
    529e:	011707b3          	add	a5,a4,a7
    52a2:	0104b833          	sltu	a6,s1,a6
    52a6:	01078733          	add	a4,a5,a6
    52aa:	00871793          	slli	a5,a4,0x8
    52ae:	d807d6e3          	bgez	a5,503a <__adddf3+0x10e>
    52b2:	ff8007b7          	lui	a5,0xff800
    52b6:	17fd                	addi	a5,a5,-1
    52b8:	8f7d                	and	a4,a4,a5
    52ba:	4405                	li	s0,1
    52bc:	0074f793          	andi	a5,s1,7
    52c0:	bfb5                	j	523c <__adddf3+0x310>
    52c2:	00f4f793          	andi	a5,s1,15
    52c6:	4691                	li	a3,4
    52c8:	dcd783e3          	beq	a5,a3,508e <__adddf3+0x162>
    52cc:	00448793          	addi	a5,s1,4
    52d0:	0097b4b3          	sltu	s1,a5,s1
    52d4:	9726                	add	a4,a4,s1
    52d6:	84be                	mv	s1,a5
    52d8:	bb5d                	j	508e <__adddf3+0x162>
    52da:	4305                	li	t1,1
    52dc:	da0909e3          	beqz	s2,508e <__adddf3+0x162>
    52e0:	00848793          	addi	a5,s1,8
    52e4:	0097b4b3          	sltu	s1,a5,s1
    52e8:	9726                	add	a4,a4,s1
    52ea:	84be                	mv	s1,a5
    52ec:	b34d                	j	508e <__adddf3+0x162>
    52ee:	577d                	li	a4,-1
    52f0:	54fd                	li	s1,-1
    52f2:	7fe00413          	li	s0,2046
    52f6:	4601                	li	a2,0
    52f8:	4315                	li	t1,5
    52fa:	fe0903e3          	beqz	s2,52e0 <__adddf3+0x3b4>
    52fe:	bb41                	j	508e <__adddf3+0x162>
    5300:	8526                	mv	a0,s1
    5302:	332020ef          	jal	ra,7634 <__clzsi2>
    5306:	ff850793          	addi	a5,a0,-8
    530a:	477d                	li	a4,31
    530c:	0561                	addi	a0,a0,24
    530e:	00f497b3          	sll	a5,s1,a5
    5312:	cea753e3          	bge	a4,a0,4ff8 <__adddf3+0xcc>
    5316:	ce855de3          	bge	a0,s0,5010 <__adddf3+0xe4>
    531a:	ff800737          	lui	a4,0xff800
    531e:	177d                	addi	a4,a4,-1
    5320:	8f7d                	and	a4,a4,a5
    5322:	84d2                	mv	s1,s4
    5324:	8c09                	sub	s0,s0,a0
    5326:	00e4e7b3          	or	a5,s1,a4
    532a:	d0040ae3          	beqz	s0,503e <__adddf3+0x112>
    532e:	b729                	j	5238 <__adddf3+0x30c>
    5330:	01c8e8b3          	or	a7,a7,t3
    5334:	011034b3          	snez	s1,a7
    5338:	b961                	j	4fd0 <__adddf3+0xa4>
    533a:	7ff00793          	li	a5,2047
    533e:	30f30363          	beq	t1,a5,5644 <__adddf3+0x718>
    5342:	008007b7          	lui	a5,0x800
    5346:	841a                	mv	s0,t1
    5348:	8ff9                	and	a5,a5,a4
    534a:	84c2                	mv	s1,a6
    534c:	4301                	li	t1,0
    534e:	b3b1                	j	509a <__adddf3+0x16e>
    5350:	46858863          	beq	a1,s0,57c0 <__adddf3+0x894>
    5354:	46079f63          	bnez	a5,57d2 <__adddf3+0x8a6>
    5358:	4501                	li	a0,0
    535a:	7ff805b7          	lui	a1,0x7ff80
    535e:	4341                	li	t1,16
    5360:	00132073          	csrs	fflags,t1
    5364:	bb9d                	j	50da <__adddf3+0x1ae>
    5366:	ee091fe3          	bnez	s2,5264 <__adddf3+0x338>
    536a:	00536313          	ori	t1,t1,5
    536e:	7ff00413          	li	s0,2047
    5372:	4781                	li	a5,0
    5374:	4801                	li	a6,0
    5376:	b3b1                	j	50c2 <__adddf3+0x196>
    5378:	01076833          	or	a6,a4,a6
    537c:	02080c63          	beqz	a6,53b4 <__adddf3+0x488>
    5380:	00400337          	lui	t1,0x400
    5384:	050e                	slli	a0,a0,0x3
    5386:	00677333          	and	t1,a4,t1
    538a:	01d71813          	slli	a6,a4,0x1d
    538e:	810d                	srli	a0,a0,0x3
    5390:	00133313          	seqz	t1,t1
    5394:	00a86833          	or	a6,a6,a0
    5398:	00375793          	srli	a5,a4,0x3
    539c:	0312                	slli	t1,t1,0x4
    539e:	0107e7b3          	or	a5,a5,a6
    53a2:	d7f1                	beqz	a5,536e <__adddf3+0x442>
    53a4:	4901                	li	s2,0
    53a6:	7ff00413          	li	s0,2047
    53aa:	000807b7          	lui	a5,0x80
    53ae:	4801                	li	a6,0
    53b0:	bb09                	j	50c2 <__adddf3+0x196>
    53b2:	8936                	mv	s2,a3
    53b4:	4301                	li	t1,0
    53b6:	bf65                	j	536e <__adddf3+0x442>
    53b8:	41c804b3          	sub	s1,a6,t3
    53bc:	009837b3          	sltu	a5,a6,s1
    53c0:	41170a33          	sub	s4,a4,a7
    53c4:	40fa0a33          	sub	s4,s4,a5
    53c8:	008a1793          	slli	a5,s4,0x8
    53cc:	2e07c563          	bltz	a5,56b6 <__adddf3+0x78a>
    53d0:	0144e7b3          	or	a5,s1,s4
    53d4:	c0079ce3          	bnez	a5,4fec <__adddf3+0xc0>
    53d8:	ffe98913          	addi	s2,s3,-2
    53dc:	00193913          	seqz	s2,s2
    53e0:	4801                	li	a6,0
    53e2:	4401                	li	s0,0
    53e4:	bbb1                	j	5140 <__adddf3+0x214>
    53e6:	408587b3          	sub	a5,a1,s0
    53ea:	12040b63          	beqz	s0,5520 <__adddf3+0x5f4>
    53ee:	00800537          	lui	a0,0x800
    53f2:	7ff00693          	li	a3,2047
    53f6:	8f49                	or	a4,a4,a0
    53f8:	34d58f63          	beq	a1,a3,5756 <__adddf3+0x82a>
    53fc:	03800693          	li	a3,56
    5400:	30f6c663          	blt	a3,a5,570c <__adddf3+0x7e0>
    5404:	46fd                	li	a3,31
    5406:	40f6cf63          	blt	a3,a5,5824 <__adddf3+0x8f8>
    540a:	02000693          	li	a3,32
    540e:	8e9d                	sub	a3,a3,a5
    5410:	00d714b3          	sll	s1,a4,a3
    5414:	00f85633          	srl	a2,a6,a5
    5418:	00d816b3          	sll	a3,a6,a3
    541c:	8cd1                	or	s1,s1,a2
    541e:	00d036b3          	snez	a3,a3
    5422:	00f757b3          	srl	a5,a4,a5
    5426:	8cd5                	or	s1,s1,a3
    5428:	98be                	add	a7,a7,a5
    542a:	94f2                	add	s1,s1,t3
    542c:	01c4b7b3          	sltu	a5,s1,t3
    5430:	01178733          	add	a4,a5,a7
    5434:	842e                	mv	s0,a1
    5436:	a0a9                	j	5480 <__adddf3+0x554>
    5438:	00800337          	lui	t1,0x800
    543c:	7ff00513          	li	a0,2047
    5440:	00676733          	or	a4,a4,t1
    5444:	d8a597e3          	bne	a1,a0,51d2 <__adddf3+0x2a6>
    5448:	01c8e7b3          	or	a5,a7,t3
    544c:	d3bd                	beqz	a5,53b2 <__adddf3+0x486>
    544e:	00361813          	slli	a6,a2,0x3
    5452:	01d89793          	slli	a5,a7,0x1d
    5456:	00385813          	srli	a6,a6,0x3
    545a:	00989713          	slli	a4,a7,0x9
    545e:	00f86833          	or	a6,a6,a5
    5462:	8936                	mv	s2,a3
    5464:	0038d793          	srli	a5,a7,0x3
    5468:	1a074e63          	bltz	a4,5624 <__adddf3+0x6f8>
    546c:	4341                	li	t1,16
    546e:	bf05                	j	539e <__adddf3+0x472>
    5470:	01c8e8b3          	or	a7,a7,t3
    5474:	011034b3          	snez	s1,a7
    5478:	94c2                	add	s1,s1,a6
    547a:	0104b833          	sltu	a6,s1,a6
    547e:	9742                	add	a4,a4,a6
    5480:	00871793          	slli	a5,a4,0x8
    5484:	da07d6e3          	bgez	a5,5230 <__adddf3+0x304>
    5488:	0405                	addi	s0,s0,1
    548a:	7ff00793          	li	a5,2047
    548e:	0af40763          	beq	s0,a5,553c <__adddf3+0x610>
    5492:	ff8007b7          	lui	a5,0xff800
    5496:	17fd                	addi	a5,a5,-1
    5498:	8ff9                	and	a5,a5,a4
    549a:	0014d713          	srli	a4,s1,0x1
    549e:	8885                	andi	s1,s1,1
    54a0:	8cd9                	or	s1,s1,a4
    54a2:	01f79813          	slli	a6,a5,0x1f
    54a6:	009864b3          	or	s1,a6,s1
    54aa:	0017d713          	srli	a4,a5,0x1
    54ae:	0074f793          	andi	a5,s1,7
    54b2:	b369                	j	523c <__adddf3+0x310>
    54b4:	1505                	addi	a0,a0,-31
    54b6:	02000693          	li	a3,32
    54ba:	00a7d533          	srl	a0,a5,a0
    54be:	00d70a63          	beq	a4,a3,54d2 <__adddf3+0x5a6>
    54c2:	04000693          	li	a3,64
    54c6:	40e68733          	sub	a4,a3,a4
    54ca:	00e797b3          	sll	a5,a5,a4
    54ce:	00fa6a33          	or	s4,s4,a5
    54d2:	014037b3          	snez	a5,s4
    54d6:	8fc9                	or	a5,a5,a0
    54d8:	84be                	mv	s1,a5
    54da:	4701                	li	a4,0
    54dc:	b68d                	j	503e <__adddf3+0x112>
    54de:	fe030493          	addi	s1,t1,-32 # 7fffe0 <_data_lma+0x7f4c0c>
    54e2:	02000693          	li	a3,32
    54e6:	0098d7b3          	srl	a5,a7,s1
    54ea:	00d30a63          	beq	t1,a3,54fe <__adddf3+0x5d2>
    54ee:	04000693          	li	a3,64
    54f2:	40668333          	sub	t1,a3,t1
    54f6:	006898b3          	sll	a7,a7,t1
    54fa:	011e6e33          	or	t3,t3,a7
    54fe:	01c034b3          	snez	s1,t3
    5502:	8cdd                	or	s1,s1,a5
    5504:	b4f1                	j	4fd0 <__adddf3+0xa4>
    5506:	010764b3          	or	s1,a4,a6
    550a:	009034b3          	snez	s1,s1
    550e:	409e04b3          	sub	s1,t3,s1
    5512:	009e37b3          	sltu	a5,t3,s1
    5516:	40f88733          	sub	a4,a7,a5
    551a:	842e                	mv	s0,a1
    551c:	8936                	mv	s2,a3
    551e:	bc7d                	j	4fdc <__adddf3+0xb0>
    5520:	010766b3          	or	a3,a4,a6
    5524:	24068d63          	beqz	a3,577e <__adddf3+0x852>
    5528:	fff78693          	addi	a3,a5,-1 # ff7fffff <_eusrstack+0xdf7effff>
    552c:	32068063          	beqz	a3,584c <__adddf3+0x920>
    5530:	7ff00513          	li	a0,2047
    5534:	22a78163          	beq	a5,a0,5756 <__adddf3+0x82a>
    5538:	87b6                	mv	a5,a3
    553a:	b5c9                	j	53fc <__adddf3+0x4d0>
    553c:	1a098a63          	beqz	s3,56f0 <__adddf3+0x7c4>
    5540:	478d                	li	a5,3
    5542:	38f98c63          	beq	s3,a5,58da <__adddf3+0x9ae>
    5546:	4789                	li	a5,2
    5548:	38f98063          	beq	s3,a5,58c8 <__adddf3+0x99c>
    554c:	d00990e3          	bnez	s3,524c <__adddf3+0x320>
    5550:	4601                	li	a2,0
    5552:	54fd                	li	s1,-1
    5554:	4315                	li	t1,5
    5556:	7fe00413          	li	s0,2046
    555a:	577d                	li	a4,-1
    555c:	bb85                	j	52cc <__adddf3+0x3a0>
    555e:	02000793          	li	a5,32
    5562:	406787b3          	sub	a5,a5,t1
    5566:	00f894b3          	sll	s1,a7,a5
    556a:	006e56b3          	srl	a3,t3,t1
    556e:	00fe17b3          	sll	a5,t3,a5
    5572:	8cd5                	or	s1,s1,a3
    5574:	00f03e33          	snez	t3,a5
    5578:	0068d8b3          	srl	a7,a7,t1
    557c:	01c4e4b3          	or	s1,s1,t3
    5580:	9746                	add	a4,a4,a7
    5582:	bddd                	j	5478 <__adddf3+0x54c>
    5584:	01c804b3          	add	s1,a6,t3
    5588:	011707b3          	add	a5,a4,a7
    558c:	0104b833          	sltu	a6,s1,a6
    5590:	01078733          	add	a4,a5,a6
    5594:	00871793          	slli	a5,a4,0x8
    5598:	4405                	li	s0,1
    559a:	c807dfe3          	bgez	a5,5238 <__adddf3+0x30c>
    559e:	ff8007b7          	lui	a5,0xff800
    55a2:	17fd                	addi	a5,a5,-1
    55a4:	8ff9                	and	a5,a5,a4
    55a6:	01f79713          	slli	a4,a5,0x1f
    55aa:	8085                	srli	s1,s1,0x1
    55ac:	8cd9                	or	s1,s1,a4
    55ae:	4409                	li	s0,2
    55b0:	0017d713          	srli	a4,a5,0x1
    55b4:	0074f793          	andi	a5,s1,7
    55b8:	b151                	j	523c <__adddf3+0x310>
    55ba:	00536313          	ori	t1,t1,5
    55be:	ca0905e3          	beqz	s2,5268 <__adddf3+0x33c>
    55c2:	b375                	j	536e <__adddf3+0x442>
    55c4:	7ff00793          	li	a5,2047
    55c8:	2cf40263          	beq	s0,a5,588c <__adddf3+0x960>
    55cc:	2ef58463          	beq	a1,a5,58b4 <__adddf3+0x988>
    55d0:	22068563          	beqz	a3,57fa <__adddf3+0x8ce>
    55d4:	01c8e8b3          	or	a7,a7,t3
    55d8:	dc0896e3          	bnez	a7,53a4 <__adddf3+0x478>
    55dc:	00351813          	slli	a6,a0,0x3
    55e0:	01d71793          	slli	a5,a4,0x1d
    55e4:	00385813          	srli	a6,a6,0x3
    55e8:	00f86833          	or	a6,a6,a5
    55ec:	00375793          	srli	a5,a4,0x3
    55f0:	b37d                	j	539e <__adddf3+0x472>
    55f2:	de0783e3          	beqz	a5,53d8 <__adddf3+0x4ac>
    55f6:	4781                	li	a5,0
    55f8:	8746                	mv	a4,a7
    55fa:	8872                	mv	a6,t3
    55fc:	8936                	mv	s2,a3
    55fe:	84c2                	mv	s1,a6
    5600:	b491                	j	5044 <__adddf3+0x118>
    5602:	01c8e7b3          	or	a5,a7,t3
    5606:	da0786e3          	beqz	a5,53b2 <__adddf3+0x486>
    560a:	060e                	slli	a2,a2,0x3
    560c:	01d89813          	slli	a6,a7,0x1d
    5610:	820d                	srli	a2,a2,0x3
    5612:	00989713          	slli	a4,a7,0x9
    5616:	00c86833          	or	a6,a6,a2
    561a:	0038d793          	srli	a5,a7,0x3
    561e:	8936                	mv	s2,a3
    5620:	e40756e3          	bgez	a4,546c <__adddf3+0x540>
    5624:	4301                	li	t1,0
    5626:	bba5                	j	539e <__adddf3+0x472>
    5628:	41c804b3          	sub	s1,a6,t3
    562c:	411707b3          	sub	a5,a4,a7
    5630:	00983833          	sltu	a6,a6,s1
    5634:	41078733          	sub	a4,a5,a6
    5638:	00871793          	slli	a5,a4,0x8
    563c:	4405                	li	s0,1
    563e:	9a07c3e3          	bltz	a5,4fe4 <__adddf3+0xb8>
    5642:	bedd                	j	5238 <__adddf3+0x30c>
    5644:	010767b3          	or	a5,a4,a6
    5648:	ebd5                	bnez	a5,56fc <__adddf3+0x7d0>
    564a:	4701                	li	a4,0
    564c:	4801                	li	a6,0
    564e:	4301                	li	t1,0
    5650:	01d71793          	slli	a5,a4,0x1d
    5654:	00385813          	srli	a6,a6,0x3
    5658:	00f86833          	or	a6,a6,a5
    565c:	00375793          	srli	a5,a4,0x3
    5660:	bb3d                	j	539e <__adddf3+0x472>
    5662:	4305                	li	t1,1
    5664:	a00904e3          	beqz	s2,506c <__adddf3+0x140>
    5668:	ff85b613          	sltiu	a2,a1,-8
    566c:	00164613          	xori	a2,a2,1
    5670:	96b2                	add	a3,a3,a2
    5672:	baed                	j	506c <__adddf3+0x140>
    5674:	00f5f613          	andi	a2,a1,15
    5678:	4511                	li	a0,4
    567a:	9ea609e3          	beq	a2,a0,506c <__adddf3+0x140>
    567e:	ffc5b593          	sltiu	a1,a1,-4
    5682:	0015c593          	xori	a1,a1,1
    5686:	96ae                	add	a3,a3,a1
    5688:	b2d5                	j	506c <__adddf3+0x140>
    568a:	9e0911e3          	bnez	s2,506c <__adddf3+0x140>
    568e:	bfe9                	j	5668 <__adddf3+0x73c>
    5690:	7ff00793          	li	a5,2047
    5694:	0ef68d63          	beq	a3,a5,578e <__adddf3+0x862>
    5698:	01c807b3          	add	a5,a6,t3
    569c:	0107b833          	sltu	a6,a5,a6
    56a0:	9746                	add	a4,a4,a7
    56a2:	9742                	add	a4,a4,a6
    56a4:	01f71493          	slli	s1,a4,0x1f
    56a8:	8385                	srli	a5,a5,0x1
    56aa:	8cdd                	or	s1,s1,a5
    56ac:	8305                	srli	a4,a4,0x1
    56ae:	0074f793          	andi	a5,s1,7
    56b2:	8436                	mv	s0,a3
    56b4:	b661                	j	523c <__adddf3+0x310>
    56b6:	410e04b3          	sub	s1,t3,a6
    56ba:	40e888b3          	sub	a7,a7,a4
    56be:	009e37b3          	sltu	a5,t3,s1
    56c2:	40f88a33          	sub	s4,a7,a5
    56c6:	8936                	mv	s2,a3
    56c8:	b215                	j	4fec <__adddf3+0xc0>
    56ca:	7ff00813          	li	a6,2047
    56ce:	0d040e63          	beq	s0,a6,57aa <__adddf3+0x87e>
    56d2:	0f058763          	beq	a1,a6,57c0 <__adddf3+0x894>
    56d6:	c60e8fe3          	beqz	t4,5354 <__adddf3+0x428>
    56da:	cc0795e3          	bnez	a5,53a4 <__adddf3+0x478>
    56de:	050e                	slli	a0,a0,0x3
    56e0:	01d71813          	slli	a6,a4,0x1d
    56e4:	810d                	srli	a0,a0,0x3
    56e6:	00a86833          	or	a6,a6,a0
    56ea:	00375793          	srli	a5,a4,0x3
    56ee:	b945                	j	539e <__adddf3+0x472>
    56f0:	4315                	li	t1,5
    56f2:	b9b5                	j	536e <__adddf3+0x442>
    56f4:	010767b3          	or	a5,a4,a6
    56f8:	ca078ee3          	beqz	a5,53b4 <__adddf3+0x488>
    56fc:	00400337          	lui	t1,0x400
    5700:	00677333          	and	t1,a4,t1
    5704:	00133313          	seqz	t1,t1
    5708:	0312                	slli	t1,t1,0x4
    570a:	b799                	j	5650 <__adddf3+0x724>
    570c:	010764b3          	or	s1,a4,a6
    5710:	009034b3          	snez	s1,s1
    5714:	bb19                	j	542a <__adddf3+0x4fe>
    5716:	fe078613          	addi	a2,a5,-32 # ff7fffe0 <_eusrstack+0xdf7effe0>
    571a:	02000513          	li	a0,32
    571e:	00c75633          	srl	a2,a4,a2
    5722:	00a78a63          	beq	a5,a0,5736 <__adddf3+0x80a>
    5726:	04000513          	li	a0,64
    572a:	40f507b3          	sub	a5,a0,a5
    572e:	00f717b3          	sll	a5,a4,a5
    5732:	00f86833          	or	a6,a6,a5
    5736:	010034b3          	snez	s1,a6
    573a:	8cd1                	or	s1,s1,a2
    573c:	bbc9                	j	550e <__adddf3+0x5e2>
    573e:	410e04b3          	sub	s1,t3,a6
    5742:	40e88733          	sub	a4,a7,a4
    5746:	009e37b3          	sltu	a5,t3,s1
    574a:	8f1d                	sub	a4,a4,a5
    574c:	8936                	mv	s2,a3
    574e:	b5ed                	j	5638 <__adddf3+0x70c>
    5750:	8746                	mv	a4,a7
    5752:	84f2                	mv	s1,t3
    5754:	b0ed                	j	503e <__adddf3+0x112>
    5756:	01c8e7b3          	or	a5,a7,t3
    575a:	c4078de3          	beqz	a5,53b4 <__adddf3+0x488>
    575e:	00400337          	lui	t1,0x400
    5762:	060e                	slli	a2,a2,0x3
    5764:	0068f333          	and	t1,a7,t1
    5768:	01d89813          	slli	a6,a7,0x1d
    576c:	820d                	srli	a2,a2,0x3
    576e:	00133313          	seqz	t1,t1
    5772:	00c86833          	or	a6,a6,a2
    5776:	0038d793          	srli	a5,a7,0x3
    577a:	0312                	slli	t1,t1,0x4
    577c:	b10d                	j	539e <__adddf3+0x472>
    577e:	7ff00713          	li	a4,2047
    5782:	0ee78963          	beq	a5,a4,5874 <__adddf3+0x948>
    5786:	8746                	mv	a4,a7
    5788:	84f2                	mv	s1,t3
    578a:	843e                	mv	s0,a5
    578c:	b455                	j	5230 <__adddf3+0x304>
    578e:	f60981e3          	beqz	s3,56f0 <__adddf3+0x7c4>
    5792:	478d                	li	a5,3
    5794:	daf999e3          	bne	s3,a5,5546 <__adddf3+0x61a>
    5798:	f4090ce3          	beqz	s2,56f0 <__adddf3+0x7c4>
    579c:	4601                	li	a2,0
    579e:	7fe00413          	li	s0,2046
    57a2:	4315                	li	t1,5
    57a4:	577d                	li	a4,-1
    57a6:	54fd                	li	s1,-1
    57a8:	b0dd                	j	508e <__adddf3+0x162>
    57aa:	ba0e83e3          	beqz	t4,5350 <__adddf3+0x424>
    57ae:	00971413          	slli	s0,a4,0x9
    57b2:	00044363          	bltz	s0,57b8 <__adddf3+0x88c>
    57b6:	4341                	li	t1,16
    57b8:	7ff00813          	li	a6,2047
    57bc:	f1059fe3          	bne	a1,a6,56da <__adddf3+0x7ae>
    57c0:	12078763          	beqz	a5,58ee <__adddf3+0x9c2>
    57c4:	00989793          	slli	a5,a7,0x9
    57c8:	0007c363          	bltz	a5,57ce <__adddf3+0x8a2>
    57cc:	4341                	li	t1,16
    57ce:	bc0e9be3          	bnez	t4,53a4 <__adddf3+0x478>
    57d2:	060e                	slli	a2,a2,0x3
    57d4:	01d89813          	slli	a6,a7,0x1d
    57d8:	820d                	srli	a2,a2,0x3
    57da:	00c86833          	or	a6,a6,a2
    57de:	0038d793          	srli	a5,a7,0x3
    57e2:	8936                	mv	s2,a3
    57e4:	be6d                	j	539e <__adddf3+0x472>
    57e6:	00859a63          	bne	a1,s0,57fa <__adddf3+0x8ce>
    57ea:	01c8e7b3          	or	a5,a7,t3
    57ee:	c791                	beqz	a5,57fa <__adddf3+0x8ce>
    57f0:	00989793          	slli	a5,a7,0x9
    57f4:	0007c363          	bltz	a5,57fa <__adddf3+0x8ce>
    57f8:	4341                	li	t1,16
    57fa:	00361813          	slli	a6,a2,0x3
    57fe:	01d89793          	slli	a5,a7,0x1d
    5802:	00385813          	srli	a6,a6,0x3
    5806:	00f86833          	or	a6,a6,a5
    580a:	0038d793          	srli	a5,a7,0x3
    580e:	be41                	j	539e <__adddf3+0x472>
    5810:	00c5e7b3          	or	a5,a1,a2
    5814:	bc0782e3          	beqz	a5,53d8 <__adddf3+0x4ac>
    5818:	882e                	mv	a6,a1
    581a:	0075f793          	andi	a5,a1,7
    581e:	8732                	mv	a4,a2
    5820:	84c2                	mv	s1,a6
    5822:	b00d                	j	5044 <__adddf3+0x118>
    5824:	fe078693          	addi	a3,a5,-32
    5828:	02000613          	li	a2,32
    582c:	00d756b3          	srl	a3,a4,a3
    5830:	00c78a63          	beq	a5,a2,5844 <__adddf3+0x918>
    5834:	04000613          	li	a2,64
    5838:	40f607b3          	sub	a5,a2,a5
    583c:	00f717b3          	sll	a5,a4,a5
    5840:	00f86833          	or	a6,a6,a5
    5844:	010034b3          	snez	s1,a6
    5848:	8cd5                	or	s1,s1,a3
    584a:	b6c5                	j	542a <__adddf3+0x4fe>
    584c:	01c804b3          	add	s1,a6,t3
    5850:	9746                	add	a4,a4,a7
    5852:	01c4b7b3          	sltu	a5,s1,t3
    5856:	973e                	add	a4,a4,a5
    5858:	bb35                	j	5594 <__adddf3+0x668>
    585a:	01c8e833          	or	a6,a7,t3
    585e:	08080b63          	beqz	a6,58f4 <__adddf3+0x9c8>
    5862:	00989793          	slli	a5,a7,0x9
    5866:	8746                	mv	a4,a7
    5868:	8872                	mv	a6,t3
    586a:	8936                	mv	s2,a3
    586c:	0007ce63          	bltz	a5,5888 <__adddf3+0x95c>
    5870:	4341                	li	t1,16
    5872:	bbf9                	j	5650 <__adddf3+0x724>
    5874:	01c8e833          	or	a6,a7,t3
    5878:	08080563          	beqz	a6,5902 <__adddf3+0x9d6>
    587c:	00989793          	slli	a5,a7,0x9
    5880:	8746                	mv	a4,a7
    5882:	8872                	mv	a6,t3
    5884:	fe07d6e3          	bgez	a5,5870 <__adddf3+0x944>
    5888:	4301                	li	t1,0
    588a:	b3d9                	j	5650 <__adddf3+0x724>
    588c:	dea9                	beqz	a3,57e6 <__adddf3+0x8ba>
    588e:	00971793          	slli	a5,a4,0x9
    5892:	0007c363          	bltz	a5,5898 <__adddf3+0x96c>
    5896:	4341                	li	t1,16
    5898:	7ff00793          	li	a5,2047
    589c:	d2f59ce3          	bne	a1,a5,55d4 <__adddf3+0x6a8>
    58a0:	01c8e7b3          	or	a5,a7,t3
    58a4:	d2078ce3          	beqz	a5,55dc <__adddf3+0x6b0>
    58a8:	00989793          	slli	a5,a7,0x9
    58ac:	0007dc63          	bgez	a5,58c4 <__adddf3+0x998>
    58b0:	d6a9                	beqz	a3,57fa <__adddf3+0x8ce>
    58b2:	bccd                	j	53a4 <__adddf3+0x478>
    58b4:	01c8e7b3          	or	a5,a7,t3
    58b8:	c3b1                	beqz	a5,58fc <__adddf3+0x9d0>
    58ba:	00989793          	slli	a5,a7,0x9
    58be:	fe07c9e3          	bltz	a5,58b0 <__adddf3+0x984>
    58c2:	da9d                	beqz	a3,57f8 <__adddf3+0x8cc>
    58c4:	4341                	li	t1,16
    58c6:	bcf9                	j	53a4 <__adddf3+0x478>
    58c8:	e20914e3          	bnez	s2,56f0 <__adddf3+0x7c4>
    58cc:	7fe00413          	li	s0,2046
    58d0:	577d                	li	a4,-1
    58d2:	54fd                	li	s1,-1
    58d4:	4315                	li	t1,5
    58d6:	fc8ff06f          	j	509e <__adddf3+0x172>
    58da:	e0090be3          	beqz	s2,56f0 <__adddf3+0x7c4>
    58de:	7fe00413          	li	s0,2046
    58e2:	4601                	li	a2,0
    58e4:	4315                	li	t1,5
    58e6:	577d                	li	a4,-1
    58e8:	54fd                	li	s1,-1
    58ea:	fa4ff06f          	j	508e <__adddf3+0x162>
    58ee:	a60e85e3          	beqz	t4,5358 <__adddf3+0x42c>
    58f2:	b3f5                	j	56de <__adddf3+0x7b2>
    58f4:	4701                	li	a4,0
    58f6:	8936                	mv	s2,a3
    58f8:	4301                	li	t1,0
    58fa:	bb99                	j	5650 <__adddf3+0x724>
    58fc:	ee068fe3          	beqz	a3,57fa <__adddf3+0x8ce>
    5900:	b9f1                	j	55dc <__adddf3+0x6b0>
    5902:	4701                	li	a4,0
    5904:	4301                	li	t1,0
    5906:	b3a9                	j	5650 <__adddf3+0x724>
    5908:	01d71693          	slli	a3,a4,0x1d
    590c:	0034d813          	srli	a6,s1,0x3
    5910:	7ff00613          	li	a2,2047
    5914:	0106e833          	or	a6,a3,a6
    5918:	00375793          	srli	a5,a4,0x3
    591c:	a8c401e3          	beq	s0,a2,539e <__adddf3+0x472>
    5920:	b005                	j	5140 <__adddf3+0x214>
    5922:	008007b7          	lui	a5,0x800
    5926:	8ff9                	and	a5,a5,a4
    5928:	4401                	li	s0,0
    592a:	f6069863          	bnez	a3,509a <__adddf3+0x16e>
    592e:	f6030663          	beqz	t1,509a <__adddf3+0x16e>
    5932:	00236313          	ori	t1,t1,2
    5936:	f64ff06f          	j	509a <__adddf3+0x16e>

0000593a <__divdf3>:
__divdf3():
    593a:	7139                	addi	sp,sp,-64
    593c:	da26                	sw	s1,52(sp)
    593e:	de06                	sw	ra,60(sp)
    5940:	dc22                	sw	s0,56(sp)
    5942:	d84a                	sw	s2,48(sp)
    5944:	d64e                	sw	s3,44(sp)
    5946:	d452                	sw	s4,40(sp)
    5948:	d256                	sw	s5,36(sp)
    594a:	d05a                	sw	s6,32(sp)
    594c:	ce5e                	sw	s7,28(sp)
    594e:	cc62                	sw	s8,24(sp)
    5950:	ca66                	sw	s9,20(sp)
    5952:	84aa                	mv	s1,a0
    5954:	00202b73          	frrm	s6
    5958:	0145d513          	srli	a0,a1,0x14
    595c:	00c59413          	slli	s0,a1,0xc
    5960:	7ff57513          	andi	a0,a0,2047
    5964:	8031                	srli	s0,s0,0xc
    5966:	01f5da13          	srli	s4,a1,0x1f
    596a:	c979                	beqz	a0,5a40 <__divdf3+0x106>
    596c:	7ff00793          	li	a5,2047
    5970:	10f50d63          	beq	a0,a5,5a8a <__divdf3+0x150>
    5974:	01d4db93          	srli	s7,s1,0x1d
    5978:	040e                	slli	s0,s0,0x3
    597a:	008be433          	or	s0,s7,s0
    597e:	00800bb7          	lui	s7,0x800
    5982:	00349c13          	slli	s8,s1,0x3
    5986:	01746bb3          	or	s7,s0,s7
    598a:	c0150993          	addi	s3,a0,-1023 # 7ffc01 <_data_lma+0x7f482d>
    598e:	4481                	li	s1,0
    5990:	4c81                	li	s9,0
    5992:	4901                	li	s2,0
    5994:	0146d793          	srli	a5,a3,0x14
    5998:	00c69413          	slli	s0,a3,0xc
    599c:	7ff7f793          	andi	a5,a5,2047
    59a0:	85b2                	mv	a1,a2
    59a2:	8031                	srli	s0,s0,0xc
    59a4:	01f6da93          	srli	s5,a3,0x1f
    59a8:	c3a5                	beqz	a5,5a08 <__divdf3+0xce>
    59aa:	7ff00713          	li	a4,2047
    59ae:	04e78063          	beq	a5,a4,59ee <__divdf3+0xb4>
    59b2:	00341513          	slli	a0,s0,0x3
    59b6:	01d65413          	srli	s0,a2,0x1d
    59ba:	8c49                	or	s0,s0,a0
    59bc:	c0178793          	addi	a5,a5,-1023 # 7ffc01 <_data_lma+0x7f482d>
    59c0:	00800537          	lui	a0,0x800
    59c4:	00361593          	slli	a1,a2,0x3
    59c8:	8c49                	or	s0,s0,a0
    59ca:	40f989b3          	sub	s3,s3,a5
    59ce:	4601                	li	a2,0
    59d0:	015a46b3          	xor	a3,s4,s5
    59d4:	47bd                	li	a5,15
    59d6:	8836                	mv	a6,a3
    59d8:	1c97e663          	bltu	a5,s1,5ba4 <__divdf3+0x26a>
    59dc:	00005717          	auipc	a4,0x5
    59e0:	55470713          	addi	a4,a4,1364 # af30 <MyUSBQUADescHD+0xc8>
    59e4:	048a                	slli	s1,s1,0x2
    59e6:	94ba                	add	s1,s1,a4
    59e8:	409c                	lw	a5,0(s1)
    59ea:	97ba                	add	a5,a5,a4
    59ec:	8782                	jr	a5
    59ee:	8e41                	or	a2,a2,s0
    59f0:	80198993          	addi	s3,s3,-2047
    59f4:	ce79                	beqz	a2,5ad2 <__divdf3+0x198>
    59f6:	00c41793          	slli	a5,s0,0xc
    59fa:	0034e493          	ori	s1,s1,3
    59fe:	460d                	li	a2,3
    5a00:	fc07c8e3          	bltz	a5,59d0 <__divdf3+0x96>
    5a04:	4941                	li	s2,16
    5a06:	b7e9                	j	59d0 <__divdf3+0x96>
    5a08:	00c467b3          	or	a5,s0,a2
    5a0c:	cfcd                	beqz	a5,5ac6 <__divdf3+0x18c>
    5a0e:	36040363          	beqz	s0,5d74 <__divdf3+0x43a>
    5a12:	8522                	mv	a0,s0
    5a14:	c432                	sw	a2,8(sp)
    5a16:	41f010ef          	jal	ra,7634 <__clzsi2>
    5a1a:	4622                	lw	a2,8(sp)
    5a1c:	ff550713          	addi	a4,a0,-11 # 7ffff5 <_data_lma+0x7f4c21>
    5a20:	47f5                	li	a5,29
    5a22:	ff850593          	addi	a1,a0,-8
    5a26:	8f99                	sub	a5,a5,a4
    5a28:	00b41433          	sll	s0,s0,a1
    5a2c:	00f657b3          	srl	a5,a2,a5
    5a30:	8c5d                	or	s0,s0,a5
    5a32:	00b615b3          	sll	a1,a2,a1
    5a36:	954e                	add	a0,a0,s3
    5a38:	3f350993          	addi	s3,a0,1011
    5a3c:	4601                	li	a2,0
    5a3e:	bf49                	j	59d0 <__divdf3+0x96>
    5a40:	00946bb3          	or	s7,s0,s1
    5a44:	060b8b63          	beqz	s7,5aba <__divdf3+0x180>
    5a48:	c636                	sw	a3,12(sp)
    5a4a:	c432                	sw	a2,8(sp)
    5a4c:	30040263          	beqz	s0,5d50 <__divdf3+0x416>
    5a50:	8522                	mv	a0,s0
    5a52:	3e3010ef          	jal	ra,7634 <__clzsi2>
    5a56:	4622                	lw	a2,8(sp)
    5a58:	46b2                	lw	a3,12(sp)
    5a5a:	89aa                	mv	s3,a0
    5a5c:	ff550713          	addi	a4,a0,-11
    5a60:	4bf5                	li	s7,29
    5a62:	ff898c13          	addi	s8,s3,-8
    5a66:	40eb8bb3          	sub	s7,s7,a4
    5a6a:	01841433          	sll	s0,s0,s8
    5a6e:	0174dbb3          	srl	s7,s1,s7
    5a72:	008bebb3          	or	s7,s7,s0
    5a76:	01849c33          	sll	s8,s1,s8
    5a7a:	c0d00513          	li	a0,-1011
    5a7e:	413509b3          	sub	s3,a0,s3
    5a82:	4481                	li	s1,0
    5a84:	4c81                	li	s9,0
    5a86:	4901                	li	s2,0
    5a88:	b731                	j	5994 <__divdf3+0x5a>
    5a8a:	00946bb3          	or	s7,s0,s1
    5a8e:	000b8f63          	beqz	s7,5aac <__divdf3+0x172>
    5a92:	00c41793          	slli	a5,s0,0xc
    5a96:	8c26                	mv	s8,s1
    5a98:	8ba2                	mv	s7,s0
    5a9a:	44b1                	li	s1,12
    5a9c:	7ff00993          	li	s3,2047
    5aa0:	4c8d                	li	s9,3
    5aa2:	4941                	li	s2,16
    5aa4:	ee07d8e3          	bgez	a5,5994 <__divdf3+0x5a>
    5aa8:	4901                	li	s2,0
    5aaa:	b5ed                	j	5994 <__divdf3+0x5a>
    5aac:	44a1                	li	s1,8
    5aae:	4c01                	li	s8,0
    5ab0:	7ff00993          	li	s3,2047
    5ab4:	4c89                	li	s9,2
    5ab6:	4901                	li	s2,0
    5ab8:	bdf1                	j	5994 <__divdf3+0x5a>
    5aba:	4491                	li	s1,4
    5abc:	4c01                	li	s8,0
    5abe:	4981                	li	s3,0
    5ac0:	4c85                	li	s9,1
    5ac2:	4901                	li	s2,0
    5ac4:	bdc1                	j	5994 <__divdf3+0x5a>
    5ac6:	0014e493          	ori	s1,s1,1
    5aca:	4401                	li	s0,0
    5acc:	4581                	li	a1,0
    5ace:	4605                	li	a2,1
    5ad0:	b701                	j	59d0 <__divdf3+0x96>
    5ad2:	0024e493          	ori	s1,s1,2
    5ad6:	4401                	li	s0,0
    5ad8:	4581                	li	a1,0
    5ada:	4609                	li	a2,2
    5adc:	bdd5                	j	59d0 <__divdf3+0x96>
    5ade:	4681                	li	a3,0
    5ae0:	7ff00713          	li	a4,2047
    5ae4:	000807b7          	lui	a5,0x80
    5ae8:	4401                	li	s0,0
    5aea:	07b2                	slli	a5,a5,0xc
    5aec:	0752                	slli	a4,a4,0x14
    5aee:	83b1                	srli	a5,a5,0xc
    5af0:	06fe                	slli	a3,a3,0x1f
    5af2:	8fd9                	or	a5,a5,a4
    5af4:	8fd5                	or	a5,a5,a3
    5af6:	8522                	mv	a0,s0
    5af8:	85be                	mv	a1,a5
    5afa:	0a091263          	bnez	s2,5b9e <__divdf3+0x264>
    5afe:	50f2                	lw	ra,60(sp)
    5b00:	5462                	lw	s0,56(sp)
    5b02:	54d2                	lw	s1,52(sp)
    5b04:	5942                	lw	s2,48(sp)
    5b06:	59b2                	lw	s3,44(sp)
    5b08:	5a22                	lw	s4,40(sp)
    5b0a:	5a92                	lw	s5,36(sp)
    5b0c:	5b02                	lw	s6,32(sp)
    5b0e:	4bf2                	lw	s7,28(sp)
    5b10:	4c62                	lw	s8,24(sp)
    5b12:	4cd2                	lw	s9,20(sp)
    5b14:	6121                	addi	sp,sp,64
    5b16:	8082                	ret
    5b18:	4701                	li	a4,0
    5b1a:	4781                	li	a5,0
    5b1c:	4401                	li	s0,0
    5b1e:	b7f1                	j	5aea <__divdf3+0x1b0>
    5b20:	8852                	mv	a6,s4
    5b22:	845e                	mv	s0,s7
    5b24:	85e2                	mv	a1,s8
    5b26:	8666                	mv	a2,s9
    5b28:	4789                	li	a5,2
    5b2a:	52f60163          	beq	a2,a5,604c <__divdf3+0x712>
    5b2e:	478d                	li	a5,3
    5b30:	faf607e3          	beq	a2,a5,5ade <__divdf3+0x1a4>
    5b34:	4785                	li	a5,1
    5b36:	4cf60063          	beq	a2,a5,5ff6 <__divdf3+0x6bc>
    5b3a:	3ff98613          	addi	a2,s3,1023
    5b3e:	28c05a63          	blez	a2,5dd2 <__divdf3+0x498>
    5b42:	0075f793          	andi	a5,a1,7
    5b46:	42079463          	bnez	a5,5f6e <__divdf3+0x634>
    5b4a:	818d                	srli	a1,a1,0x3
    5b4c:	86c2                	mv	a3,a6
    5b4e:	00741793          	slli	a5,s0,0x7
    5b52:	0007d863          	bgez	a5,5b62 <__divdf3+0x228>
    5b56:	ff0007b7          	lui	a5,0xff000
    5b5a:	17fd                	addi	a5,a5,-1
    5b5c:	8c7d                	and	s0,s0,a5
    5b5e:	40098613          	addi	a2,s3,1024
    5b62:	7fe00793          	li	a5,2046
    5b66:	2ec7cb63          	blt	a5,a2,5e5c <__divdf3+0x522>
    5b6a:	01d41713          	slli	a4,s0,0x1d
    5b6e:	00941793          	slli	a5,s0,0x9
    5b72:	83b1                	srli	a5,a5,0xc
    5b74:	00b76433          	or	s0,a4,a1
    5b78:	7ff67713          	andi	a4,a2,2047
    5b7c:	b7bd                	j	5aea <__divdf3+0x1b0>
    5b7e:	7ff00713          	li	a4,2047
    5b82:	4781                	li	a5,0
    5b84:	4401                	li	s0,0
    5b86:	b795                	j	5aea <__divdf3+0x1b0>
    5b88:	8856                	mv	a6,s5
    5b8a:	bf79                	j	5b28 <__divdf3+0x1ee>
    5b8c:	00896913          	ori	s2,s2,8
    5b90:	7ff00793          	li	a5,2047
    5b94:	06fe                	slli	a3,a3,0x1f
    5b96:	07d2                	slli	a5,a5,0x14
    5b98:	8fd5                	or	a5,a5,a3
    5b9a:	4501                	li	a0,0
    5b9c:	85be                	mv	a1,a5
    5b9e:	00192073          	csrs	fflags,s2
    5ba2:	bfb1                	j	5afe <__divdf3+0x1c4>
    5ba4:	21746e63          	bltu	s0,s7,5dc0 <__divdf3+0x486>
    5ba8:	208b8a63          	beq	s7,s0,5dbc <__divdf3+0x482>
    5bac:	87e2                	mv	a5,s8
    5bae:	19fd                	addi	s3,s3,-1
    5bb0:	4c01                	li	s8,0
    5bb2:	0422                	slli	s0,s0,0x8
    5bb4:	0185d893          	srli	a7,a1,0x18
    5bb8:	0088e8b3          	or	a7,a7,s0
    5bbc:	0108d313          	srli	t1,a7,0x10
    5bc0:	026bd433          	divu	s0,s7,t1
    5bc4:	01089e13          	slli	t3,a7,0x10
    5bc8:	010e5e13          	srli	t3,t3,0x10
    5bcc:	0107d713          	srli	a4,a5,0x10
    5bd0:	00859e93          	slli	t4,a1,0x8
    5bd4:	026bfbb3          	remu	s7,s7,t1
    5bd8:	028e0633          	mul	a2,t3,s0
    5bdc:	0bc2                	slli	s7,s7,0x10
    5bde:	01776733          	or	a4,a4,s7
    5be2:	00c77b63          	bgeu	a4,a2,5bf8 <__divdf3+0x2be>
    5be6:	9746                	add	a4,a4,a7
    5be8:	fff40593          	addi	a1,s0,-1
    5bec:	2d176a63          	bltu	a4,a7,5ec0 <__divdf3+0x586>
    5bf0:	2cc77863          	bgeu	a4,a2,5ec0 <__divdf3+0x586>
    5bf4:	1479                	addi	s0,s0,-2
    5bf6:	9746                	add	a4,a4,a7
    5bf8:	8f11                	sub	a4,a4,a2
    5bfa:	02675533          	divu	a0,a4,t1
    5bfe:	07c2                	slli	a5,a5,0x10
    5c00:	83c1                	srli	a5,a5,0x10
    5c02:	02677733          	remu	a4,a4,t1
    5c06:	02ae02b3          	mul	t0,t3,a0
    5c0a:	0742                	slli	a4,a4,0x10
    5c0c:	8fd9                	or	a5,a5,a4
    5c0e:	0057fb63          	bgeu	a5,t0,5c24 <__divdf3+0x2ea>
    5c12:	97c6                	add	a5,a5,a7
    5c14:	fff50713          	addi	a4,a0,-1
    5c18:	2b17e263          	bltu	a5,a7,5ebc <__divdf3+0x582>
    5c1c:	2a57f063          	bgeu	a5,t0,5ebc <__divdf3+0x582>
    5c20:	1579                	addi	a0,a0,-2
    5c22:	97c6                	add	a5,a5,a7
    5c24:	0442                	slli	s0,s0,0x10
    5c26:	63c1                	lui	t2,0x10
    5c28:	8c49                	or	s0,s0,a0
    5c2a:	fff38513          	addi	a0,t2,-1 # ffff <_data_lma+0x4c2b>
    5c2e:	00a47633          	and	a2,s0,a0
    5c32:	01045593          	srli	a1,s0,0x10
    5c36:	010edf13          	srli	t5,t4,0x10
    5c3a:	00aef533          	and	a0,t4,a0
    5c3e:	02c50fb3          	mul	t6,a0,a2
    5c42:	405787b3          	sub	a5,a5,t0
    5c46:	02cf0633          	mul	a2,t5,a2
    5c4a:	010fd713          	srli	a4,t6,0x10
    5c4e:	02a582b3          	mul	t0,a1,a0
    5c52:	9616                	add	a2,a2,t0
    5c54:	9732                	add	a4,a4,a2
    5c56:	03e585b3          	mul	a1,a1,t5
    5c5a:	00577363          	bgeu	a4,t0,5c60 <__divdf3+0x326>
    5c5e:	959e                	add	a1,a1,t2
    5c60:	62c1                	lui	t0,0x10
    5c62:	12fd                	addi	t0,t0,-1
    5c64:	01075613          	srli	a2,a4,0x10
    5c68:	00577733          	and	a4,a4,t0
    5c6c:	0742                	slli	a4,a4,0x10
    5c6e:	005fffb3          	and	t6,t6,t0
    5c72:	962e                	add	a2,a2,a1
    5c74:	977e                	add	a4,a4,t6
    5c76:	12c7e463          	bltu	a5,a2,5d9e <__divdf3+0x464>
    5c7a:	12c78063          	beq	a5,a2,5d9a <__divdf3+0x460>
    5c7e:	40ec0733          	sub	a4,s8,a4
    5c82:	8f91                	sub	a5,a5,a2
    5c84:	00ec3c33          	sltu	s8,s8,a4
    5c88:	418787b3          	sub	a5,a5,s8
    5c8c:	3ff98613          	addi	a2,s3,1023
    5c90:	2af88f63          	beq	a7,a5,5f4e <__divdf3+0x614>
    5c94:	0267d5b3          	divu	a1,a5,t1
    5c98:	01075693          	srli	a3,a4,0x10
    5c9c:	0267f7b3          	remu	a5,a5,t1
    5ca0:	02be0fb3          	mul	t6,t3,a1
    5ca4:	07c2                	slli	a5,a5,0x10
    5ca6:	8fd5                	or	a5,a5,a3
    5ca8:	01f7fb63          	bgeu	a5,t6,5cbe <__divdf3+0x384>
    5cac:	97c6                	add	a5,a5,a7
    5cae:	fff58693          	addi	a3,a1,-1 # 7ff7ffff <_eusrstack+0x5ff6ffff>
    5cb2:	2f17e063          	bltu	a5,a7,5f92 <__divdf3+0x658>
    5cb6:	2df7fe63          	bgeu	a5,t6,5f92 <__divdf3+0x658>
    5cba:	15f9                	addi	a1,a1,-2
    5cbc:	97c6                	add	a5,a5,a7
    5cbe:	41f787b3          	sub	a5,a5,t6
    5cc2:	0267d6b3          	divu	a3,a5,t1
    5cc6:	0742                	slli	a4,a4,0x10
    5cc8:	8341                	srli	a4,a4,0x10
    5cca:	0267f7b3          	remu	a5,a5,t1
    5cce:	02de0e33          	mul	t3,t3,a3
    5cd2:	07c2                	slli	a5,a5,0x10
    5cd4:	8fd9                	or	a5,a5,a4
    5cd6:	01c7fb63          	bgeu	a5,t3,5cec <__divdf3+0x3b2>
    5cda:	97c6                	add	a5,a5,a7
    5cdc:	fff68713          	addi	a4,a3,-1 # 7fffff <_data_lma+0x7f4c2b>
    5ce0:	2b17eb63          	bltu	a5,a7,5f96 <__divdf3+0x65c>
    5ce4:	2bc7f963          	bgeu	a5,t3,5f96 <__divdf3+0x65c>
    5ce8:	16f9                	addi	a3,a3,-2
    5cea:	97c6                	add	a5,a5,a7
    5cec:	05c2                	slli	a1,a1,0x10
    5cee:	8dd5                	or	a1,a1,a3
    5cf0:	01059693          	slli	a3,a1,0x10
    5cf4:	0105df93          	srli	t6,a1,0x10
    5cf8:	82c1                	srli	a3,a3,0x10
    5cfa:	02a68333          	mul	t1,a3,a0
    5cfe:	41c787b3          	sub	a5,a5,t3
    5d02:	02df06b3          	mul	a3,t5,a3
    5d06:	01035713          	srli	a4,t1,0x10
    5d0a:	02af8533          	mul	a0,t6,a0
    5d0e:	96aa                	add	a3,a3,a0
    5d10:	9736                	add	a4,a4,a3
    5d12:	03ff0f33          	mul	t5,t5,t6
    5d16:	00a77463          	bgeu	a4,a0,5d1e <__divdf3+0x3e4>
    5d1a:	66c1                	lui	a3,0x10
    5d1c:	9f36                	add	t5,t5,a3
    5d1e:	6541                	lui	a0,0x10
    5d20:	157d                	addi	a0,a0,-1
    5d22:	01075693          	srli	a3,a4,0x10
    5d26:	8f69                	and	a4,a4,a0
    5d28:	0742                	slli	a4,a4,0x10
    5d2a:	00a37333          	and	t1,t1,a0
    5d2e:	9f36                	add	t5,t5,a3
    5d30:	971a                	add	a4,a4,t1
    5d32:	17e7fa63          	bgeu	a5,t5,5ea6 <__divdf3+0x56c>
    5d36:	97c6                	add	a5,a5,a7
    5d38:	fff58693          	addi	a3,a1,-1
    5d3c:	2d17e263          	bltu	a5,a7,6000 <__divdf3+0x6c6>
    5d40:	27e7eb63          	bltu	a5,t5,5fb6 <__divdf3+0x67c>
    5d44:	35e78a63          	beq	a5,t5,6098 <__divdf3+0x75e>
    5d48:	85b6                	mv	a1,a3
    5d4a:	0015e593          	ori	a1,a1,1
    5d4e:	bbc5                	j	5b3e <__divdf3+0x204>
    5d50:	8526                	mv	a0,s1
    5d52:	0e3010ef          	jal	ra,7634 <__clzsi2>
    5d56:	01550713          	addi	a4,a0,21 # 10015 <_data_lma+0x4c41>
    5d5a:	45f1                	li	a1,28
    5d5c:	02050993          	addi	s3,a0,32
    5d60:	4622                	lw	a2,8(sp)
    5d62:	46b2                	lw	a3,12(sp)
    5d64:	cee5dee3          	bge	a1,a4,5a60 <__divdf3+0x126>
    5d68:	ff850413          	addi	s0,a0,-8
    5d6c:	00849bb3          	sll	s7,s1,s0
    5d70:	4c01                	li	s8,0
    5d72:	b321                	j	5a7a <__divdf3+0x140>
    5d74:	8532                	mv	a0,a2
    5d76:	c432                	sw	a2,8(sp)
    5d78:	0bd010ef          	jal	ra,7634 <__clzsi2>
    5d7c:	01550713          	addi	a4,a0,21
    5d80:	46f1                	li	a3,28
    5d82:	87aa                	mv	a5,a0
    5d84:	4622                	lw	a2,8(sp)
    5d86:	02050513          	addi	a0,a0,32
    5d8a:	c8e6dbe3          	bge	a3,a4,5a20 <__divdf3+0xe6>
    5d8e:	ff878413          	addi	s0,a5,-8 # fefffff8 <_eusrstack+0xdefefff8>
    5d92:	4581                	li	a1,0
    5d94:	00861433          	sll	s0,a2,s0
    5d98:	b979                	j	5a36 <__divdf3+0xfc>
    5d9a:	eeec72e3          	bgeu	s8,a4,5c7e <__divdf3+0x344>
    5d9e:	9c76                	add	s8,s8,t4
    5da0:	01dc35b3          	sltu	a1,s8,t4
    5da4:	95c6                	add	a1,a1,a7
    5da6:	97ae                	add	a5,a5,a1
    5da8:	fff40593          	addi	a1,s0,-1
    5dac:	10f8f263          	bgeu	a7,a5,5eb0 <__divdf3+0x576>
    5db0:	18c7e863          	bltu	a5,a2,5f40 <__divdf3+0x606>
    5db4:	18f60463          	beq	a2,a5,5f3c <__divdf3+0x602>
    5db8:	842e                	mv	s0,a1
    5dba:	b5d1                	j	5c7e <__divdf3+0x344>
    5dbc:	debc68e3          	bltu	s8,a1,5bac <__divdf3+0x272>
    5dc0:	01fb9713          	slli	a4,s7,0x1f
    5dc4:	001c5793          	srli	a5,s8,0x1
    5dc8:	001bdb93          	srli	s7,s7,0x1
    5dcc:	8fd9                	or	a5,a5,a4
    5dce:	0c7e                	slli	s8,s8,0x1f
    5dd0:	b3cd                	j	5bb2 <__divdf3+0x278>
    5dd2:	86c2                	mv	a3,a6
    5dd4:	e635                	bnez	a2,5e40 <__divdf3+0x506>
    5dd6:	0075f613          	andi	a2,a1,7
    5dda:	88a2                	mv	a7,s0
    5ddc:	24061263          	bnez	a2,6020 <__divdf3+0x6e6>
    5de0:	8061                	srli	s0,s0,0x18
    5de2:	00144413          	xori	s0,s0,1
    5de6:	00147613          	andi	a2,s0,1
    5dea:	4785                	li	a5,1
    5dec:	41e98513          	addi	a0,s3,1054
    5df0:	00a89733          	sll	a4,a7,a0
    5df4:	00f5d433          	srl	s0,a1,a5
    5df8:	00a595b3          	sll	a1,a1,a0
    5dfc:	8c59                	or	s0,s0,a4
    5dfe:	00b035b3          	snez	a1,a1
    5e02:	8c4d                	or	s0,s0,a1
    5e04:	00747593          	andi	a1,s0,7
    5e08:	00f8d733          	srl	a4,a7,a5
    5e0c:	c999                	beqz	a1,5e22 <__divdf3+0x4e8>
    5e0e:	4789                	li	a5,2
    5e10:	00196913          	ori	s2,s2,1
    5e14:	2efb0663          	beq	s6,a5,6100 <__divdf3+0x7c6>
    5e18:	478d                	li	a5,3
    5e1a:	2cfb0863          	beq	s6,a5,60ea <__divdf3+0x7b0>
    5e1e:	280b0563          	beqz	s6,60a8 <__divdf3+0x76e>
    5e22:	00871793          	slli	a5,a4,0x8
    5e26:	2207dd63          	bgez	a5,6060 <__divdf3+0x726>
    5e2a:	00196913          	ori	s2,s2,1
    5e2e:	4785                	li	a5,1
    5e30:	d60602e3          	beqz	a2,5b94 <__divdf3+0x25a>
    5e34:	4605                	li	a2,1
    5e36:	4781                	li	a5,0
    5e38:	4401                	li	s0,0
    5e3a:	00296913          	ori	s2,s2,2
    5e3e:	a081                	j	5e7e <__divdf3+0x544>
    5e40:	4785                	li	a5,1
    5e42:	8f91                	sub	a5,a5,a2
    5e44:	03800713          	li	a4,56
    5e48:	08f75c63          	bge	a4,a5,5ee0 <__divdf3+0x5a6>
    5e4c:	8c4d                	or	s0,s0,a1
    5e4e:	14041663          	bnez	s0,5f9a <__divdf3+0x660>
    5e52:	00296913          	ori	s2,s2,2
    5e56:	4601                	li	a2,0
    5e58:	4781                	li	a5,0
    5e5a:	a015                	j	5e7e <__divdf3+0x544>
    5e5c:	4789                	li	a5,2
    5e5e:	0cfb0c63          	beq	s6,a5,5f36 <__divdf3+0x5fc>
    5e62:	478d                	li	a5,3
    5e64:	06fb0063          	beq	s6,a5,5ec4 <__divdf3+0x58a>
    5e68:	060b0063          	beqz	s6,5ec8 <__divdf3+0x58e>
    5e6c:	00100437          	lui	s0,0x100
    5e70:	fff40793          	addi	a5,s0,-1 # fffff <_data_lma+0xf4c2b>
    5e74:	7fe00613          	li	a2,2046
    5e78:	547d                	li	s0,-1
    5e7a:	00596913          	ori	s2,s2,5
    5e7e:	00c79713          	slli	a4,a5,0xc
    5e82:	8331                	srli	a4,a4,0xc
    5e84:	01461793          	slli	a5,a2,0x14
    5e88:	06fe                	slli	a3,a3,0x1f
    5e8a:	8fd9                	or	a5,a5,a4
    5e8c:	8fd5                	or	a5,a5,a3
    5e8e:	8522                	mv	a0,s0
    5e90:	85be                	mv	a1,a5
    5e92:	00192073          	csrs	fflags,s2
    5e96:	b1a5                	j	5afe <__divdf3+0x1c4>
    5e98:	4501                	li	a0,0
    5e9a:	7ff805b7          	lui	a1,0x7ff80
    5e9e:	4941                	li	s2,16
    5ea0:	00192073          	csrs	fflags,s2
    5ea4:	b9a9                	j	5afe <__divdf3+0x1c4>
    5ea6:	ebe792e3          	bne	a5,t5,5d4a <__divdf3+0x410>
    5eaa:	c8070ae3          	beqz	a4,5b3e <__divdf3+0x204>
    5eae:	b561                	j	5d36 <__divdf3+0x3fc>
    5eb0:	f0f894e3          	bne	a7,a5,5db8 <__divdf3+0x47e>
    5eb4:	efdc7ee3          	bgeu	s8,t4,5db0 <__divdf3+0x476>
    5eb8:	842e                	mv	s0,a1
    5eba:	b3d1                	j	5c7e <__divdf3+0x344>
    5ebc:	853a                	mv	a0,a4
    5ebe:	b39d                	j	5c24 <__divdf3+0x2ea>
    5ec0:	842e                	mv	s0,a1
    5ec2:	bb1d                	j	5bf8 <__divdf3+0x2be>
    5ec4:	fa0814e3          	bnez	a6,5e6c <__divdf3+0x532>
    5ec8:	7ff00613          	li	a2,2047
    5ecc:	4781                	li	a5,0
    5ece:	4401                	li	s0,0
    5ed0:	b76d                	j	5e7a <__divdf3+0x540>
    5ed2:	4785                	li	a5,1
    5ed4:	8f91                	sub	a5,a5,a2
    5ed6:	03800713          	li	a4,56
    5eda:	0cf74063          	blt	a4,a5,5f9a <__divdf3+0x660>
    5ede:	55fd                	li	a1,-1
    5ee0:	477d                	li	a4,31
    5ee2:	22f75e63          	bge	a4,a5,611e <__divdf3+0x7e4>
    5ee6:	5705                	li	a4,-31
    5ee8:	8f11                	sub	a4,a4,a2
    5eea:	02000613          	li	a2,32
    5eee:	00e45733          	srl	a4,s0,a4
    5ef2:	00c78763          	beq	a5,a2,5f00 <__divdf3+0x5c6>
    5ef6:	43e98513          	addi	a0,s3,1086
    5efa:	00a41433          	sll	s0,s0,a0
    5efe:	8dc1                	or	a1,a1,s0
    5f00:	00b03433          	snez	s0,a1
    5f04:	8c59                	or	s0,s0,a4
    5f06:	00747793          	andi	a5,s0,7
    5f0a:	cb99                	beqz	a5,5f20 <__divdf3+0x5e6>
    5f0c:	4789                	li	a5,2
    5f0e:	00196913          	ori	s2,s2,1
    5f12:	1efb0563          	beq	s6,a5,60fc <__divdf3+0x7c2>
    5f16:	478d                	li	a5,3
    5f18:	1cfb0763          	beq	s6,a5,60e6 <__divdf3+0x7ac>
    5f1c:	180b0463          	beqz	s6,60a4 <__divdf3+0x76a>
    5f20:	800d                	srli	s0,s0,0x3
    5f22:	4781                	li	a5,0
    5f24:	00197613          	andi	a2,s2,1
    5f28:	4701                	li	a4,0
    5f2a:	bc0600e3          	beqz	a2,5aea <__divdf3+0x1b0>
    5f2e:	4601                	li	a2,0
    5f30:	00296913          	ori	s2,s2,2
    5f34:	b7a9                	j	5e7e <__divdf3+0x544>
    5f36:	f2080be3          	beqz	a6,5e6c <__divdf3+0x532>
    5f3a:	b779                	j	5ec8 <__divdf3+0x58e>
    5f3c:	e6ec7ee3          	bgeu	s8,a4,5db8 <__divdf3+0x47e>
    5f40:	9c76                	add	s8,s8,t4
    5f42:	01dc35b3          	sltu	a1,s8,t4
    5f46:	95c6                	add	a1,a1,a7
    5f48:	1479                	addi	s0,s0,-2
    5f4a:	97ae                	add	a5,a5,a1
    5f4c:	bb0d                	j	5c7e <__divdf3+0x344>
    5f4e:	08c05363          	blez	a2,5fd4 <__divdf3+0x69a>
    5f52:	4789                	li	a5,2
    5f54:	00196913          	ori	s2,s2,1
    5f58:	0afb0e63          	beq	s6,a5,6014 <__divdf3+0x6da>
    5f5c:	478d                	li	a5,3
    5f5e:	0afb0563          	beq	s6,a5,6008 <__divdf3+0x6ce>
    5f62:	0e0b0b63          	beqz	s6,6058 <__divdf3+0x71e>
    5f66:	200005b7          	lui	a1,0x20000
    5f6a:	15fd                	addi	a1,a1,-1
    5f6c:	b6cd                	j	5b4e <__divdf3+0x214>
    5f6e:	4789                	li	a5,2
    5f70:	00196913          	ori	s2,s2,1
    5f74:	0afb0163          	beq	s6,a5,6016 <__divdf3+0x6dc>
    5f78:	478d                	li	a5,3
    5f7a:	08fb0863          	beq	s6,a5,600a <__divdf3+0x6d0>
    5f7e:	bc0b16e3          	bnez	s6,5b4a <__divdf3+0x210>
    5f82:	00f5f793          	andi	a5,a1,15
    5f86:	4711                	li	a4,4
    5f88:	86c2                	mv	a3,a6
    5f8a:	16e79e63          	bne	a5,a4,6106 <__divdf3+0x7cc>
    5f8e:	818d                	srli	a1,a1,0x3
    5f90:	be7d                	j	5b4e <__divdf3+0x214>
    5f92:	85b6                	mv	a1,a3
    5f94:	b32d                	j	5cbe <__divdf3+0x384>
    5f96:	86ba                	mv	a3,a4
    5f98:	bb91                	j	5cec <__divdf3+0x3b2>
    5f9a:	4789                	li	a5,2
    5f9c:	00196913          	ori	s2,s2,1
    5fa0:	01003433          	snez	s0,a6
    5fa4:	eafb07e3          	beq	s6,a5,5e52 <__divdf3+0x518>
    5fa8:	478d                	li	a5,3
    5faa:	4401                	li	s0,0
    5fac:	eafb13e3          	bne	s6,a5,5e52 <__divdf3+0x518>
    5fb0:	00183413          	seqz	s0,a6
    5fb4:	bd79                	j	5e52 <__divdf3+0x518>
    5fb6:	001e9693          	slli	a3,t4,0x1
    5fba:	01d6beb3          	sltu	t4,a3,t4
    5fbe:	98f6                	add	a7,a7,t4
    5fc0:	97c6                	add	a5,a5,a7
    5fc2:	15f9                	addi	a1,a1,-2
    5fc4:	8eb6                	mv	t4,a3
    5fc6:	d9e792e3          	bne	a5,t5,5d4a <__divdf3+0x410>
    5fca:	b7d70ae3          	beq	a4,t4,5b3e <__divdf3+0x204>
    5fce:	0015e593          	ori	a1,a1,1
    5fd2:	b6b5                	j	5b3e <__divdf3+0x204>
    5fd4:	ee061fe3          	bnez	a2,5ed2 <__divdf3+0x598>
    5fd8:	4789                	li	a5,2
    5fda:	00196913          	ori	s2,s2,1
    5fde:	0efb0d63          	beq	s6,a5,60d8 <__divdf3+0x79e>
    5fe2:	478d                	li	a5,3
    5fe4:	0cfb0e63          	beq	s6,a5,60c0 <__divdf3+0x786>
    5fe8:	120b0763          	beqz	s6,6116 <__divdf3+0x7dc>
    5fec:	88a2                	mv	a7,s0
    5fee:	55fd                	li	a1,-1
    5ff0:	c0100993          	li	s3,-1023
    5ff4:	b3f5                	j	5de0 <__divdf3+0x4a6>
    5ff6:	86c2                	mv	a3,a6
    5ff8:	4701                	li	a4,0
    5ffa:	4781                	li	a5,0
    5ffc:	4401                	li	s0,0
    5ffe:	b4f5                	j	5aea <__divdf3+0x1b0>
    6000:	85b6                	mv	a1,a3
    6002:	fde784e3          	beq	a5,t5,5fca <__divdf3+0x690>
    6006:	b391                	j	5d4a <__divdf3+0x410>
    6008:	55fd                	li	a1,-1
    600a:	06080e63          	beqz	a6,6086 <__divdf3+0x74c>
    600e:	818d                	srli	a1,a1,0x3
    6010:	4685                	li	a3,1
    6012:	be35                	j	5b4e <__divdf3+0x214>
    6014:	55fd                	li	a1,-1
    6016:	04081f63          	bnez	a6,6074 <__divdf3+0x73a>
    601a:	818d                	srli	a1,a1,0x3
    601c:	4681                	li	a3,0
    601e:	be05                	j	5b4e <__divdf3+0x214>
    6020:	4789                	li	a5,2
    6022:	00196913          	ori	s2,s2,1
    6026:	0afb0d63          	beq	s6,a5,60e0 <__divdf3+0x7a6>
    602a:	478d                	li	a5,3
    602c:	08fb0d63          	beq	s6,a5,60c6 <__divdf3+0x78c>
    6030:	da0b18e3          	bnez	s6,5de0 <__divdf3+0x4a6>
    6034:	00f5f793          	andi	a5,a1,15
    6038:	4711                	li	a4,4
    603a:	dae783e3          	beq	a5,a4,5de0 <__divdf3+0x4a6>
    603e:	ffc5b793          	sltiu	a5,a1,-4
    6042:	0017c793          	xori	a5,a5,1
    6046:	88a2                	mv	a7,s0
    6048:	943e                	add	s0,s0,a5
    604a:	bb59                	j	5de0 <__divdf3+0x4a6>
    604c:	86c2                	mv	a3,a6
    604e:	7ff00713          	li	a4,2047
    6052:	4781                	li	a5,0
    6054:	4401                	li	s0,0
    6056:	bc51                	j	5aea <__divdf3+0x1b0>
    6058:	4785                	li	a5,1
    605a:	4581                	li	a1,0
    605c:	943e                	add	s0,s0,a5
    605e:	bcc5                	j	5b4e <__divdf3+0x214>
    6060:	00971793          	slli	a5,a4,0x9
    6064:	800d                	srli	s0,s0,0x3
    6066:	0776                	slli	a4,a4,0x1d
    6068:	83b1                	srli	a5,a5,0xc
    606a:	8c59                	or	s0,s0,a4
    606c:	ea061ce3          	bnez	a2,5f24 <__divdf3+0x5ea>
    6070:	4701                	li	a4,0
    6072:	bca5                	j	5aea <__divdf3+0x1b0>
    6074:	00858793          	addi	a5,a1,8 # 20000008 <_data_vma+0x8>
    6078:	00b7b5b3          	sltu	a1,a5,a1
    607c:	942e                	add	s0,s0,a1
    607e:	4685                	li	a3,1
    6080:	0037d593          	srli	a1,a5,0x3
    6084:	b4e9                	j	5b4e <__divdf3+0x214>
    6086:	00858793          	addi	a5,a1,8
    608a:	00b7b5b3          	sltu	a1,a5,a1
    608e:	942e                	add	s0,s0,a1
    6090:	4681                	li	a3,0
    6092:	0037d593          	srli	a1,a5,0x3
    6096:	bc65                	j	5b4e <__divdf3+0x214>
    6098:	f0eeefe3          	bltu	t4,a4,5fb6 <__divdf3+0x67c>
    609c:	85b6                	mv	a1,a3
    609e:	f3d718e3          	bne	a4,t4,5fce <__divdf3+0x694>
    60a2:	bc71                	j	5b3e <__divdf3+0x204>
    60a4:	4605                	li	a2,1
    60a6:	4701                	li	a4,0
    60a8:	00f47793          	andi	a5,s0,15
    60ac:	4591                	li	a1,4
    60ae:	d6b78ae3          	beq	a5,a1,5e22 <__divdf3+0x4e8>
    60b2:	00440793          	addi	a5,s0,4
    60b6:	0087b433          	sltu	s0,a5,s0
    60ba:	9722                	add	a4,a4,s0
    60bc:	843e                	mv	s0,a5
    60be:	b395                	j	5e22 <__divdf3+0x4e8>
    60c0:	55fd                	li	a1,-1
    60c2:	c0100993          	li	s3,-1023
    60c6:	88a2                	mv	a7,s0
    60c8:	d0081ce3          	bnez	a6,5de0 <__divdf3+0x4a6>
    60cc:	ff85b793          	sltiu	a5,a1,-8
    60d0:	0017c793          	xori	a5,a5,1
    60d4:	943e                	add	s0,s0,a5
    60d6:	b329                	j	5de0 <__divdf3+0x4a6>
    60d8:	88a2                	mv	a7,s0
    60da:	55fd                	li	a1,-1
    60dc:	c0100993          	li	s3,-1023
    60e0:	d00800e3          	beqz	a6,5de0 <__divdf3+0x4a6>
    60e4:	b7e5                	j	60cc <__divdf3+0x792>
    60e6:	4605                	li	a2,1
    60e8:	4701                	li	a4,0
    60ea:	d2081ce3          	bnez	a6,5e22 <__divdf3+0x4e8>
    60ee:	00840793          	addi	a5,s0,8
    60f2:	0087b433          	sltu	s0,a5,s0
    60f6:	9722                	add	a4,a4,s0
    60f8:	843e                	mv	s0,a5
    60fa:	b325                	j	5e22 <__divdf3+0x4e8>
    60fc:	4605                	li	a2,1
    60fe:	4701                	li	a4,0
    6100:	d20801e3          	beqz	a6,5e22 <__divdf3+0x4e8>
    6104:	b7ed                	j	60ee <__divdf3+0x7b4>
    6106:	ffc5b793          	sltiu	a5,a1,-4
    610a:	0017c793          	xori	a5,a5,1
    610e:	0591                	addi	a1,a1,4
    6110:	818d                	srli	a1,a1,0x3
    6112:	943e                	add	s0,s0,a5
    6114:	bc2d                	j	5b4e <__divdf3+0x214>
    6116:	55fd                	li	a1,-1
    6118:	c0100993          	li	s3,-1023
    611c:	b70d                	j	603e <__divdf3+0x704>
    611e:	88a2                	mv	a7,s0
    6120:	4605                	li	a2,1
    6122:	b1e9                	j	5dec <__divdf3+0x4b2>

00006124 <__eqdf2>:
__eqdf2():
    6124:	002027f3          	frrm	a5
    6128:	001007b7          	lui	a5,0x100
    612c:	0145d713          	srli	a4,a1,0x14
    6130:	17fd                	addi	a5,a5,-1
    6132:	0146d813          	srli	a6,a3,0x14
    6136:	7ff77713          	andi	a4,a4,2047
    613a:	7ff00893          	li	a7,2047
    613e:	00b7f333          	and	t1,a5,a1
    6142:	8eaa                	mv	t4,a0
    6144:	8ff5                	and	a5,a5,a3
    6146:	81fd                	srli	a1,a1,0x1f
    6148:	8e32                	mv	t3,a2
    614a:	7ff87813          	andi	a6,a6,2047
    614e:	82fd                	srli	a3,a3,0x1f
    6150:	01170c63          	beq	a4,a7,6168 <__eqdf2+0x44>
    6154:	01180663          	beq	a6,a7,6160 <__eqdf2+0x3c>
    6158:	4505                	li	a0,1
    615a:	01070f63          	beq	a4,a6,6178 <__eqdf2+0x54>
    615e:	8082                	ret
    6160:	8e5d                	or	a2,a2,a5
    6162:	e631                	bnez	a2,61ae <__eqdf2+0x8a>
    6164:	4505                	li	a0,1
    6166:	8082                	ret
    6168:	00a36533          	or	a0,t1,a0
    616c:	e50d                	bnez	a0,6196 <__eqdf2+0x72>
    616e:	fee81be3          	bne	a6,a4,6164 <__eqdf2+0x40>
    6172:	00c7e533          	or	a0,a5,a2
    6176:	ed05                	bnez	a0,61ae <__eqdf2+0x8a>
    6178:	4505                	li	a0,1
    617a:	fef312e3          	bne	t1,a5,615e <__eqdf2+0x3a>
    617e:	ffde10e3          	bne	t3,t4,615e <__eqdf2+0x3a>
    6182:	4501                	li	a0,0
    6184:	fcd58de3          	beq	a1,a3,615e <__eqdf2+0x3a>
    6188:	4505                	li	a0,1
    618a:	fb71                	bnez	a4,615e <__eqdf2+0x3a>
    618c:	00c36633          	or	a2,t1,a2
    6190:	00c03533          	snez	a0,a2
    6194:	8082                	ret
    6196:	00c31693          	slli	a3,t1,0xc
    619a:	0006c563          	bltz	a3,61a4 <__eqdf2+0x80>
    619e:	00186073          	csrsi	fflags,16
    61a2:	b7c9                	j	6164 <__eqdf2+0x40>
    61a4:	4505                	li	a0,1
    61a6:	fae81ce3          	bne	a6,a4,615e <__eqdf2+0x3a>
    61aa:	8e5d                	or	a2,a2,a5
    61ac:	da4d                	beqz	a2,615e <__eqdf2+0x3a>
    61ae:	00c79713          	slli	a4,a5,0xc
    61b2:	fa0749e3          	bltz	a4,6164 <__eqdf2+0x40>
    61b6:	00186073          	csrsi	fflags,16
    61ba:	b76d                	j	6164 <__eqdf2+0x40>

000061bc <__gedf2>:
__gtdf2():
    61bc:	002027f3          	frrm	a5
    61c0:	001007b7          	lui	a5,0x100
    61c4:	0145d713          	srli	a4,a1,0x14
    61c8:	17fd                	addi	a5,a5,-1
    61ca:	0146d813          	srli	a6,a3,0x14
    61ce:	7ff77713          	andi	a4,a4,2047
    61d2:	7ff00893          	li	a7,2047
    61d6:	00b7f333          	and	t1,a5,a1
    61da:	8e2a                	mv	t3,a0
    61dc:	8ff5                	and	a5,a5,a3
    61de:	81fd                	srli	a1,a1,0x1f
    61e0:	8eb2                	mv	t4,a2
    61e2:	7ff87813          	andi	a6,a6,2047
    61e6:	82fd                	srli	a3,a3,0x1f
    61e8:	03170a63          	beq	a4,a7,621c <__gedf2+0x60>
    61ec:	03180063          	beq	a6,a7,620c <__gedf2+0x50>
    61f0:	eb1d                	bnez	a4,6226 <__gedf2+0x6a>
    61f2:	00a368b3          	or	a7,t1,a0
    61f6:	00081463          	bnez	a6,61fe <__gedf2+0x42>
    61fa:	8e5d                	or	a2,a2,a5
    61fc:	ca39                	beqz	a2,6252 <__gedf2+0x96>
    61fe:	04088763          	beqz	a7,624c <__gedf2+0x90>
    6202:	02d58a63          	beq	a1,a3,6236 <__gedf2+0x7a>
    6206:	4505                	li	a0,1
    6208:	e1a1                	bnez	a1,6248 <__gedf2+0x8c>
    620a:	8082                	ret
    620c:	00c7e8b3          	or	a7,a5,a2
    6210:	fe0880e3          	beqz	a7,61f0 <__gedf2+0x34>
    6214:	00186073          	csrsi	fflags,16
    6218:	5579                	li	a0,-2
    621a:	8082                	ret
    621c:	00a36533          	or	a0,t1,a0
    6220:	f975                	bnez	a0,6214 <__gedf2+0x58>
    6222:	02e80c63          	beq	a6,a4,625a <__gedf2+0x9e>
    6226:	00081463          	bnez	a6,622e <__gedf2+0x72>
    622a:	8e5d                	or	a2,a2,a5
    622c:	de69                	beqz	a2,6206 <__gedf2+0x4a>
    622e:	fcd59ce3          	bne	a1,a3,6206 <__gedf2+0x4a>
    6232:	fce84ae3          	blt	a6,a4,6206 <__gedf2+0x4a>
    6236:	01074863          	blt	a4,a6,6246 <__gedf2+0x8a>
    623a:	fc67e6e3          	bltu	a5,t1,6206 <__gedf2+0x4a>
    623e:	02f30363          	beq	t1,a5,6264 <__gedf2+0xa8>
    6242:	00f37f63          	bgeu	t1,a5,6260 <__gedf2+0xa4>
    6246:	e581                	bnez	a1,624e <__gedf2+0x92>
    6248:	557d                	li	a0,-1
    624a:	8082                	ret
    624c:	def5                	beqz	a3,6248 <__gedf2+0x8c>
    624e:	4505                	li	a0,1
    6250:	8082                	ret
    6252:	4501                	li	a0,0
    6254:	fa0899e3          	bnez	a7,6206 <__gedf2+0x4a>
    6258:	8082                	ret
    625a:	8e5d                	or	a2,a2,a5
    625c:	da69                	beqz	a2,622e <__gedf2+0x72>
    625e:	bf5d                	j	6214 <__gedf2+0x58>
    6260:	4501                	li	a0,0
    6262:	8082                	ret
    6264:	fbcee1e3          	bltu	t4,t3,6206 <__gedf2+0x4a>
    6268:	4501                	li	a0,0
    626a:	fbde70e3          	bgeu	t3,t4,620a <__gedf2+0x4e>
    626e:	f1e5                	bnez	a1,624e <__gedf2+0x92>
    6270:	bfe1                	j	6248 <__gedf2+0x8c>

00006272 <__ledf2>:
__ltdf2():
    6272:	002027f3          	frrm	a5
    6276:	001007b7          	lui	a5,0x100
    627a:	0145d713          	srli	a4,a1,0x14
    627e:	17fd                	addi	a5,a5,-1
    6280:	0146d813          	srli	a6,a3,0x14
    6284:	7ff77713          	andi	a4,a4,2047
    6288:	7ff00893          	li	a7,2047
    628c:	00b7f333          	and	t1,a5,a1
    6290:	8e2a                	mv	t3,a0
    6292:	8ff5                	and	a5,a5,a3
    6294:	81fd                	srli	a1,a1,0x1f
    6296:	8eb2                	mv	t4,a2
    6298:	7ff87813          	andi	a6,a6,2047
    629c:	82fd                	srli	a3,a3,0x1f
    629e:	03170f63          	beq	a4,a7,62dc <__ledf2+0x6a>
    62a2:	01180d63          	beq	a6,a7,62bc <__ledf2+0x4a>
    62a6:	e321                	bnez	a4,62e6 <__ledf2+0x74>
    62a8:	00a368b3          	or	a7,t1,a0
    62ac:	02081063          	bnez	a6,62cc <__ledf2+0x5a>
    62b0:	8e5d                	or	a2,a2,a5
    62b2:	ee09                	bnez	a2,62cc <__ledf2+0x5a>
    62b4:	4501                	li	a0,0
    62b6:	00089f63          	bnez	a7,62d4 <__ledf2+0x62>
    62ba:	8082                	ret
    62bc:	00c7e8b3          	or	a7,a5,a2
    62c0:	fe0883e3          	beqz	a7,62a6 <__ledf2+0x34>
    62c4:	00186073          	csrsi	fflags,16
    62c8:	4509                	li	a0,2
    62ca:	8082                	ret
    62cc:	02088f63          	beqz	a7,630a <__ledf2+0x98>
    62d0:	02d58363          	beq	a1,a3,62f6 <__ledf2+0x84>
    62d4:	4505                	li	a0,1
    62d6:	d1f5                	beqz	a1,62ba <__ledf2+0x48>
    62d8:	557d                	li	a0,-1
    62da:	8082                	ret
    62dc:	00a36533          	or	a0,t1,a0
    62e0:	f175                	bnez	a0,62c4 <__ledf2+0x52>
    62e2:	02e80763          	beq	a6,a4,6310 <__ledf2+0x9e>
    62e6:	00081463          	bnez	a6,62ee <__ledf2+0x7c>
    62ea:	8e5d                	or	a2,a2,a5
    62ec:	d665                	beqz	a2,62d4 <__ledf2+0x62>
    62ee:	fed593e3          	bne	a1,a3,62d4 <__ledf2+0x62>
    62f2:	fee841e3          	blt	a6,a4,62d4 <__ledf2+0x62>
    62f6:	01074863          	blt	a4,a6,6306 <__ledf2+0x94>
    62fa:	fc67ede3          	bltu	a5,t1,62d4 <__ledf2+0x62>
    62fe:	00f30e63          	beq	t1,a5,631a <__ledf2+0xa8>
    6302:	00f37a63          	bgeu	t1,a5,6316 <__ledf2+0xa4>
    6306:	e199                	bnez	a1,630c <__ledf2+0x9a>
    6308:	bfc1                	j	62d8 <__ledf2+0x66>
    630a:	d6f9                	beqz	a3,62d8 <__ledf2+0x66>
    630c:	4505                	li	a0,1
    630e:	8082                	ret
    6310:	8e5d                	or	a2,a2,a5
    6312:	de71                	beqz	a2,62ee <__ledf2+0x7c>
    6314:	bf45                	j	62c4 <__ledf2+0x52>
    6316:	4501                	li	a0,0
    6318:	8082                	ret
    631a:	fbceede3          	bltu	t4,t3,62d4 <__ledf2+0x62>
    631e:	4501                	li	a0,0
    6320:	f9de7de3          	bgeu	t3,t4,62ba <__ledf2+0x48>
    6324:	f5e5                	bnez	a1,630c <__ledf2+0x9a>
    6326:	bf4d                	j	62d8 <__ledf2+0x66>

00006328 <__muldf3>:
__muldf3():
    6328:	7139                	addi	sp,sp,-64
    632a:	d452                	sw	s4,40(sp)
    632c:	de06                	sw	ra,60(sp)
    632e:	dc22                	sw	s0,56(sp)
    6330:	da26                	sw	s1,52(sp)
    6332:	d84a                	sw	s2,48(sp)
    6334:	d64e                	sw	s3,44(sp)
    6336:	d256                	sw	s5,36(sp)
    6338:	d05a                	sw	s6,32(sp)
    633a:	ce5e                	sw	s7,28(sp)
    633c:	cc62                	sw	s8,24(sp)
    633e:	ca66                	sw	s9,20(sp)
    6340:	8a2a                	mv	s4,a0
    6342:	00202b73          	frrm	s6
    6346:	0145d913          	srli	s2,a1,0x14
    634a:	00c59993          	slli	s3,a1,0xc
    634e:	7ff97913          	andi	s2,s2,2047
    6352:	00c9d993          	srli	s3,s3,0xc
    6356:	01f5db93          	srli	s7,a1,0x1f
    635a:	12090e63          	beqz	s2,6496 <__muldf3+0x16e>
    635e:	7ff00793          	li	a5,2047
    6362:	16f90d63          	beq	s2,a5,64dc <__muldf3+0x1b4>
    6366:	01d55413          	srli	s0,a0,0x1d
    636a:	098e                	slli	s3,s3,0x3
    636c:	013469b3          	or	s3,s0,s3
    6370:	00800437          	lui	s0,0x800
    6374:	0089e433          	or	s0,s3,s0
    6378:	00351493          	slli	s1,a0,0x3
    637c:	c0190913          	addi	s2,s2,-1023
    6380:	4a01                	li	s4,0
    6382:	4c81                	li	s9,0
    6384:	4a81                	li	s5,0
    6386:	0146d793          	srli	a5,a3,0x14
    638a:	00c69993          	slli	s3,a3,0xc
    638e:	7ff7f793          	andi	a5,a5,2047
    6392:	85b2                	mv	a1,a2
    6394:	00c9d993          	srli	s3,s3,0xc
    6398:	01f6dc13          	srli	s8,a3,0x1f
    639c:	cfd5                	beqz	a5,6458 <__muldf3+0x130>
    639e:	7ff00713          	li	a4,2047
    63a2:	04e78463          	beq	a5,a4,63ea <__muldf3+0xc2>
    63a6:	00399513          	slli	a0,s3,0x3
    63aa:	01d65993          	srli	s3,a2,0x1d
    63ae:	00a9e9b3          	or	s3,s3,a0
    63b2:	c0178793          	addi	a5,a5,-1023 # ffc01 <_data_lma+0xf482d>
    63b6:	00800537          	lui	a0,0x800
    63ba:	00a9e9b3          	or	s3,s3,a0
    63be:	00361593          	slli	a1,a2,0x3
    63c2:	993e                	add	s2,s2,a5
    63c4:	4801                	li	a6,0
    63c6:	018bc633          	xor	a2,s7,s8
    63ca:	47bd                	li	a5,15
    63cc:	86b2                	mv	a3,a2
    63ce:	00190713          	addi	a4,s2,1
    63d2:	1747ef63          	bltu	a5,s4,6550 <__muldf3+0x228>
    63d6:	00005517          	auipc	a0,0x5
    63da:	b9a50513          	addi	a0,a0,-1126 # af70 <MyUSBQUADescHD+0x108>
    63de:	0a0a                	slli	s4,s4,0x2
    63e0:	9a2a                	add	s4,s4,a0
    63e2:	000a2783          	lw	a5,0(s4)
    63e6:	97aa                	add	a5,a5,a0
    63e8:	8782                	jr	a5
    63ea:	00c9e633          	or	a2,s3,a2
    63ee:	7ff90913          	addi	s2,s2,2047
    63f2:	12060863          	beqz	a2,6522 <__muldf3+0x1fa>
    63f6:	00c99793          	slli	a5,s3,0xc
    63fa:	003a6a13          	ori	s4,s4,3
    63fe:	480d                	li	a6,3
    6400:	fc07c3e3          	bltz	a5,63c6 <__muldf3+0x9e>
    6404:	4ac1                	li	s5,16
    6406:	b7c1                	j	63c6 <__muldf3+0x9e>
    6408:	86e2                	mv	a3,s8
    640a:	844e                	mv	s0,s3
    640c:	84ae                	mv	s1,a1
    640e:	8cc2                	mv	s9,a6
    6410:	4789                	li	a5,2
    6412:	12fc8963          	beq	s9,a5,6544 <__muldf3+0x21c>
    6416:	478d                	li	a5,3
    6418:	10fc8b63          	beq	s9,a5,652e <__muldf3+0x206>
    641c:	4785                	li	a5,1
    641e:	8636                	mv	a2,a3
    6420:	4cfc9263          	bne	s9,a5,68e4 <__muldf3+0x5bc>
    6424:	4701                	li	a4,0
    6426:	4781                	li	a5,0
    6428:	4401                	li	s0,0
    642a:	07b2                	slli	a5,a5,0xc
    642c:	0752                	slli	a4,a4,0x14
    642e:	83b1                	srli	a5,a5,0xc
    6430:	067e                	slli	a2,a2,0x1f
    6432:	8fd9                	or	a5,a5,a4
    6434:	8fd1                	or	a5,a5,a2
    6436:	8522                	mv	a0,s0
    6438:	85be                	mv	a1,a5
    643a:	340a9963          	bnez	s5,678c <__muldf3+0x464>
    643e:	50f2                	lw	ra,60(sp)
    6440:	5462                	lw	s0,56(sp)
    6442:	54d2                	lw	s1,52(sp)
    6444:	5942                	lw	s2,48(sp)
    6446:	59b2                	lw	s3,44(sp)
    6448:	5a22                	lw	s4,40(sp)
    644a:	5a92                	lw	s5,36(sp)
    644c:	5b02                	lw	s6,32(sp)
    644e:	4bf2                	lw	s7,28(sp)
    6450:	4c62                	lw	s8,24(sp)
    6452:	4cd2                	lw	s9,20(sp)
    6454:	6121                	addi	sp,sp,64
    6456:	8082                	ret
    6458:	00c9e7b3          	or	a5,s3,a2
    645c:	cfcd                	beqz	a5,6516 <__muldf3+0x1ee>
    645e:	34098a63          	beqz	s3,67b2 <__muldf3+0x48a>
    6462:	854e                	mv	a0,s3
    6464:	c432                	sw	a2,8(sp)
    6466:	1ce010ef          	jal	ra,7634 <__clzsi2>
    646a:	4622                	lw	a2,8(sp)
    646c:	87aa                	mv	a5,a0
    646e:	ff550693          	addi	a3,a0,-11
    6472:	4775                	li	a4,29
    6474:	ff878593          	addi	a1,a5,-8
    6478:	8f15                	sub	a4,a4,a3
    647a:	00b999b3          	sll	s3,s3,a1
    647e:	00e65733          	srl	a4,a2,a4
    6482:	013769b3          	or	s3,a4,s3
    6486:	00b615b3          	sll	a1,a2,a1
    648a:	40f90933          	sub	s2,s2,a5
    648e:	c0d90913          	addi	s2,s2,-1011
    6492:	4801                	li	a6,0
    6494:	bf0d                	j	63c6 <__muldf3+0x9e>
    6496:	00a9e433          	or	s0,s3,a0
    649a:	c825                	beqz	s0,650a <__muldf3+0x1e2>
    649c:	c636                	sw	a3,12(sp)
    649e:	c432                	sw	a2,8(sp)
    64a0:	2e098963          	beqz	s3,6792 <__muldf3+0x46a>
    64a4:	854e                	mv	a0,s3
    64a6:	18e010ef          	jal	ra,7634 <__clzsi2>
    64aa:	4622                	lw	a2,8(sp)
    64ac:	46b2                	lw	a3,12(sp)
    64ae:	87aa                	mv	a5,a0
    64b0:	ff550713          	addi	a4,a0,-11
    64b4:	4475                	li	s0,29
    64b6:	ff878493          	addi	s1,a5,-8
    64ba:	8c19                	sub	s0,s0,a4
    64bc:	009999b3          	sll	s3,s3,s1
    64c0:	008a5433          	srl	s0,s4,s0
    64c4:	01346433          	or	s0,s0,s3
    64c8:	009a14b3          	sll	s1,s4,s1
    64cc:	c0d00913          	li	s2,-1011
    64d0:	40f90933          	sub	s2,s2,a5
    64d4:	4a01                	li	s4,0
    64d6:	4c81                	li	s9,0
    64d8:	4a81                	li	s5,0
    64da:	b575                	j	6386 <__muldf3+0x5e>
    64dc:	00a9e433          	or	s0,s3,a0
    64e0:	cc11                	beqz	s0,64fc <__muldf3+0x1d4>
    64e2:	00c99793          	slli	a5,s3,0xc
    64e6:	84aa                	mv	s1,a0
    64e8:	844e                	mv	s0,s3
    64ea:	4a31                	li	s4,12
    64ec:	7ff00913          	li	s2,2047
    64f0:	4c8d                	li	s9,3
    64f2:	4ac1                	li	s5,16
    64f4:	e807d9e3          	bgez	a5,6386 <__muldf3+0x5e>
    64f8:	4a81                	li	s5,0
    64fa:	b571                	j	6386 <__muldf3+0x5e>
    64fc:	4a21                	li	s4,8
    64fe:	4481                	li	s1,0
    6500:	7ff00913          	li	s2,2047
    6504:	4c89                	li	s9,2
    6506:	4a81                	li	s5,0
    6508:	bdbd                	j	6386 <__muldf3+0x5e>
    650a:	4a11                	li	s4,4
    650c:	4481                	li	s1,0
    650e:	4901                	li	s2,0
    6510:	4c85                	li	s9,1
    6512:	4a81                	li	s5,0
    6514:	bd8d                	j	6386 <__muldf3+0x5e>
    6516:	001a6a13          	ori	s4,s4,1
    651a:	4981                	li	s3,0
    651c:	4581                	li	a1,0
    651e:	4805                	li	a6,1
    6520:	b55d                	j	63c6 <__muldf3+0x9e>
    6522:	002a6a13          	ori	s4,s4,2
    6526:	4981                	li	s3,0
    6528:	4581                	li	a1,0
    652a:	4809                	li	a6,2
    652c:	bd69                	j	63c6 <__muldf3+0x9e>
    652e:	4601                	li	a2,0
    6530:	7ff00713          	li	a4,2047
    6534:	000807b7          	lui	a5,0x80
    6538:	4401                	li	s0,0
    653a:	bdc5                	j	642a <__muldf3+0x102>
    653c:	4789                	li	a5,2
    653e:	86de                	mv	a3,s7
    6540:	ecfc9be3          	bne	s9,a5,6416 <__muldf3+0xee>
    6544:	8636                	mv	a2,a3
    6546:	7ff00713          	li	a4,2047
    654a:	4781                	li	a5,0
    654c:	4401                	li	s0,0
    654e:	bdf1                	j	642a <__muldf3+0x102>
    6550:	6341                	lui	t1,0x10
    6552:	fff30793          	addi	a5,t1,-1 # ffff <_data_lma+0x4c2b>
    6556:	0104d513          	srli	a0,s1,0x10
    655a:	0105de13          	srli	t3,a1,0x10
    655e:	8cfd                	and	s1,s1,a5
    6560:	8dfd                	and	a1,a1,a5
    6562:	029587b3          	mul	a5,a1,s1
    6566:	02b508b3          	mul	a7,a0,a1
    656a:	0107d393          	srli	t2,a5,0x10
    656e:	029e0833          	mul	a6,t3,s1
    6572:	9846                	add	a6,a6,a7
    6574:	93c2                	add	t2,t2,a6
    6576:	03c50833          	mul	a6,a0,t3
    657a:	0113f363          	bgeu	t2,a7,6580 <__muldf3+0x258>
    657e:	981a                	add	a6,a6,t1
    6580:	6341                	lui	t1,0x10
    6582:	fff30e93          	addi	t4,t1,-1 # ffff <_data_lma+0x4c2b>
    6586:	0109d293          	srli	t0,s3,0x10
    658a:	01d9f9b3          	and	s3,s3,t4
    658e:	01d3f8b3          	and	a7,t2,t4
    6592:	01d7f7b3          	and	a5,a5,t4
    6596:	08c2                	slli	a7,a7,0x10
    6598:	03348eb3          	mul	t4,s1,s3
    659c:	98be                	add	a7,a7,a5
    659e:	0103d393          	srli	t2,t2,0x10
    65a2:	03350fb3          	mul	t6,a0,s3
    65a6:	010edf13          	srli	t5,t4,0x10
    65aa:	029284b3          	mul	s1,t0,s1
    65ae:	94fe                	add	s1,s1,t6
    65b0:	94fa                	add	s1,s1,t5
    65b2:	025507b3          	mul	a5,a0,t0
    65b6:	01f4f363          	bgeu	s1,t6,65bc <__muldf3+0x294>
    65ba:	979a                	add	a5,a5,t1
    65bc:	6341                	lui	t1,0x10
    65be:	fff30b93          	addi	s7,t1,-1 # ffff <_data_lma+0x4c2b>
    65c2:	01045a13          	srli	s4,s0,0x10
    65c6:	01747533          	and	a0,s0,s7
    65ca:	0174ffb3          	and	t6,s1,s7
    65ce:	80c1                	srli	s1,s1,0x10
    65d0:	00f48f33          	add	t5,s1,a5
    65d4:	02a58433          	mul	s0,a1,a0
    65d8:	017efeb3          	and	t4,t4,s7
    65dc:	0fc2                	slli	t6,t6,0x10
    65de:	9ff6                	add	t6,t6,t4
    65e0:	93fe                	add	t2,t2,t6
    65e2:	02ae07b3          	mul	a5,t3,a0
    65e6:	01045e93          	srli	t4,s0,0x10
    65ea:	02ba05b3          	mul	a1,s4,a1
    65ee:	97ae                	add	a5,a5,a1
    65f0:	9ebe                	add	t4,t4,a5
    65f2:	034e0e33          	mul	t3,t3,s4
    65f6:	00bef363          	bgeu	t4,a1,65fc <__muldf3+0x2d4>
    65fa:	9e1a                	add	t3,t3,t1
    65fc:	67c1                	lui	a5,0x10
    65fe:	fff78593          	addi	a1,a5,-1 # ffff <_data_lma+0x4c2b>
    6602:	00bef333          	and	t1,t4,a1
    6606:	8c6d                	and	s0,s0,a1
    6608:	0342                	slli	t1,t1,0x10
    660a:	9322                	add	t1,t1,s0
    660c:	010ede93          	srli	t4,t4,0x10
    6610:	033505b3          	mul	a1,a0,s3
    6614:	9e76                	add	t3,t3,t4
    6616:	02a28533          	mul	a0,t0,a0
    661a:	0105d413          	srli	s0,a1,0x10
    661e:	033a09b3          	mul	s3,s4,s3
    6622:	954e                	add	a0,a0,s3
    6624:	9522                	add	a0,a0,s0
    6626:	034282b3          	mul	t0,t0,s4
    662a:	01357363          	bgeu	a0,s3,6630 <__muldf3+0x308>
    662e:	92be                	add	t0,t0,a5
    6630:	6ec1                	lui	t4,0x10
    6632:	1efd                	addi	t4,t4,-1
    6634:	01d577b3          	and	a5,a0,t4
    6638:	07c2                	slli	a5,a5,0x10
    663a:	01d5feb3          	and	t4,a1,t4
    663e:	97f6                	add	a5,a5,t4
    6640:	007805b3          	add	a1,a6,t2
    6644:	01f5bfb3          	sltu	t6,a1,t6
    6648:	97fa                	add	a5,a5,t5
    664a:	959a                	add	a1,a1,t1
    664c:	01f78433          	add	s0,a5,t6
    6650:	0065b833          	sltu	a6,a1,t1
    6654:	01c40eb3          	add	t4,s0,t3
    6658:	010e8333          	add	t1,t4,a6
    665c:	01f43433          	sltu	s0,s0,t6
    6660:	01e7b7b3          	sltu	a5,a5,t5
    6664:	8fc1                	or	a5,a5,s0
    6666:	01033833          	sltu	a6,t1,a6
    666a:	01055413          	srli	s0,a0,0x10
    666e:	01cebe33          	sltu	t3,t4,t3
    6672:	943e                	add	s0,s0,a5
    6674:	010e6833          	or	a6,t3,a6
    6678:	9442                	add	s0,s0,a6
    667a:	00959493          	slli	s1,a1,0x9
    667e:	9416                	add	s0,s0,t0
    6680:	01735513          	srli	a0,t1,0x17
    6684:	0114e4b3          	or	s1,s1,a7
    6688:	0426                	slli	s0,s0,0x9
    668a:	009034b3          	snez	s1,s1
    668e:	81dd                	srli	a1,a1,0x17
    6690:	8c49                	or	s0,s0,a0
    6692:	8ccd                	or	s1,s1,a1
    6694:	0326                	slli	t1,t1,0x9
    6696:	00741793          	slli	a5,s0,0x7
    669a:	0064e4b3          	or	s1,s1,t1
    669e:	0007db63          	bgez	a5,66b4 <__muldf3+0x38c>
    66a2:	0014d793          	srli	a5,s1,0x1
    66a6:	8885                	andi	s1,s1,1
    66a8:	01f41593          	slli	a1,s0,0x1f
    66ac:	8cdd                	or	s1,s1,a5
    66ae:	8ccd                	or	s1,s1,a1
    66b0:	8005                	srli	s0,s0,0x1
    66b2:	893a                	mv	s2,a4
    66b4:	3ff90713          	addi	a4,s2,1023
    66b8:	04e05963          	blez	a4,670a <__muldf3+0x3e2>
    66bc:	0074f793          	andi	a5,s1,7
    66c0:	cb99                	beqz	a5,66d6 <__muldf3+0x3ae>
    66c2:	4789                	li	a5,2
    66c4:	001aea93          	ori	s5,s5,1
    66c8:	20fb0b63          	beq	s6,a5,68de <__muldf3+0x5b6>
    66cc:	478d                	li	a5,3
    66ce:	1efb0d63          	beq	s6,a5,68c8 <__muldf3+0x5a0>
    66d2:	1c0b0f63          	beqz	s6,68b0 <__muldf3+0x588>
    66d6:	00741793          	slli	a5,s0,0x7
    66da:	0007d863          	bgez	a5,66ea <__muldf3+0x3c2>
    66de:	ff0007b7          	lui	a5,0xff000
    66e2:	17fd                	addi	a5,a5,-1
    66e4:	8c7d                	and	s0,s0,a5
    66e6:	40090713          	addi	a4,s2,1024
    66ea:	7fe00793          	li	a5,2046
    66ee:	10e7c963          	blt	a5,a4,6800 <__muldf3+0x4d8>
    66f2:	0034d693          	srli	a3,s1,0x3
    66f6:	00941793          	slli	a5,s0,0x9
    66fa:	01d41493          	slli	s1,s0,0x1d
    66fe:	00d4e433          	or	s0,s1,a3
    6702:	83b1                	srli	a5,a5,0xc
    6704:	7ff77713          	andi	a4,a4,2047
    6708:	b30d                	j	642a <__muldf3+0x102>
    670a:	4785                	li	a5,1
    670c:	8f99                	sub	a5,a5,a4
    670e:	e379                	bnez	a4,67d4 <__muldf3+0x4ac>
    6710:	0074f593          	andi	a1,s1,7
    6714:	8722                	mv	a4,s0
    6716:	cd81                	beqz	a1,672e <__muldf3+0x406>
    6718:	4709                	li	a4,2
    671a:	001aea93          	ori	s5,s5,1
    671e:	20eb0963          	beq	s6,a4,6930 <__muldf3+0x608>
    6722:	470d                	li	a4,3
    6724:	1eeb0d63          	beq	s6,a4,691e <__muldf3+0x5f6>
    6728:	8722                	mv	a4,s0
    672a:	1c0b0f63          	beqz	s6,6908 <__muldf3+0x5e0>
    672e:	8361                	srli	a4,a4,0x18
    6730:	00174713          	xori	a4,a4,1
    6734:	00177593          	andi	a1,a4,1
    6738:	41e90913          	addi	s2,s2,1054
    673c:	01249733          	sll	a4,s1,s2
    6740:	01241933          	sll	s2,s0,s2
    6744:	00f4d4b3          	srl	s1,s1,a5
    6748:	00e03733          	snez	a4,a4
    674c:	009964b3          	or	s1,s2,s1
    6750:	8cd9                	or	s1,s1,a4
    6752:	0074f513          	andi	a0,s1,7
    6756:	00f45733          	srl	a4,s0,a5
    675a:	c919                	beqz	a0,6770 <__muldf3+0x448>
    675c:	4789                	li	a5,2
    675e:	001aea93          	ori	s5,s5,1
    6762:	1efb0863          	beq	s6,a5,6952 <__muldf3+0x62a>
    6766:	478d                	li	a5,3
    6768:	1cfb0a63          	beq	s6,a5,693c <__muldf3+0x614>
    676c:	1e0b0863          	beqz	s6,695c <__muldf3+0x634>
    6770:	00871793          	slli	a5,a4,0x8
    6774:	1807d063          	bgez	a5,68f4 <__muldf3+0x5cc>
    6778:	001aea93          	ori	s5,s5,1
    677c:	16059663          	bnez	a1,68e8 <__muldf3+0x5c0>
    6780:	067e                	slli	a2,a2,0x1f
    6782:	001007b7          	lui	a5,0x100
    6786:	8fd1                	or	a5,a5,a2
    6788:	4501                	li	a0,0
    678a:	85be                	mv	a1,a5
    678c:	001aa073          	csrs	fflags,s5
    6790:	b17d                	j	643e <__muldf3+0x116>
    6792:	6a3000ef          	jal	ra,7634 <__clzsi2>
    6796:	01550713          	addi	a4,a0,21
    679a:	45f1                	li	a1,28
    679c:	02050793          	addi	a5,a0,32
    67a0:	4622                	lw	a2,8(sp)
    67a2:	46b2                	lw	a3,12(sp)
    67a4:	d0e5d8e3          	bge	a1,a4,64b4 <__muldf3+0x18c>
    67a8:	1561                	addi	a0,a0,-8
    67aa:	00aa1433          	sll	s0,s4,a0
    67ae:	4481                	li	s1,0
    67b0:	bb31                	j	64cc <__muldf3+0x1a4>
    67b2:	8532                	mv	a0,a2
    67b4:	c432                	sw	a2,8(sp)
    67b6:	67f000ef          	jal	ra,7634 <__clzsi2>
    67ba:	01550693          	addi	a3,a0,21
    67be:	4771                	li	a4,28
    67c0:	02050793          	addi	a5,a0,32
    67c4:	4622                	lw	a2,8(sp)
    67c6:	cad756e3          	bge	a4,a3,6472 <__muldf3+0x14a>
    67ca:	1561                	addi	a0,a0,-8
    67cc:	4581                	li	a1,0
    67ce:	00a619b3          	sll	s3,a2,a0
    67d2:	b965                	j	648a <__muldf3+0x162>
    67d4:	03800593          	li	a1,56
    67d8:	06f5d963          	bge	a1,a5,684a <__muldf3+0x522>
    67dc:	8c45                	or	s0,s0,s1
    67de:	cc01                	beqz	s0,67f6 <__muldf3+0x4ce>
    67e0:	4789                	li	a5,2
    67e2:	001aea93          	ori	s5,s5,1
    67e6:	00d03433          	snez	s0,a3
    67ea:	00fb0663          	beq	s6,a5,67f6 <__muldf3+0x4ce>
    67ee:	478d                	li	a5,3
    67f0:	4401                	li	s0,0
    67f2:	18fb0163          	beq	s6,a5,6974 <__muldf3+0x64c>
    67f6:	002aea93          	ori	s5,s5,2
    67fa:	4681                	li	a3,0
    67fc:	4781                	li	a5,0
    67fe:	a015                	j	6822 <__muldf3+0x4fa>
    6800:	4789                	li	a5,2
    6802:	0cfb0c63          	beq	s6,a5,68da <__muldf3+0x5b2>
    6806:	478d                	li	a5,3
    6808:	08fb0e63          	beq	s6,a5,68a4 <__muldf3+0x57c>
    680c:	080b0d63          	beqz	s6,68a6 <__muldf3+0x57e>
    6810:	00100437          	lui	s0,0x100
    6814:	fff40793          	addi	a5,s0,-1 # fffff <_data_lma+0xf4c2b>
    6818:	7fe00693          	li	a3,2046
    681c:	547d                	li	s0,-1
    681e:	005aea93          	ori	s5,s5,5
    6822:	00c79713          	slli	a4,a5,0xc
    6826:	8331                	srli	a4,a4,0xc
    6828:	01469793          	slli	a5,a3,0x14
    682c:	067e                	slli	a2,a2,0x1f
    682e:	8fd9                	or	a5,a5,a4
    6830:	8fd1                	or	a5,a5,a2
    6832:	8522                	mv	a0,s0
    6834:	85be                	mv	a1,a5
    6836:	001aa073          	csrs	fflags,s5
    683a:	b111                	j	643e <__muldf3+0x116>
    683c:	4501                	li	a0,0
    683e:	7ff805b7          	lui	a1,0x7ff80
    6842:	4ac1                	li	s5,16
    6844:	001aa073          	csrs	fflags,s5
    6848:	bedd                	j	643e <__muldf3+0x116>
    684a:	45fd                	li	a1,31
    684c:	12f5d763          	bge	a1,a5,697a <__muldf3+0x652>
    6850:	5585                	li	a1,-31
    6852:	40e58733          	sub	a4,a1,a4
    6856:	02000593          	li	a1,32
    685a:	00e45733          	srl	a4,s0,a4
    685e:	00b78763          	beq	a5,a1,686c <__muldf3+0x544>
    6862:	43e90913          	addi	s2,s2,1086
    6866:	01241433          	sll	s0,s0,s2
    686a:	8cc1                	or	s1,s1,s0
    686c:	009034b3          	snez	s1,s1
    6870:	8cd9                	or	s1,s1,a4
    6872:	0074f793          	andi	a5,s1,7
    6876:	cb99                	beqz	a5,688c <__muldf3+0x564>
    6878:	4789                	li	a5,2
    687a:	001aea93          	ori	s5,s5,1
    687e:	0cfb0863          	beq	s6,a5,694e <__muldf3+0x626>
    6882:	478d                	li	a5,3
    6884:	0afb0a63          	beq	s6,a5,6938 <__muldf3+0x610>
    6888:	0c0b0863          	beqz	s6,6958 <__muldf3+0x630>
    688c:	0034d413          	srli	s0,s1,0x3
    6890:	4781                	li	a5,0
    6892:	001af693          	andi	a3,s5,1
    6896:	4701                	li	a4,0
    6898:	b80689e3          	beqz	a3,642a <__muldf3+0x102>
    689c:	4681                	li	a3,0
    689e:	002aea93          	ori	s5,s5,2
    68a2:	b741                	j	6822 <__muldf3+0x4fa>
    68a4:	f6b5                	bnez	a3,6810 <__muldf3+0x4e8>
    68a6:	7ff00693          	li	a3,2047
    68aa:	4781                	li	a5,0
    68ac:	4401                	li	s0,0
    68ae:	bf85                	j	681e <__muldf3+0x4f6>
    68b0:	00f4f793          	andi	a5,s1,15
    68b4:	4591                	li	a1,4
    68b6:	e2b780e3          	beq	a5,a1,66d6 <__muldf3+0x3ae>
    68ba:	00448793          	addi	a5,s1,4
    68be:	0097b4b3          	sltu	s1,a5,s1
    68c2:	9426                	add	s0,s0,s1
    68c4:	84be                	mv	s1,a5
    68c6:	bd01                	j	66d6 <__muldf3+0x3ae>
    68c8:	e00697e3          	bnez	a3,66d6 <__muldf3+0x3ae>
    68cc:	00848793          	addi	a5,s1,8
    68d0:	0097b4b3          	sltu	s1,a5,s1
    68d4:	9426                	add	s0,s0,s1
    68d6:	84be                	mv	s1,a5
    68d8:	bbfd                	j	66d6 <__muldf3+0x3ae>
    68da:	da9d                	beqz	a3,6810 <__muldf3+0x4e8>
    68dc:	b7e9                	j	68a6 <__muldf3+0x57e>
    68de:	de068ce3          	beqz	a3,66d6 <__muldf3+0x3ae>
    68e2:	b7ed                	j	68cc <__muldf3+0x5a4>
    68e4:	893a                	mv	s2,a4
    68e6:	b3f9                	j	66b4 <__muldf3+0x38c>
    68e8:	4685                	li	a3,1
    68ea:	4781                	li	a5,0
    68ec:	4401                	li	s0,0
    68ee:	002aea93          	ori	s5,s5,2
    68f2:	bf05                	j	6822 <__muldf3+0x4fa>
    68f4:	00971793          	slli	a5,a4,0x9
    68f8:	0034d413          	srli	s0,s1,0x3
    68fc:	0776                	slli	a4,a4,0x1d
    68fe:	83b1                	srli	a5,a5,0xc
    6900:	8c59                	or	s0,s0,a4
    6902:	f9c1                	bnez	a1,6892 <__muldf3+0x56a>
    6904:	4701                	li	a4,0
    6906:	b615                	j	642a <__muldf3+0x102>
    6908:	00f4f593          	andi	a1,s1,15
    690c:	4511                	li	a0,4
    690e:	e2a580e3          	beq	a1,a0,672e <__muldf3+0x406>
    6912:	ffc4b713          	sltiu	a4,s1,-4
    6916:	00174713          	xori	a4,a4,1
    691a:	9722                	add	a4,a4,s0
    691c:	bd09                	j	672e <__muldf3+0x406>
    691e:	8722                	mv	a4,s0
    6920:	e00697e3          	bnez	a3,672e <__muldf3+0x406>
    6924:	ff84b713          	sltiu	a4,s1,-8
    6928:	00174713          	xori	a4,a4,1
    692c:	9722                	add	a4,a4,s0
    692e:	b501                	j	672e <__muldf3+0x406>
    6930:	8722                	mv	a4,s0
    6932:	de068ee3          	beqz	a3,672e <__muldf3+0x406>
    6936:	b7fd                	j	6924 <__muldf3+0x5fc>
    6938:	4585                	li	a1,1
    693a:	4701                	li	a4,0
    693c:	e2069ae3          	bnez	a3,6770 <__muldf3+0x448>
    6940:	00848793          	addi	a5,s1,8
    6944:	0097b4b3          	sltu	s1,a5,s1
    6948:	9726                	add	a4,a4,s1
    694a:	84be                	mv	s1,a5
    694c:	b515                	j	6770 <__muldf3+0x448>
    694e:	4585                	li	a1,1
    6950:	4701                	li	a4,0
    6952:	e0068fe3          	beqz	a3,6770 <__muldf3+0x448>
    6956:	b7ed                	j	6940 <__muldf3+0x618>
    6958:	4585                	li	a1,1
    695a:	4701                	li	a4,0
    695c:	00f4f793          	andi	a5,s1,15
    6960:	4691                	li	a3,4
    6962:	e0d787e3          	beq	a5,a3,6770 <__muldf3+0x448>
    6966:	00448793          	addi	a5,s1,4
    696a:	0097b4b3          	sltu	s1,a5,s1
    696e:	9726                	add	a4,a4,s1
    6970:	84be                	mv	s1,a5
    6972:	bbfd                	j	6770 <__muldf3+0x448>
    6974:	0016b413          	seqz	s0,a3
    6978:	bdbd                	j	67f6 <__muldf3+0x4ce>
    697a:	4585                	li	a1,1
    697c:	bb75                	j	6738 <__muldf3+0x410>

0000697e <__subdf3>:
__subdf3():
    697e:	1101                	addi	sp,sp,-32
    6980:	ce06                	sw	ra,28(sp)
    6982:	cc22                	sw	s0,24(sp)
    6984:	ca26                	sw	s1,20(sp)
    6986:	c84a                	sw	s2,16(sp)
    6988:	c64e                	sw	s3,12(sp)
    698a:	c452                	sw	s4,8(sp)
    698c:	002029f3          	frrm	s3
    6990:	00100837          	lui	a6,0x100
    6994:	187d                	addi	a6,a6,-1
    6996:	00b87733          	and	a4,a6,a1
    699a:	0146d893          	srli	a7,a3,0x14
    699e:	00d87833          	and	a6,a6,a3
    69a2:	0145d413          	srli	s0,a1,0x14
    69a6:	00371e13          	slli	t3,a4,0x3
    69aa:	01d55793          	srli	a5,a0,0x1d
    69ae:	080e                	slli	a6,a6,0x3
    69b0:	01d65313          	srli	t1,a2,0x1d
    69b4:	7ff8f893          	andi	a7,a7,2047
    69b8:	7ff00e93          	li	t4,2047
    69bc:	01f5d493          	srli	s1,a1,0x1f
    69c0:	01c7e733          	or	a4,a5,t3
    69c4:	7ff47413          	andi	s0,s0,2047
    69c8:	00351e13          	slli	t3,a0,0x3
    69cc:	82fd                	srli	a3,a3,0x1f
    69ce:	01036833          	or	a6,t1,a6
    69d2:	00361593          	slli	a1,a2,0x3
    69d6:	1dd88263          	beq	a7,t4,6b9a <__subdf3+0x21c>
    69da:	0016c693          	xori	a3,a3,1
    69de:	41140333          	sub	t1,s0,a7
    69e2:	16d48763          	beq	s1,a3,6b50 <__subdf3+0x1d2>
    69e6:	1c605363          	blez	t1,6bac <__subdf3+0x22e>
    69ea:	22088463          	beqz	a7,6c12 <__subdf3+0x294>
    69ee:	008007b7          	lui	a5,0x800
    69f2:	00f86833          	or	a6,a6,a5
    69f6:	6dd40263          	beq	s0,t4,70ba <__subdf3+0x73c>
    69fa:	03800793          	li	a5,56
    69fe:	3a67cd63          	blt	a5,t1,6db8 <__subdf3+0x43a>
    6a02:	47fd                	li	a5,31
    6a04:	5267c263          	blt	a5,t1,6f28 <__subdf3+0x5aa>
    6a08:	02000793          	li	a5,32
    6a0c:	406787b3          	sub	a5,a5,t1
    6a10:	0065d933          	srl	s2,a1,t1
    6a14:	00f81633          	sll	a2,a6,a5
    6a18:	00f595b3          	sll	a1,a1,a5
    6a1c:	01266633          	or	a2,a2,s2
    6a20:	00685333          	srl	t1,a6,t1
    6a24:	00b03933          	snez	s2,a1
    6a28:	01266633          	or	a2,a2,s2
    6a2c:	40670733          	sub	a4,a4,t1
    6a30:	40ce0933          	sub	s2,t3,a2
    6a34:	012e3633          	sltu	a2,t3,s2
    6a38:	8f11                	sub	a4,a4,a2
    6a3a:	00871793          	slli	a5,a4,0x8
    6a3e:	2a07da63          	bgez	a5,6cf2 <__subdf3+0x374>
    6a42:	00971a13          	slli	s4,a4,0x9
    6a46:	009a5a13          	srli	s4,s4,0x9
    6a4a:	340a0b63          	beqz	s4,6da0 <__subdf3+0x422>
    6a4e:	8552                	mv	a0,s4
    6a50:	3e5000ef          	jal	ra,7634 <__clzsi2>
    6a54:	1561                	addi	a0,a0,-8
    6a56:	02000793          	li	a5,32
    6a5a:	8f89                	sub	a5,a5,a0
    6a5c:	00aa1733          	sll	a4,s4,a0
    6a60:	00f957b3          	srl	a5,s2,a5
    6a64:	8fd9                	or	a5,a5,a4
    6a66:	00a91a33          	sll	s4,s2,a0
    6a6a:	32854063          	blt	a0,s0,6d8a <__subdf3+0x40c>
    6a6e:	8d01                	sub	a0,a0,s0
    6a70:	00150713          	addi	a4,a0,1
    6a74:	46fd                	li	a3,31
    6a76:	44e6c063          	blt	a3,a4,6eb6 <__subdf3+0x538>
    6a7a:	02000693          	li	a3,32
    6a7e:	8e99                	sub	a3,a3,a4
    6a80:	00ea5933          	srl	s2,s4,a4
    6a84:	00d79633          	sll	a2,a5,a3
    6a88:	00da16b3          	sll	a3,s4,a3
    6a8c:	01266633          	or	a2,a2,s2
    6a90:	00d036b3          	snez	a3,a3
    6a94:	00d66933          	or	s2,a2,a3
    6a98:	00e7d733          	srl	a4,a5,a4
    6a9c:	00e967b3          	or	a5,s2,a4
    6aa0:	16078063          	beqz	a5,6c00 <__subdf3+0x282>
    6aa4:	00797793          	andi	a5,s2,7
    6aa8:	00191593          	slli	a1,s2,0x1
    6aac:	00171613          	slli	a2,a4,0x1
    6ab0:	01f95693          	srli	a3,s2,0x1f
    6ab4:	0075f513          	andi	a0,a1,7
    6ab8:	96b2                	add	a3,a3,a2
    6aba:	4301                	li	t1,0
    6abc:	c911                	beqz	a0,6ad0 <__subdf3+0x152>
    6abe:	4609                	li	a2,2
    6ac0:	66c98163          	beq	s3,a2,7122 <__subdf3+0x7a4>
    6ac4:	460d                	li	a2,3
    6ac6:	4305                	li	t1,1
    6ac8:	64c98563          	beq	s3,a2,7112 <__subdf3+0x794>
    6acc:	62098863          	beqz	s3,70fc <__subdf3+0x77e>
    6ad0:	01000637          	lui	a2,0x1000
    6ad4:	8ef1                	and	a3,a3,a2
    6ad6:	0016b513          	seqz	a0,a3
    6ada:	10078ce3          	beqz	a5,73f2 <__subdf3+0xa74>
    6ade:	4401                	li	s0,0
    6ae0:	4789                	li	a5,2
    6ae2:	26f98c63          	beq	s3,a5,6d5a <__subdf3+0x3dc>
    6ae6:	478d                	li	a5,3
    6ae8:	28f98863          	beq	s3,a5,6d78 <__subdf3+0x3fa>
    6aec:	24098263          	beqz	s3,6d30 <__subdf3+0x3b2>
    6af0:	008005b7          	lui	a1,0x800
    6af4:	8df9                	and	a1,a1,a4
    6af6:	4305                	li	t1,1
    6af8:	c119                	beqz	a0,6afe <__subdf3+0x180>
    6afa:	00236313          	ori	t1,t1,2
    6afe:	4a058363          	beqz	a1,6fa4 <__subdf3+0x626>
    6b02:	0405                	addi	s0,s0,1
    6b04:	7ff00793          	li	a5,2047
    6b08:	20f40363          	beq	s0,a5,6d0e <__subdf3+0x390>
    6b0c:	ff8007b7          	lui	a5,0xff800
    6b10:	17fd                	addi	a5,a5,-1
    6b12:	8ff9                	and	a5,a5,a4
    6b14:	01d79613          	slli	a2,a5,0x1d
    6b18:	00395913          	srli	s2,s2,0x3
    6b1c:	07a6                	slli	a5,a5,0x9
    6b1e:	01266633          	or	a2,a2,s2
    6b22:	83b1                	srli	a5,a5,0xc
    6b24:	7ff47413          	andi	s0,s0,2047
    6b28:	8885                	andi	s1,s1,1
    6b2a:	00c79713          	slli	a4,a5,0xc
    6b2e:	0452                	slli	s0,s0,0x14
    6b30:	8331                	srli	a4,a4,0xc
    6b32:	04fe                	slli	s1,s1,0x1f
    6b34:	8f41                	or	a4,a4,s0
    6b36:	8f45                	or	a4,a4,s1
    6b38:	8532                	mv	a0,a2
    6b3a:	85ba                	mv	a1,a4
    6b3c:	2a031463          	bnez	t1,6de4 <__subdf3+0x466>
    6b40:	40f2                	lw	ra,28(sp)
    6b42:	4462                	lw	s0,24(sp)
    6b44:	44d2                	lw	s1,20(sp)
    6b46:	4942                	lw	s2,16(sp)
    6b48:	49b2                	lw	s3,12(sp)
    6b4a:	4a22                	lw	s4,8(sp)
    6b4c:	6105                	addi	sp,sp,32
    6b4e:	8082                	ret
    6b50:	0c605d63          	blez	t1,6c2a <__subdf3+0x2ac>
    6b54:	16088c63          	beqz	a7,6ccc <__subdf3+0x34e>
    6b58:	008007b7          	lui	a5,0x800
    6b5c:	00f86833          	or	a6,a6,a5
    6b60:	51d40a63          	beq	s0,t4,7074 <__subdf3+0x6f6>
    6b64:	03800793          	li	a5,56
    6b68:	3667cc63          	blt	a5,t1,6ee0 <__subdf3+0x562>
    6b6c:	47fd                	li	a5,31
    6b6e:	4667d063          	bge	a5,t1,6fce <__subdf3+0x650>
    6b72:	fe030613          	addi	a2,t1,-32
    6b76:	02000793          	li	a5,32
    6b7a:	00c85633          	srl	a2,a6,a2
    6b7e:	00f30a63          	beq	t1,a5,6b92 <__subdf3+0x214>
    6b82:	04000793          	li	a5,64
    6b86:	40678333          	sub	t1,a5,t1
    6b8a:	00681833          	sll	a6,a6,t1
    6b8e:	0105e5b3          	or	a1,a1,a6
    6b92:	00b035b3          	snez	a1,a1
    6b96:	8e4d                	or	a2,a2,a1
    6b98:	ae81                	j	6ee8 <__subdf3+0x56a>
    6b9a:	00b867b3          	or	a5,a6,a1
    6b9e:	80140313          	addi	t1,s0,-2047
    6ba2:	e399                	bnez	a5,6ba8 <__subdf3+0x22a>
    6ba4:	0016c693          	xori	a3,a3,1
    6ba8:	08d48163          	beq	s1,a3,6c2a <__subdf3+0x2ac>
    6bac:	0c031563          	bnez	t1,6c76 <__subdf3+0x2f8>
    6bb0:	00140793          	addi	a5,s0,1
    6bb4:	7fe7f793          	andi	a5,a5,2046
    6bb8:	24079263          	bnez	a5,6dfc <__subdf3+0x47e>
    6bbc:	01c76eb3          	or	t4,a4,t3
    6bc0:	00b867b3          	or	a5,a6,a1
    6bc4:	5a041263          	bnez	s0,7168 <__subdf3+0x7ea>
    6bc8:	480e8e63          	beqz	t4,7064 <__subdf3+0x6e6>
    6bcc:	4a078263          	beqz	a5,7070 <__subdf3+0x6f2>
    6bd0:	40be0533          	sub	a0,t3,a1
    6bd4:	00ae37b3          	sltu	a5,t3,a0
    6bd8:	41070633          	sub	a2,a4,a6
    6bdc:	8e1d                	sub	a2,a2,a5
    6bde:	00861793          	slli	a5,a2,0x8
    6be2:	6a07d463          	bgez	a5,728a <__subdf3+0x90c>
    6be6:	41c58933          	sub	s2,a1,t3
    6bea:	40e807b3          	sub	a5,a6,a4
    6bee:	0125b5b3          	sltu	a1,a1,s2
    6bf2:	40b78733          	sub	a4,a5,a1
    6bf6:	00e967b3          	or	a5,s2,a4
    6bfa:	84b6                	mv	s1,a3
    6bfc:	ea0794e3          	bnez	a5,6aa4 <__subdf3+0x126>
    6c00:	4601                	li	a2,0
    6c02:	4401                	li	s0,0
    6c04:	4301                	li	t1,0
    6c06:	07b2                	slli	a5,a5,0xc
    6c08:	83b1                	srli	a5,a5,0xc
    6c0a:	7ff47413          	andi	s0,s0,2047
    6c0e:	8885                	andi	s1,s1,1
    6c10:	bf29                	j	6b2a <__subdf3+0x1ac>
    6c12:	00b867b3          	or	a5,a6,a1
    6c16:	1a078663          	beqz	a5,6dc2 <__subdf3+0x444>
    6c1a:	fff30793          	addi	a5,t1,-1
    6c1e:	48078063          	beqz	a5,709e <__subdf3+0x720>
    6c22:	45d30963          	beq	t1,t4,7074 <__subdf3+0x6f6>
    6c26:	833e                	mv	t1,a5
    6c28:	bbc9                	j	69fa <__subdf3+0x7c>
    6c2a:	20031063          	bnez	t1,6e2a <__subdf3+0x4ac>
    6c2e:	00140693          	addi	a3,s0,1
    6c32:	7fe6f793          	andi	a5,a3,2046
    6c36:	4e079a63          	bnez	a5,712a <__subdf3+0x7ac>
    6c3a:	01c766b3          	or	a3,a4,t3
    6c3e:	3e041e63          	bnez	s0,703a <__subdf3+0x6bc>
    6c42:	00b867b3          	or	a5,a6,a1
    6c46:	5a068a63          	beqz	a3,71fa <__subdf3+0x87c>
    6c4a:	42078363          	beqz	a5,7070 <__subdf3+0x6f2>
    6c4e:	00be0933          	add	s2,t3,a1
    6c52:	010707b3          	add	a5,a4,a6
    6c56:	01c93633          	sltu	a2,s2,t3
    6c5a:	00c78733          	add	a4,a5,a2
    6c5e:	00871793          	slli	a5,a4,0x8
    6c62:	e207dde3          	bgez	a5,6a9c <__subdf3+0x11e>
    6c66:	ff8007b7          	lui	a5,0xff800
    6c6a:	17fd                	addi	a5,a5,-1
    6c6c:	8f7d                	and	a4,a4,a5
    6c6e:	4405                	li	s0,1
    6c70:	00797793          	andi	a5,s2,7
    6c74:	a069                	j	6cfe <__subdf3+0x380>
    6c76:	408887b3          	sub	a5,a7,s0
    6c7a:	20041363          	bnez	s0,6e80 <__subdf3+0x502>
    6c7e:	01c76533          	or	a0,a4,t3
    6c82:	c125                	beqz	a0,6ce2 <__subdf3+0x364>
    6c84:	fff78513          	addi	a0,a5,-1 # ff7fffff <_eusrstack+0xdf7effff>
    6c88:	54050f63          	beqz	a0,71e6 <__subdf3+0x868>
    6c8c:	7ff00313          	li	t1,2047
    6c90:	60678663          	beq	a5,t1,729c <__subdf3+0x91e>
    6c94:	87aa                	mv	a5,a0
    6c96:	03800613          	li	a2,56
    6c9a:	2af64b63          	blt	a2,a5,6f50 <__subdf3+0x5d2>
    6c9e:	467d                	li	a2,31
    6ca0:	50f64863          	blt	a2,a5,71b0 <__subdf3+0x832>
    6ca4:	02000513          	li	a0,32
    6ca8:	8d1d                	sub	a0,a0,a5
    6caa:	00a71633          	sll	a2,a4,a0
    6cae:	00fe5333          	srl	t1,t3,a5
    6cb2:	00ae1533          	sll	a0,t3,a0
    6cb6:	00666633          	or	a2,a2,t1
    6cba:	00a03933          	snez	s2,a0
    6cbe:	00f757b3          	srl	a5,a4,a5
    6cc2:	01266633          	or	a2,a2,s2
    6cc6:	40f80833          	sub	a6,a6,a5
    6cca:	a479                	j	6f58 <__subdf3+0x5da>
    6ccc:	00b867b3          	or	a5,a6,a1
    6cd0:	cbed                	beqz	a5,6dc2 <__subdf3+0x444>
    6cd2:	fff30793          	addi	a5,t1,-1
    6cd6:	32078063          	beqz	a5,6ff6 <__subdf3+0x678>
    6cda:	4bd30b63          	beq	t1,t4,7190 <__subdf3+0x812>
    6cde:	833e                	mv	t1,a5
    6ce0:	b551                	j	6b64 <__subdf3+0x1e6>
    6ce2:	7ff00713          	li	a4,2047
    6ce6:	5ee78a63          	beq	a5,a4,72da <__subdf3+0x95c>
    6cea:	8742                	mv	a4,a6
    6cec:	892e                	mv	s2,a1
    6cee:	843e                	mv	s0,a5
    6cf0:	84b6                	mv	s1,a3
    6cf2:	00e967b3          	or	a5,s2,a4
    6cf6:	da0405e3          	beqz	s0,6aa0 <__subdf3+0x122>
    6cfa:	00797793          	andi	a5,s2,7
    6cfe:	4501                	li	a0,0
    6d00:	de0790e3          	bnez	a5,6ae0 <__subdf3+0x162>
    6d04:	008005b7          	lui	a1,0x800
    6d08:	8df9                	and	a1,a1,a4
    6d0a:	4301                	li	t1,0
    6d0c:	bbcd                	j	6afe <__subdf3+0x180>
    6d0e:	0c098f63          	beqz	s3,6dec <__subdf3+0x46e>
    6d12:	478d                	li	a5,3
    6d14:	0cf98b63          	beq	s3,a5,6dea <__subdf3+0x46c>
    6d18:	4789                	li	a5,2
    6d1a:	30f98b63          	beq	s3,a5,7030 <__subdf3+0x6b2>
    6d1e:	00536313          	ori	t1,t1,5
    6d22:	200007b7          	lui	a5,0x20000
    6d26:	567d                	li	a2,-1
    6d28:	17fd                	addi	a5,a5,-1
    6d2a:	7fe00413          	li	s0,2046
    6d2e:	bde1                	j	6c06 <__subdf3+0x288>
    6d30:	008005b7          	lui	a1,0x800
    6d34:	00f97793          	andi	a5,s2,15
    6d38:	4691                	li	a3,4
    6d3a:	4305                	li	t1,1
    6d3c:	8df9                	and	a1,a1,a4
    6d3e:	dad78de3          	beq	a5,a3,6af8 <__subdf3+0x17a>
    6d42:	ffc93793          	sltiu	a5,s2,-4
    6d46:	0017c793          	xori	a5,a5,1
    6d4a:	973e                	add	a4,a4,a5
    6d4c:	008005b7          	lui	a1,0x800
    6d50:	8df9                	and	a1,a1,a4
    6d52:	0911                	addi	s2,s2,4
    6d54:	da0513e3          	bnez	a0,6afa <__subdf3+0x17c>
    6d58:	b35d                	j	6afe <__subdf3+0x180>
    6d5a:	d8048be3          	beqz	s1,6af0 <__subdf3+0x172>
    6d5e:	00890793          	addi	a5,s2,8
    6d62:	0127b633          	sltu	a2,a5,s2
    6d66:	9732                	add	a4,a4,a2
    6d68:	008005b7          	lui	a1,0x800
    6d6c:	8df9                	and	a1,a1,a4
    6d6e:	893e                	mv	s2,a5
    6d70:	4305                	li	t1,1
    6d72:	d80514e3          	bnez	a0,6afa <__subdf3+0x17c>
    6d76:	b361                	j	6afe <__subdf3+0x180>
    6d78:	d0fd                	beqz	s1,6d5e <__subdf3+0x3e0>
    6d7a:	4305                	li	t1,1
    6d7c:	008005b7          	lui	a1,0x800
    6d80:	8df9                	and	a1,a1,a4
    6d82:	4485                	li	s1,1
    6d84:	d6051be3          	bnez	a0,6afa <__subdf3+0x17c>
    6d88:	bb9d                	j	6afe <__subdf3+0x180>
    6d8a:	ff800737          	lui	a4,0xff800
    6d8e:	177d                	addi	a4,a4,-1
    6d90:	8f7d                	and	a4,a4,a5
    6d92:	8952                	mv	s2,s4
    6d94:	8c09                	sub	s0,s0,a0
    6d96:	00e967b3          	or	a5,s2,a4
    6d9a:	d00403e3          	beqz	s0,6aa0 <__subdf3+0x122>
    6d9e:	bfb1                	j	6cfa <__subdf3+0x37c>
    6da0:	854a                	mv	a0,s2
    6da2:	093000ef          	jal	ra,7634 <__clzsi2>
    6da6:	ff850793          	addi	a5,a0,-8
    6daa:	477d                	li	a4,31
    6dac:	0561                	addi	a0,a0,24
    6dae:	00f917b3          	sll	a5,s2,a5
    6db2:	caa74ce3          	blt	a4,a0,6a6a <__subdf3+0xec>
    6db6:	b145                	j	6a56 <__subdf3+0xd8>
    6db8:	00b86833          	or	a6,a6,a1
    6dbc:	01003633          	snez	a2,a6
    6dc0:	b985                	j	6a30 <__subdf3+0xb2>
    6dc2:	31d30f63          	beq	t1,t4,70e0 <__subdf3+0x762>
    6dc6:	008005b7          	lui	a1,0x800
    6dca:	841a                	mv	s0,t1
    6dcc:	8df9                	and	a1,a1,a4
    6dce:	8972                	mv	s2,t3
    6dd0:	4301                	li	t1,0
    6dd2:	b335                	j	6afe <__subdf3+0x180>
    6dd4:	48888863          	beq	a7,s0,7264 <__subdf3+0x8e6>
    6dd8:	48079f63          	bnez	a5,7276 <__subdf3+0x8f8>
    6ddc:	4501                	li	a0,0
    6dde:	7ff805b7          	lui	a1,0x7ff80
    6de2:	4341                	li	t1,16
    6de4:	00132073          	csrs	fflags,t1
    6de8:	bba1                	j	6b40 <__subdf3+0x1c2>
    6dea:	f895                	bnez	s1,6d1e <__subdf3+0x3a0>
    6dec:	00536313          	ori	t1,t1,5
    6df0:	8885                	andi	s1,s1,1
    6df2:	7ff00413          	li	s0,2047
    6df6:	4781                	li	a5,0
    6df8:	4601                	li	a2,0
    6dfa:	bb05                	j	6b2a <__subdf3+0x1ac>
    6dfc:	40be0933          	sub	s2,t3,a1
    6e00:	012e37b3          	sltu	a5,t3,s2
    6e04:	41070a33          	sub	s4,a4,a6
    6e08:	40fa0a33          	sub	s4,s4,a5
    6e0c:	008a1793          	slli	a5,s4,0x8
    6e10:	3407c263          	bltz	a5,7154 <__subdf3+0x7d6>
    6e14:	014967b3          	or	a5,s2,s4
    6e18:	c20799e3          	bnez	a5,6a4a <__subdf3+0xcc>
    6e1c:	ffe98493          	addi	s1,s3,-2
    6e20:	0014b493          	seqz	s1,s1
    6e24:	4601                	li	a2,0
    6e26:	4401                	li	s0,0
    6e28:	bbf9                	j	6c06 <__subdf3+0x288>
    6e2a:	408887b3          	sub	a5,a7,s0
    6e2e:	12040e63          	beqz	s0,6f6a <__subdf3+0x5ec>
    6e32:	00800537          	lui	a0,0x800
    6e36:	7ff00693          	li	a3,2047
    6e3a:	8f49                	or	a4,a4,a0
    6e3c:	50d88763          	beq	a7,a3,734a <__subdf3+0x9cc>
    6e40:	03800693          	li	a3,56
    6e44:	36f6c163          	blt	a3,a5,71a6 <__subdf3+0x828>
    6e48:	46fd                	li	a3,31
    6e4a:	46f6c363          	blt	a3,a5,72b0 <__subdf3+0x932>
    6e4e:	02000693          	li	a3,32
    6e52:	8e9d                	sub	a3,a3,a5
    6e54:	00d71633          	sll	a2,a4,a3
    6e58:	00fe5533          	srl	a0,t3,a5
    6e5c:	00de16b3          	sll	a3,t3,a3
    6e60:	8e49                	or	a2,a2,a0
    6e62:	00d03933          	snez	s2,a3
    6e66:	00f757b3          	srl	a5,a4,a5
    6e6a:	01266633          	or	a2,a2,s2
    6e6e:	983e                	add	a6,a6,a5
    6e70:	00b60933          	add	s2,a2,a1
    6e74:	00b937b3          	sltu	a5,s2,a1
    6e78:	01078733          	add	a4,a5,a6
    6e7c:	8446                	mv	s0,a7
    6e7e:	a895                	j	6ef2 <__subdf3+0x574>
    6e80:	00800337          	lui	t1,0x800
    6e84:	7ff00513          	li	a0,2047
    6e88:	00676733          	or	a4,a4,t1
    6e8c:	e0a895e3          	bne	a7,a0,6c96 <__subdf3+0x318>
    6e90:	00b865b3          	or	a1,a6,a1
    6e94:	20058263          	beqz	a1,7098 <__subdf3+0x71a>
    6e98:	060e                	slli	a2,a2,0x3
    6e9a:	820d                	srli	a2,a2,0x3
    6e9c:	01d81793          	slli	a5,a6,0x1d
    6ea0:	00981713          	slli	a4,a6,0x9
    6ea4:	8e5d                	or	a2,a2,a5
    6ea6:	84b6                	mv	s1,a3
    6ea8:	00385793          	srli	a5,a6,0x3
    6eac:	4301                	li	t1,0
    6eae:	10074663          	bltz	a4,6fba <__subdf3+0x63c>
    6eb2:	4341                	li	t1,16
    6eb4:	a219                	j	6fba <__subdf3+0x63c>
    6eb6:	1505                	addi	a0,a0,-31
    6eb8:	02000693          	li	a3,32
    6ebc:	00a7d533          	srl	a0,a5,a0
    6ec0:	00d70a63          	beq	a4,a3,6ed4 <__subdf3+0x556>
    6ec4:	04000693          	li	a3,64
    6ec8:	40e68733          	sub	a4,a3,a4
    6ecc:	00e797b3          	sll	a5,a5,a4
    6ed0:	00fa6a33          	or	s4,s4,a5
    6ed4:	014037b3          	snez	a5,s4
    6ed8:	8fc9                	or	a5,a5,a0
    6eda:	893e                	mv	s2,a5
    6edc:	4701                	li	a4,0
    6ede:	b6c9                	j	6aa0 <__subdf3+0x122>
    6ee0:	00b86833          	or	a6,a6,a1
    6ee4:	01003633          	snez	a2,a6
    6ee8:	01c60933          	add	s2,a2,t3
    6eec:	01c93633          	sltu	a2,s2,t3
    6ef0:	9732                	add	a4,a4,a2
    6ef2:	00871793          	slli	a5,a4,0x8
    6ef6:	de07dee3          	bgez	a5,6cf2 <__subdf3+0x374>
    6efa:	0405                	addi	s0,s0,1
    6efc:	7ff00793          	li	a5,2047
    6f00:	08f40363          	beq	s0,a5,6f86 <__subdf3+0x608>
    6f04:	ff8007b7          	lui	a5,0xff800
    6f08:	17fd                	addi	a5,a5,-1
    6f0a:	8ff9                	and	a5,a5,a4
    6f0c:	00197613          	andi	a2,s2,1
    6f10:	00195713          	srli	a4,s2,0x1
    6f14:	8e59                	or	a2,a2,a4
    6f16:	01f79913          	slli	s2,a5,0x1f
    6f1a:	00c96933          	or	s2,s2,a2
    6f1e:	0017d713          	srli	a4,a5,0x1
    6f22:	00797793          	andi	a5,s2,7
    6f26:	bbe1                	j	6cfe <__subdf3+0x380>
    6f28:	fe030613          	addi	a2,t1,-32 # 7fffe0 <_data_lma+0x7f4c0c>
    6f2c:	02000793          	li	a5,32
    6f30:	00c85633          	srl	a2,a6,a2
    6f34:	00f30a63          	beq	t1,a5,6f48 <__subdf3+0x5ca>
    6f38:	04000793          	li	a5,64
    6f3c:	40678333          	sub	t1,a5,t1
    6f40:	00681833          	sll	a6,a6,t1
    6f44:	0105e5b3          	or	a1,a1,a6
    6f48:	00b035b3          	snez	a1,a1
    6f4c:	8e4d                	or	a2,a2,a1
    6f4e:	b4cd                	j	6a30 <__subdf3+0xb2>
    6f50:	01c76633          	or	a2,a4,t3
    6f54:	00c03633          	snez	a2,a2
    6f58:	40c58933          	sub	s2,a1,a2
    6f5c:	0125b7b3          	sltu	a5,a1,s2
    6f60:	40f80733          	sub	a4,a6,a5
    6f64:	8446                	mv	s0,a7
    6f66:	84b6                	mv	s1,a3
    6f68:	bcc9                	j	6a3a <__subdf3+0xbc>
    6f6a:	01c766b3          	or	a3,a4,t3
    6f6e:	28068963          	beqz	a3,7200 <__subdf3+0x882>
    6f72:	fff78693          	addi	a3,a5,-1 # ff7fffff <_eusrstack+0xdf7effff>
    6f76:	38068b63          	beqz	a3,730c <__subdf3+0x98e>
    6f7a:	7ff00513          	li	a0,2047
    6f7e:	40a78e63          	beq	a5,a0,739a <__subdf3+0xa1c>
    6f82:	87b6                	mv	a5,a3
    6f84:	bd75                	j	6e40 <__subdf3+0x4c2>
    6f86:	20098363          	beqz	s3,718c <__subdf3+0x80e>
    6f8a:	478d                	li	a5,3
    6f8c:	3ef98b63          	beq	s3,a5,7382 <__subdf3+0xa04>
    6f90:	4789                	li	a5,2
    6f92:	3cf98f63          	beq	s3,a5,7370 <__subdf3+0x9f2>
    6f96:	44099063          	bnez	s3,73d6 <__subdf3+0xa58>
    6f9a:	7fe00413          	li	s0,2046
    6f9e:	4701                	li	a4,0
    6fa0:	490d                	li	s2,3
    6fa2:	4315                	li	t1,5
    6fa4:	01d71793          	slli	a5,a4,0x1d
    6fa8:	00395613          	srli	a2,s2,0x3
    6fac:	7ff00693          	li	a3,2047
    6fb0:	8e5d                	or	a2,a2,a5
    6fb2:	00375793          	srli	a5,a4,0x3
    6fb6:	c4d418e3          	bne	s0,a3,6c06 <__subdf3+0x288>
    6fba:	8fd1                	or	a5,a5,a2
    6fbc:	e2078ae3          	beqz	a5,6df0 <__subdf3+0x472>
    6fc0:	4481                	li	s1,0
    6fc2:	7ff00413          	li	s0,2047
    6fc6:	000807b7          	lui	a5,0x80
    6fca:	4601                	li	a2,0
    6fcc:	beb9                	j	6b2a <__subdf3+0x1ac>
    6fce:	02000793          	li	a5,32
    6fd2:	406787b3          	sub	a5,a5,t1
    6fd6:	0065d933          	srl	s2,a1,t1
    6fda:	00f81633          	sll	a2,a6,a5
    6fde:	00f595b3          	sll	a1,a1,a5
    6fe2:	01266633          	or	a2,a2,s2
    6fe6:	00685333          	srl	t1,a6,t1
    6fea:	00b03933          	snez	s2,a1
    6fee:	01266633          	or	a2,a2,s2
    6ff2:	971a                	add	a4,a4,t1
    6ff4:	bdd5                	j	6ee8 <__subdf3+0x56a>
    6ff6:	00be0933          	add	s2,t3,a1
    6ffa:	010707b3          	add	a5,a4,a6
    6ffe:	01c93633          	sltu	a2,s2,t3
    7002:	00c78733          	add	a4,a5,a2
    7006:	00871793          	slli	a5,a4,0x8
    700a:	4405                	li	s0,1
    700c:	ce07d7e3          	bgez	a5,6cfa <__subdf3+0x37c>
    7010:	ff8007b7          	lui	a5,0xff800
    7014:	17fd                	addi	a5,a5,-1
    7016:	8ff9                	and	a5,a5,a4
    7018:	00195613          	srli	a2,s2,0x1
    701c:	01f79913          	slli	s2,a5,0x1f
    7020:	00c96933          	or	s2,s2,a2
    7024:	0017d713          	srli	a4,a5,0x1
    7028:	4409                	li	s0,2
    702a:	00797793          	andi	a5,s2,7
    702e:	b9c1                	j	6cfe <__subdf3+0x380>
    7030:	00536313          	ori	t1,t1,5
    7034:	ce0487e3          	beqz	s1,6d22 <__subdf3+0x3a4>
    7038:	bb65                	j	6df0 <__subdf3+0x472>
    703a:	7ff00793          	li	a5,2047
    703e:	2ef40063          	beq	s0,a5,731e <__subdf3+0x9a0>
    7042:	1ef88863          	beq	a7,a5,7232 <__subdf3+0x8b4>
    7046:	1e068c63          	beqz	a3,723e <__subdf3+0x8c0>
    704a:	00b86833          	or	a6,a6,a1
    704e:	f60819e3          	bnez	a6,6fc0 <__subdf3+0x642>
    7052:	00351613          	slli	a2,a0,0x3
    7056:	01d71793          	slli	a5,a4,0x1d
    705a:	820d                	srli	a2,a2,0x3
    705c:	8e5d                	or	a2,a2,a5
    705e:	00375793          	srli	a5,a4,0x3
    7062:	bfa1                	j	6fba <__subdf3+0x63c>
    7064:	16078b63          	beqz	a5,71da <__subdf3+0x85c>
    7068:	4781                	li	a5,0
    706a:	8742                	mv	a4,a6
    706c:	8e2e                	mv	t3,a1
    706e:	84b6                	mv	s1,a3
    7070:	8972                	mv	s2,t3
    7072:	bc1d                	j	6aa8 <__subdf3+0x12a>
    7074:	01c76633          	or	a2,a4,t3
    7078:	c20d                	beqz	a2,709a <__subdf3+0x71c>
    707a:	00400337          	lui	t1,0x400
    707e:	050e                	slli	a0,a0,0x3
    7080:	00677333          	and	t1,a4,t1
    7084:	01d71613          	slli	a2,a4,0x1d
    7088:	810d                	srli	a0,a0,0x3
    708a:	00133313          	seqz	t1,t1
    708e:	8e49                	or	a2,a2,a0
    7090:	00375793          	srli	a5,a4,0x3
    7094:	0312                	slli	t1,t1,0x4
    7096:	b715                	j	6fba <__subdf3+0x63c>
    7098:	84b6                	mv	s1,a3
    709a:	4301                	li	t1,0
    709c:	bb91                	j	6df0 <__subdf3+0x472>
    709e:	40be0933          	sub	s2,t3,a1
    70a2:	410707b3          	sub	a5,a4,a6
    70a6:	012e3633          	sltu	a2,t3,s2
    70aa:	40c78733          	sub	a4,a5,a2
    70ae:	00871793          	slli	a5,a4,0x8
    70b2:	4405                	li	s0,1
    70b4:	9807c7e3          	bltz	a5,6a42 <__subdf3+0xc4>
    70b8:	b189                	j	6cfa <__subdf3+0x37c>
    70ba:	01c76633          	or	a2,a4,t3
    70be:	de71                	beqz	a2,709a <__subdf3+0x71c>
    70c0:	00400337          	lui	t1,0x400
    70c4:	00351613          	slli	a2,a0,0x3
    70c8:	00677333          	and	t1,a4,t1
    70cc:	01d71793          	slli	a5,a4,0x1d
    70d0:	820d                	srli	a2,a2,0x3
    70d2:	00133313          	seqz	t1,t1
    70d6:	8e5d                	or	a2,a2,a5
    70d8:	0312                	slli	t1,t1,0x4
    70da:	00375793          	srli	a5,a4,0x3
    70de:	bdf1                	j	6fba <__subdf3+0x63c>
    70e0:	01c767b3          	or	a5,a4,t3
    70e4:	ebcd                	bnez	a5,7196 <__subdf3+0x818>
    70e6:	4701                	li	a4,0
    70e8:	4e01                	li	t3,0
    70ea:	4301                	li	t1,0
    70ec:	01d71793          	slli	a5,a4,0x1d
    70f0:	003e5613          	srli	a2,t3,0x3
    70f4:	8e5d                	or	a2,a2,a5
    70f6:	00375793          	srli	a5,a4,0x3
    70fa:	b5c1                	j	6fba <__subdf3+0x63c>
    70fc:	00f5f613          	andi	a2,a1,15
    7100:	4511                	li	a0,4
    7102:	9ca607e3          	beq	a2,a0,6ad0 <__subdf3+0x152>
    7106:	ffc5b593          	sltiu	a1,a1,-4
    710a:	0015c593          	xori	a1,a1,1
    710e:	96ae                	add	a3,a3,a1
    7110:	b2c1                	j	6ad0 <__subdf3+0x152>
    7112:	9a049fe3          	bnez	s1,6ad0 <__subdf3+0x152>
    7116:	ff85b613          	sltiu	a2,a1,-8
    711a:	00164613          	xori	a2,a2,1
    711e:	96b2                	add	a3,a3,a2
    7120:	ba45                	j	6ad0 <__subdf3+0x152>
    7122:	4305                	li	t1,1
    7124:	9a0486e3          	beqz	s1,6ad0 <__subdf3+0x152>
    7128:	b7fd                	j	7116 <__subdf3+0x798>
    712a:	7ff00793          	li	a5,2047
    712e:	0ef68163          	beq	a3,a5,7210 <__subdf3+0x892>
    7132:	95f2                	add	a1,a1,t3
    7134:	010707b3          	add	a5,a4,a6
    7138:	01c5b733          	sltu	a4,a1,t3
    713c:	97ba                	add	a5,a5,a4
    713e:	01f79613          	slli	a2,a5,0x1f
    7142:	8185                	srli	a1,a1,0x1
    7144:	00b66933          	or	s2,a2,a1
    7148:	0017d713          	srli	a4,a5,0x1
    714c:	8436                	mv	s0,a3
    714e:	00797793          	andi	a5,s2,7
    7152:	b675                	j	6cfe <__subdf3+0x380>
    7154:	41c58933          	sub	s2,a1,t3
    7158:	40e80833          	sub	a6,a6,a4
    715c:	0125b5b3          	sltu	a1,a1,s2
    7160:	40b80a33          	sub	s4,a6,a1
    7164:	84b6                	mv	s1,a3
    7166:	b0d5                	j	6a4a <__subdf3+0xcc>
    7168:	7ff00593          	li	a1,2047
    716c:	0eb40163          	beq	s0,a1,724e <__subdf3+0x8d0>
    7170:	0eb88a63          	beq	a7,a1,7264 <__subdf3+0x8e6>
    7174:	c60e82e3          	beqz	t4,6dd8 <__subdf3+0x45a>
    7178:	e40794e3          	bnez	a5,6fc0 <__subdf3+0x642>
    717c:	050e                	slli	a0,a0,0x3
    717e:	01d71613          	slli	a2,a4,0x1d
    7182:	810d                	srli	a0,a0,0x3
    7184:	8e49                	or	a2,a2,a0
    7186:	00375793          	srli	a5,a4,0x3
    718a:	bd05                	j	6fba <__subdf3+0x63c>
    718c:	4315                	li	t1,5
    718e:	b18d                	j	6df0 <__subdf3+0x472>
    7190:	01c767b3          	or	a5,a4,t3
    7194:	d399                	beqz	a5,709a <__subdf3+0x71c>
    7196:	00400337          	lui	t1,0x400
    719a:	00677333          	and	t1,a4,t1
    719e:	00133313          	seqz	t1,t1
    71a2:	0312                	slli	t1,t1,0x4
    71a4:	b7a1                	j	70ec <__subdf3+0x76e>
    71a6:	01c76633          	or	a2,a4,t3
    71aa:	00c03633          	snez	a2,a2
    71ae:	b1c9                	j	6e70 <__subdf3+0x4f2>
    71b0:	fe078613          	addi	a2,a5,-32 # ff7fffe0 <_eusrstack+0xdf7effe0>
    71b4:	02000513          	li	a0,32
    71b8:	00c75933          	srl	s2,a4,a2
    71bc:	00a78a63          	beq	a5,a0,71d0 <__subdf3+0x852>
    71c0:	04000613          	li	a2,64
    71c4:	40f607b3          	sub	a5,a2,a5
    71c8:	00f717b3          	sll	a5,a4,a5
    71cc:	00fe6e33          	or	t3,t3,a5
    71d0:	01c03633          	snez	a2,t3
    71d4:	01266633          	or	a2,a2,s2
    71d8:	b341                	j	6f58 <__subdf3+0x5da>
    71da:	ffe98493          	addi	s1,s3,-2
    71de:	0014b493          	seqz	s1,s1
    71e2:	4601                	li	a2,0
    71e4:	b40d                	j	6c06 <__subdf3+0x288>
    71e6:	41c58933          	sub	s2,a1,t3
    71ea:	40e807b3          	sub	a5,a6,a4
    71ee:	0125b5b3          	sltu	a1,a1,s2
    71f2:	40b78733          	sub	a4,a5,a1
    71f6:	84b6                	mv	s1,a3
    71f8:	bd5d                	j	70ae <__subdf3+0x730>
    71fa:	8742                	mv	a4,a6
    71fc:	892e                	mv	s2,a1
    71fe:	b04d                	j	6aa0 <__subdf3+0x122>
    7200:	7ff00713          	li	a4,2047
    7204:	0ee78863          	beq	a5,a4,72f4 <__subdf3+0x976>
    7208:	8742                	mv	a4,a6
    720a:	892e                	mv	s2,a1
    720c:	843e                	mv	s0,a5
    720e:	b4d5                	j	6cf2 <__subdf3+0x374>
    7210:	f6098ee3          	beqz	s3,718c <__subdf3+0x80e>
    7214:	478d                	li	a5,3
    7216:	1cf98563          	beq	s3,a5,73e0 <__subdf3+0xa62>
    721a:	4789                	li	a5,2
    721c:	14f98a63          	beq	s3,a5,7370 <__subdf3+0x9f2>
    7220:	1a099b63          	bnez	s3,73d6 <__subdf3+0xa58>
    7224:	4501                	li	a0,0
    7226:	4315                	li	t1,5
    7228:	7fe00413          	li	s0,2046
    722c:	577d                	li	a4,-1
    722e:	597d                	li	s2,-1
    7230:	be09                	j	6d42 <__subdf3+0x3c4>
    7232:	00b865b3          	or	a1,a6,a1
    7236:	10059263          	bnez	a1,733a <__subdf3+0x9bc>
    723a:	e0069ce3          	bnez	a3,7052 <__subdf3+0x6d4>
    723e:	060e                	slli	a2,a2,0x3
    7240:	01d81793          	slli	a5,a6,0x1d
    7244:	820d                	srli	a2,a2,0x3
    7246:	8e5d                	or	a2,a2,a5
    7248:	00385793          	srli	a5,a6,0x3
    724c:	b3bd                	j	6fba <__subdf3+0x63c>
    724e:	b80e83e3          	beqz	t4,6dd4 <__subdf3+0x456>
    7252:	00971593          	slli	a1,a4,0x9
    7256:	0005c363          	bltz	a1,725c <__subdf3+0x8de>
    725a:	4341                	li	t1,16
    725c:	7ff00593          	li	a1,2047
    7260:	f0b89ce3          	bne	a7,a1,7178 <__subdf3+0x7fa>
    7264:	12078863          	beqz	a5,7394 <__subdf3+0xa16>
    7268:	00981793          	slli	a5,a6,0x9
    726c:	0007c363          	bltz	a5,7272 <__subdf3+0x8f4>
    7270:	4341                	li	t1,16
    7272:	d40e97e3          	bnez	t4,6fc0 <__subdf3+0x642>
    7276:	00361793          	slli	a5,a2,0x3
    727a:	838d                	srli	a5,a5,0x3
    727c:	01d81613          	slli	a2,a6,0x1d
    7280:	8e5d                	or	a2,a2,a5
    7282:	84b6                	mv	s1,a3
    7284:	00385793          	srli	a5,a6,0x3
    7288:	bb0d                	j	6fba <__subdf3+0x63c>
    728a:	00c567b3          	or	a5,a0,a2
    728e:	d7b1                	beqz	a5,71da <__subdf3+0x85c>
    7290:	8e2a                	mv	t3,a0
    7292:	00757793          	andi	a5,a0,7
    7296:	8732                	mv	a4,a2
    7298:	8972                	mv	s2,t3
    729a:	b039                	j	6aa8 <__subdf3+0x12a>
    729c:	00b865b3          	or	a1,a6,a1
    72a0:	de058ce3          	beqz	a1,7098 <__subdf3+0x71a>
    72a4:	00361793          	slli	a5,a2,0x3
    72a8:	838d                	srli	a5,a5,0x3
    72aa:	01d81613          	slli	a2,a6,0x1d
    72ae:	becd                	j	6ea0 <__subdf3+0x522>
    72b0:	fe078613          	addi	a2,a5,-32
    72b4:	02000693          	li	a3,32
    72b8:	00c75933          	srl	s2,a4,a2
    72bc:	00d78a63          	beq	a5,a3,72d0 <__subdf3+0x952>
    72c0:	04000693          	li	a3,64
    72c4:	40f687b3          	sub	a5,a3,a5
    72c8:	00f717b3          	sll	a5,a4,a5
    72cc:	00fe6e33          	or	t3,t3,a5
    72d0:	01c03633          	snez	a2,t3
    72d4:	01266633          	or	a2,a2,s2
    72d8:	be61                	j	6e70 <__subdf3+0x4f2>
    72da:	00b86e33          	or	t3,a6,a1
    72de:	0e0e0263          	beqz	t3,73c2 <__subdf3+0xa44>
    72e2:	00981793          	slli	a5,a6,0x9
    72e6:	8742                	mv	a4,a6
    72e8:	8e2e                	mv	t3,a1
    72ea:	84b6                	mv	s1,a3
    72ec:	0007ce63          	bltz	a5,7308 <__subdf3+0x98a>
    72f0:	4341                	li	t1,16
    72f2:	bbed                	j	70ec <__subdf3+0x76e>
    72f4:	00b86e33          	or	t3,a6,a1
    72f8:	0e0e0163          	beqz	t3,73da <__subdf3+0xa5c>
    72fc:	00981793          	slli	a5,a6,0x9
    7300:	8742                	mv	a4,a6
    7302:	8e2e                	mv	t3,a1
    7304:	fe07d6e3          	bgez	a5,72f0 <__subdf3+0x972>
    7308:	4301                	li	t1,0
    730a:	b3cd                	j	70ec <__subdf3+0x76e>
    730c:	00be0933          	add	s2,t3,a1
    7310:	010707b3          	add	a5,a4,a6
    7314:	00b935b3          	sltu	a1,s2,a1
    7318:	00b78733          	add	a4,a5,a1
    731c:	b1ed                	j	7006 <__subdf3+0x688>
    731e:	c6d5                	beqz	a3,73ca <__subdf3+0xa4c>
    7320:	00971793          	slli	a5,a4,0x9
    7324:	0007c363          	bltz	a5,732a <__subdf3+0x9ac>
    7328:	4341                	li	t1,16
    732a:	7ff00793          	li	a5,2047
    732e:	d0f89ee3          	bne	a7,a5,704a <__subdf3+0x6cc>
    7332:	00b865b3          	or	a1,a6,a1
    7336:	d0058ee3          	beqz	a1,7052 <__subdf3+0x6d4>
    733a:	00981793          	slli	a5,a6,0x9
    733e:	0007c363          	bltz	a5,7344 <__subdf3+0x9c6>
    7342:	4341                	li	t1,16
    7344:	ee068de3          	beqz	a3,723e <__subdf3+0x8c0>
    7348:	b9a5                	j	6fc0 <__subdf3+0x642>
    734a:	00b865b3          	or	a1,a6,a1
    734e:	d40586e3          	beqz	a1,709a <__subdf3+0x71c>
    7352:	00400337          	lui	t1,0x400
    7356:	060e                	slli	a2,a2,0x3
    7358:	00687333          	and	t1,a6,t1
    735c:	01d81793          	slli	a5,a6,0x1d
    7360:	820d                	srli	a2,a2,0x3
    7362:	00133313          	seqz	t1,t1
    7366:	8e5d                	or	a2,a2,a5
    7368:	0312                	slli	t1,t1,0x4
    736a:	00385793          	srli	a5,a6,0x3
    736e:	b1b1                	j	6fba <__subdf3+0x63c>
    7370:	e0049ee3          	bnez	s1,718c <__subdf3+0x80e>
    7374:	7fe00413          	li	s0,2046
    7378:	577d                	li	a4,-1
    737a:	597d                	li	s2,-1
    737c:	4315                	li	t1,5
    737e:	f84ff06f          	j	6b02 <__subdf3+0x184>
    7382:	e00485e3          	beqz	s1,718c <__subdf3+0x80e>
    7386:	7fe00413          	li	s0,2046
    738a:	4501                	li	a0,0
    738c:	597d                	li	s2,-1
    738e:	577d                	li	a4,-1
    7390:	4315                	li	t1,5
    7392:	b2ed                	j	6d7c <__subdf3+0x3fe>
    7394:	a40e84e3          	beqz	t4,6ddc <__subdf3+0x45e>
    7398:	b3d5                	j	717c <__subdf3+0x7fe>
    739a:	00b865b3          	or	a1,a6,a1
    739e:	ce058ee3          	beqz	a1,709a <__subdf3+0x71c>
    73a2:	00400337          	lui	t1,0x400
    73a6:	00361793          	slli	a5,a2,0x3
    73aa:	00687333          	and	t1,a6,t1
    73ae:	838d                	srli	a5,a5,0x3
    73b0:	01d81613          	slli	a2,a6,0x1d
    73b4:	00133313          	seqz	t1,t1
    73b8:	8e5d                	or	a2,a2,a5
    73ba:	0312                	slli	t1,t1,0x4
    73bc:	00385793          	srli	a5,a6,0x3
    73c0:	beed                	j	6fba <__subdf3+0x63c>
    73c2:	4701                	li	a4,0
    73c4:	84b6                	mv	s1,a3
    73c6:	4301                	li	t1,0
    73c8:	b315                	j	70ec <__subdf3+0x76e>
    73ca:	e6889ae3          	bne	a7,s0,723e <__subdf3+0x8c0>
    73ce:	00b865b3          	or	a1,a6,a1
    73d2:	f5a5                	bnez	a1,733a <__subdf3+0x9bc>
    73d4:	b5ad                	j	723e <__subdf3+0x8c0>
    73d6:	4315                	li	t1,5
    73d8:	ba2d                	j	6d12 <__subdf3+0x394>
    73da:	4701                	li	a4,0
    73dc:	4301                	li	t1,0
    73de:	b339                	j	70ec <__subdf3+0x76e>
    73e0:	da0486e3          	beqz	s1,718c <__subdf3+0x80e>
    73e4:	4501                	li	a0,0
    73e6:	7fe00413          	li	s0,2046
    73ea:	597d                	li	s2,-1
    73ec:	577d                	li	a4,-1
    73ee:	4315                	li	t1,5
    73f0:	b271                	j	6d7c <__subdf3+0x3fe>
    73f2:	008005b7          	lui	a1,0x800
    73f6:	8df9                	and	a1,a1,a4
    73f8:	4401                	li	s0,0
    73fa:	f0069263          	bnez	a3,6afe <__subdf3+0x180>
    73fe:	f0030063          	beqz	t1,6afe <__subdf3+0x180>
    7402:	00236313          	ori	t1,t1,2
    7406:	ef8ff06f          	j	6afe <__subdf3+0x180>

0000740a <__unorddf2>:
__unorddf2():
    740a:	832a                	mv	t1,a0
    740c:	002027f3          	frrm	a5
    7410:	001007b7          	lui	a5,0x100
    7414:	0145d713          	srli	a4,a1,0x14
    7418:	17fd                	addi	a5,a5,-1
    741a:	0146d813          	srli	a6,a3,0x14
    741e:	7ff77713          	andi	a4,a4,2047
    7422:	7ff00893          	li	a7,2047
    7426:	8dfd                	and	a1,a1,a5
    7428:	8ff5                	and	a5,a5,a3
    742a:	7ff87693          	andi	a3,a6,2047
    742e:	03170563          	beq	a4,a7,7458 <__unorddf2+0x4e>
    7432:	7ff00813          	li	a6,2047
    7436:	4501                	li	a0,0
    7438:	01068363          	beq	a3,a6,743e <__unorddf2+0x34>
    743c:	8082                	ret
    743e:	8e5d                	or	a2,a2,a5
    7440:	c61d                	beqz	a2,746e <__unorddf2+0x64>
    7442:	02d70763          	beq	a4,a3,7470 <__unorddf2+0x66>
    7446:	00c79713          	slli	a4,a5,0xc
    744a:	4505                	li	a0,1
    744c:	fe0748e3          	bltz	a4,743c <__unorddf2+0x32>
    7450:	00186073          	csrsi	fflags,16
    7454:	4505                	li	a0,1
    7456:	8082                	ret
    7458:	8d4d                	or	a0,a0,a1
    745a:	dd61                	beqz	a0,7432 <__unorddf2+0x28>
    745c:	00c59513          	slli	a0,a1,0xc
    7460:	fe0558e3          	bgez	a0,7450 <__unorddf2+0x46>
    7464:	4505                	li	a0,1
    7466:	fce69be3          	bne	a3,a4,743c <__unorddf2+0x32>
    746a:	8e5d                	or	a2,a2,a5
    746c:	a811                	j	7480 <__unorddf2+0x76>
    746e:	8082                	ret
    7470:	0065e333          	or	t1,a1,t1
    7474:	fc0309e3          	beqz	t1,7446 <__unorddf2+0x3c>
    7478:	00c59713          	slli	a4,a1,0xc
    747c:	fc075ae3          	bgez	a4,7450 <__unorddf2+0x46>
    7480:	4505                	li	a0,1
    7482:	f271                	bnez	a2,7446 <__unorddf2+0x3c>
    7484:	8082                	ret

00007486 <__fixdfsi>:
__fixdfsi():
    7486:	88aa                	mv	a7,a0
    7488:	002027f3          	frrm	a5
    748c:	00100537          	lui	a0,0x100
    7490:	0145d793          	srli	a5,a1,0x14
    7494:	fff50693          	addi	a3,a0,-1 # fffff <_data_lma+0xf4c2b>
    7498:	7ff7f793          	andi	a5,a5,2047
    749c:	3fe00713          	li	a4,1022
    74a0:	00b6f633          	and	a2,a3,a1
    74a4:	8846                	mv	a6,a7
    74a6:	81fd                	srli	a1,a1,0x1f
    74a8:	00f74b63          	blt	a4,a5,74be <__fixdfsi+0x38>
    74ac:	e781                	bnez	a5,74b4 <__fixdfsi+0x2e>
    74ae:	01166533          	or	a0,a2,a7
    74b2:	c14d                	beqz	a0,7554 <__fixdfsi+0xce>
    74b4:	4501                	li	a0,0
    74b6:	4805                	li	a6,1
    74b8:	00182073          	csrs	fflags,a6
    74bc:	8082                	ret
    74be:	41d00713          	li	a4,1053
    74c2:	02f75863          	bge	a4,a5,74f2 <__fixdfsi+0x6c>
    74c6:	800006b7          	lui	a3,0x80000
    74ca:	fff6c693          	not	a3,a3
    74ce:	00d58533          	add	a0,a1,a3
    74d2:	cdad                	beqz	a1,754c <__fixdfsi+0xc6>
    74d4:	41e00713          	li	a4,1054
    74d8:	4841                	li	a6,16
    74da:	fce79fe3          	bne	a5,a4,74b8 <__fixdfsi+0x32>
    74de:	00b61793          	slli	a5,a2,0xb
    74e2:	0158d613          	srli	a2,a7,0x15
    74e6:	8fd1                	or	a5,a5,a2
    74e8:	fbe1                	bnez	a5,74b8 <__fixdfsi+0x32>
    74ea:	08ae                	slli	a7,a7,0xb
    74ec:	06089563          	bnez	a7,7556 <__fixdfsi+0xd0>
    74f0:	8082                	ret
    74f2:	43300713          	li	a4,1075
    74f6:	8f1d                	sub	a4,a4,a5
    74f8:	437d                	li	t1,31
    74fa:	00a666b3          	or	a3,a2,a0
    74fe:	02e35b63          	bge	t1,a4,7534 <__fixdfsi+0xae>
    7502:	02000613          	li	a2,32
    7506:	00c70863          	beq	a4,a2,7516 <__fixdfsi+0x90>
    750a:	c0d78813          	addi	a6,a5,-1011 # ffc0d <_data_lma+0xf4839>
    750e:	01069833          	sll	a6,a3,a6
    7512:	01186833          	or	a6,a6,a7
    7516:	41300513          	li	a0,1043
    751a:	8d1d                	sub	a0,a0,a5
    751c:	01003833          	snez	a6,a6
    7520:	00a6d533          	srl	a0,a3,a0
    7524:	c199                	beqz	a1,752a <__fixdfsi+0xa4>
    7526:	40a00533          	neg	a0,a0
    752a:	f80809e3          	beqz	a6,74bc <__fixdfsi+0x36>
    752e:	00182073          	csrs	fflags,a6
    7532:	b769                	j	74bc <__fixdfsi+0x36>
    7534:	bed78793          	addi	a5,a5,-1043
    7538:	00f89833          	sll	a6,a7,a5
    753c:	00e8d533          	srl	a0,a7,a4
    7540:	00f697b3          	sll	a5,a3,a5
    7544:	01003833          	snez	a6,a6
    7548:	8d5d                	or	a0,a0,a5
    754a:	bfe9                	j	7524 <__fixdfsi+0x9e>
    754c:	4841                	li	a6,16
    754e:	00182073          	csrs	fflags,a6
    7552:	b7ad                	j	74bc <__fixdfsi+0x36>
    7554:	8082                	ret
    7556:	4805                	li	a6,1
    7558:	00182073          	csrs	fflags,a6
    755c:	b785                	j	74bc <__fixdfsi+0x36>

0000755e <__floatsidf>:
__floatsidf():
    755e:	1141                	addi	sp,sp,-16
    7560:	c606                	sw	ra,12(sp)
    7562:	c422                	sw	s0,8(sp)
    7564:	c226                	sw	s1,4(sp)
    7566:	cd05                	beqz	a0,759e <__floatsidf+0x40>
    7568:	41f55793          	srai	a5,a0,0x1f
    756c:	00a7c4b3          	xor	s1,a5,a0
    7570:	8c9d                	sub	s1,s1,a5
    7572:	842a                	mv	s0,a0
    7574:	8526                	mv	a0,s1
    7576:	287d                	jal	7634 <__clzsi2>
    7578:	41e00693          	li	a3,1054
    757c:	8e89                	sub	a3,a3,a0
    757e:	47a9                	li	a5,10
    7580:	807d                	srli	s0,s0,0x1f
    7582:	7ff6f693          	andi	a3,a3,2047
    7586:	02a7cd63          	blt	a5,a0,75c0 <__floatsidf+0x62>
    758a:	472d                	li	a4,11
    758c:	8f09                	sub	a4,a4,a0
    758e:	00e4d7b3          	srl	a5,s1,a4
    7592:	0555                	addi	a0,a0,21
    7594:	07b2                	slli	a5,a5,0xc
    7596:	00a494b3          	sll	s1,s1,a0
    759a:	83b1                	srli	a5,a5,0xc
    759c:	a029                	j	75a6 <__floatsidf+0x48>
    759e:	4401                	li	s0,0
    75a0:	4681                	li	a3,0
    75a2:	4781                	li	a5,0
    75a4:	4481                	li	s1,0
    75a6:	07b2                	slli	a5,a5,0xc
    75a8:	06d2                	slli	a3,a3,0x14
    75aa:	83b1                	srli	a5,a5,0xc
    75ac:	047e                	slli	s0,s0,0x1f
    75ae:	8fd5                	or	a5,a5,a3
    75b0:	8fc1                	or	a5,a5,s0
    75b2:	40b2                	lw	ra,12(sp)
    75b4:	4422                	lw	s0,8(sp)
    75b6:	8526                	mv	a0,s1
    75b8:	85be                	mv	a1,a5
    75ba:	4492                	lw	s1,4(sp)
    75bc:	0141                	addi	sp,sp,16
    75be:	8082                	ret
    75c0:	1555                	addi	a0,a0,-11
    75c2:	00a497b3          	sll	a5,s1,a0
    75c6:	07b2                	slli	a5,a5,0xc
    75c8:	83b1                	srli	a5,a5,0xc
    75ca:	4481                	li	s1,0
    75cc:	bfe9                	j	75a6 <__floatsidf+0x48>

000075ce <__floatunsidf>:
__floatunsidf():
    75ce:	cd15                	beqz	a0,760a <__floatunsidf+0x3c>
    75d0:	1141                	addi	sp,sp,-16
    75d2:	c422                	sw	s0,8(sp)
    75d4:	c606                	sw	ra,12(sp)
    75d6:	842a                	mv	s0,a0
    75d8:	28b1                	jal	7634 <__clzsi2>
    75da:	41e00693          	li	a3,1054
    75de:	8e89                	sub	a3,a3,a0
    75e0:	47a9                	li	a5,10
    75e2:	7ff6f693          	andi	a3,a3,2047
    75e6:	02a7dc63          	bge	a5,a0,761e <__floatunsidf+0x50>
    75ea:	1555                	addi	a0,a0,-11
    75ec:	00a417b3          	sll	a5,s0,a0
    75f0:	07b2                	slli	a5,a5,0xc
    75f2:	83b1                	srli	a5,a5,0xc
    75f4:	4701                	li	a4,0
    75f6:	40b2                	lw	ra,12(sp)
    75f8:	4422                	lw	s0,8(sp)
    75fa:	07b2                	slli	a5,a5,0xc
    75fc:	06d2                	slli	a3,a3,0x14
    75fe:	83b1                	srli	a5,a5,0xc
    7600:	8fd5                	or	a5,a5,a3
    7602:	853a                	mv	a0,a4
    7604:	85be                	mv	a1,a5
    7606:	0141                	addi	sp,sp,16
    7608:	8082                	ret
    760a:	4781                	li	a5,0
    760c:	4681                	li	a3,0
    760e:	07b2                	slli	a5,a5,0xc
    7610:	06d2                	slli	a3,a3,0x14
    7612:	83b1                	srli	a5,a5,0xc
    7614:	4701                	li	a4,0
    7616:	8fd5                	or	a5,a5,a3
    7618:	853a                	mv	a0,a4
    761a:	85be                	mv	a1,a5
    761c:	8082                	ret
    761e:	472d                	li	a4,11
    7620:	8f09                	sub	a4,a4,a0
    7622:	00e457b3          	srl	a5,s0,a4
    7626:	07b2                	slli	a5,a5,0xc
    7628:	01550713          	addi	a4,a0,21
    762c:	00e41733          	sll	a4,s0,a4
    7630:	83b1                	srli	a5,a5,0xc
    7632:	b7d1                	j	75f6 <__floatunsidf+0x28>

00007634 <__clzsi2>:
__clzsi2():
    7634:	67c1                	lui	a5,0x10
    7636:	02f57e63          	bgeu	a0,a5,7672 <__clzsi2+0x3e>
    763a:	0ff00793          	li	a5,255
    763e:	02000713          	li	a4,32
    7642:	00a7ec63          	bltu	a5,a0,765a <__clzsi2+0x26>
    7646:	00004797          	auipc	a5,0x4
    764a:	96a78793          	addi	a5,a5,-1686 # afb0 <__clz_tab>
    764e:	97aa                	add	a5,a5,a0
    7650:	0007c503          	lbu	a0,0(a5)
    7654:	40a70533          	sub	a0,a4,a0
    7658:	8082                	ret
    765a:	8121                	srli	a0,a0,0x8
    765c:	00004797          	auipc	a5,0x4
    7660:	95478793          	addi	a5,a5,-1708 # afb0 <__clz_tab>
    7664:	97aa                	add	a5,a5,a0
    7666:	0007c503          	lbu	a0,0(a5)
    766a:	4761                	li	a4,24
    766c:	40a70533          	sub	a0,a4,a0
    7670:	8082                	ret
    7672:	010007b7          	lui	a5,0x1000
    7676:	00f56e63          	bltu	a0,a5,7692 <__clzsi2+0x5e>
    767a:	8161                	srli	a0,a0,0x18
    767c:	00004797          	auipc	a5,0x4
    7680:	93478793          	addi	a5,a5,-1740 # afb0 <__clz_tab>
    7684:	97aa                	add	a5,a5,a0
    7686:	0007c503          	lbu	a0,0(a5)
    768a:	4721                	li	a4,8
    768c:	40a70533          	sub	a0,a4,a0
    7690:	8082                	ret
    7692:	8141                	srli	a0,a0,0x10
    7694:	00004797          	auipc	a5,0x4
    7698:	91c78793          	addi	a5,a5,-1764 # afb0 <__clz_tab>
    769c:	97aa                	add	a5,a5,a0
    769e:	0007c503          	lbu	a0,0(a5)
    76a2:	4741                	li	a4,16
    76a4:	40a70533          	sub	a0,a4,a0
    76a8:	8082                	ret

000076aa <memcpy>:
memcpy():
    76aa:	00a5c7b3          	xor	a5,a1,a0
    76ae:	8b8d                	andi	a5,a5,3
    76b0:	00c50733          	add	a4,a0,a2
    76b4:	e781                	bnez	a5,76bc <memcpy+0x12>
    76b6:	478d                	li	a5,3
    76b8:	00c7ee63          	bltu	a5,a2,76d4 <memcpy+0x2a>
    76bc:	87aa                	mv	a5,a0
    76be:	0ae57063          	bgeu	a0,a4,775e <memcpy+0xb4>
    76c2:	0005c683          	lbu	a3,0(a1) # 800000 <_data_lma+0x7f4c2c>
    76c6:	0785                	addi	a5,a5,1
    76c8:	0585                	addi	a1,a1,1
    76ca:	fed78fa3          	sb	a3,-1(a5)
    76ce:	fee7eae3          	bltu	a5,a4,76c2 <memcpy+0x18>
    76d2:	8082                	ret
    76d4:	00357693          	andi	a3,a0,3
    76d8:	87aa                	mv	a5,a0
    76da:	ca91                	beqz	a3,76ee <memcpy+0x44>
    76dc:	0005c683          	lbu	a3,0(a1)
    76e0:	0785                	addi	a5,a5,1
    76e2:	0585                	addi	a1,a1,1
    76e4:	fed78fa3          	sb	a3,-1(a5)
    76e8:	0037f693          	andi	a3,a5,3
    76ec:	b7fd                	j	76da <memcpy+0x30>
    76ee:	ffc77693          	andi	a3,a4,-4
    76f2:	fe068613          	addi	a2,a3,-32 # 7fffffe0 <_eusrstack+0x5ffeffe0>
    76f6:	06c7f063          	bgeu	a5,a2,7756 <memcpy+0xac>
    76fa:	0005a383          	lw	t2,0(a1)
    76fe:	0045a283          	lw	t0,4(a1)
    7702:	0085af83          	lw	t6,8(a1)
    7706:	00c5af03          	lw	t5,12(a1)
    770a:	0105ae83          	lw	t4,16(a1)
    770e:	0145ae03          	lw	t3,20(a1)
    7712:	0185a303          	lw	t1,24(a1)
    7716:	01c5a883          	lw	a7,28(a1)
    771a:	02458593          	addi	a1,a1,36
    771e:	0077a023          	sw	t2,0(a5)
    7722:	ffc5a803          	lw	a6,-4(a1)
    7726:	0057a223          	sw	t0,4(a5)
    772a:	01f7a423          	sw	t6,8(a5)
    772e:	01e7a623          	sw	t5,12(a5)
    7732:	01d7a823          	sw	t4,16(a5)
    7736:	01c7aa23          	sw	t3,20(a5)
    773a:	0067ac23          	sw	t1,24(a5)
    773e:	0117ae23          	sw	a7,28(a5)
    7742:	02478793          	addi	a5,a5,36
    7746:	ff07ae23          	sw	a6,-4(a5)
    774a:	b775                	j	76f6 <memcpy+0x4c>
    774c:	4190                	lw	a2,0(a1)
    774e:	0791                	addi	a5,a5,4
    7750:	0591                	addi	a1,a1,4
    7752:	fec7ae23          	sw	a2,-4(a5)
    7756:	fed7ebe3          	bltu	a5,a3,774c <memcpy+0xa2>
    775a:	f6e7e4e3          	bltu	a5,a4,76c2 <memcpy+0x18>
    775e:	8082                	ret

00007760 <__cvt>:
__cvt():
    7760:	7179                	addi	sp,sp,-48
    7762:	d422                	sw	s0,40(sp)
    7764:	d04a                	sw	s2,32(sp)
    7766:	cc52                	sw	s4,24(sp)
    7768:	ca56                	sw	s5,20(sp)
    776a:	c85a                	sw	s6,16(sp)
    776c:	d606                	sw	ra,44(sp)
    776e:	d226                	sw	s1,36(sp)
    7770:	ce4e                	sw	s3,28(sp)
    7772:	8a3a                	mv	s4,a4
    7774:	8aae                	mv	s5,a1
    7776:	8432                	mv	s0,a2
    7778:	8936                	mv	s2,a3
    777a:	8b42                	mv	s6,a6
    777c:	4701                	li	a4,0
    777e:	00065863          	bgez	a2,778e <__cvt+0x2e>
    7782:	80000737          	lui	a4,0x80000
    7786:	00c74433          	xor	s0,a4,a2
    778a:	02d00713          	li	a4,45
    778e:	00e78023          	sb	a4,0(a5)
    7792:	fdf8f493          	andi	s1,a7,-33
    7796:	04600793          	li	a5,70
    779a:	468d                	li	a3,3
    779c:	00f48863          	beq	s1,a5,77ac <__cvt+0x4c>
    77a0:	04500793          	li	a5,69
    77a4:	4689                	li	a3,2
    77a6:	00f49363          	bne	s1,a5,77ac <__cvt+0x4c>
    77aa:	0905                	addi	s2,s2,1
    77ac:	87da                	mv	a5,s6
    77ae:	00c10893          	addi	a7,sp,12
    77b2:	00810813          	addi	a6,sp,8
    77b6:	874a                	mv	a4,s2
    77b8:	85d6                	mv	a1,s5
    77ba:	8622                	mv	a2,s0
    77bc:	36f000ef          	jal	ra,832a <_dtoa_r>
    77c0:	04700793          	li	a5,71
    77c4:	89aa                	mv	s3,a0
    77c6:	00f49663          	bne	s1,a5,77d2 <__cvt+0x72>
    77ca:	001a7a13          	andi	s4,s4,1
    77ce:	040a0a63          	beqz	s4,7822 <__cvt+0xc2>
    77d2:	04600793          	li	a5,70
    77d6:	01298a33          	add	s4,s3,s2
    77da:	02f49763          	bne	s1,a5,7808 <__cvt+0xa8>
    77de:	0009c703          	lbu	a4,0(s3)
    77e2:	03000793          	li	a5,48
    77e6:	00f71e63          	bne	a4,a5,7802 <__cvt+0xa2>
    77ea:	4601                	li	a2,0
    77ec:	4681                	li	a3,0
    77ee:	8556                	mv	a0,s5
    77f0:	85a2                	mv	a1,s0
    77f2:	933fe0ef          	jal	ra,6124 <__eqdf2>
    77f6:	c511                	beqz	a0,7802 <__cvt+0xa2>
    77f8:	4785                	li	a5,1
    77fa:	41278933          	sub	s2,a5,s2
    77fe:	012b2023          	sw	s2,0(s6)
    7802:	000b2783          	lw	a5,0(s6)
    7806:	9a3e                	add	s4,s4,a5
    7808:	4601                	li	a2,0
    780a:	4681                	li	a3,0
    780c:	8556                	mv	a0,s5
    780e:	85a2                	mv	a1,s0
    7810:	915fe0ef          	jal	ra,6124 <__eqdf2>
    7814:	e111                	bnez	a0,7818 <__cvt+0xb8>
    7816:	c652                	sw	s4,12(sp)
    7818:	03000713          	li	a4,48
    781c:	47b2                	lw	a5,12(sp)
    781e:	0347e263          	bltu	a5,s4,7842 <__cvt+0xe2>
    7822:	47b2                	lw	a5,12(sp)
    7824:	5742                	lw	a4,48(sp)
    7826:	50b2                	lw	ra,44(sp)
    7828:	5422                	lw	s0,40(sp)
    782a:	413787b3          	sub	a5,a5,s3
    782e:	c31c                	sw	a5,0(a4)
    7830:	854e                	mv	a0,s3
    7832:	5492                	lw	s1,36(sp)
    7834:	5902                	lw	s2,32(sp)
    7836:	49f2                	lw	s3,28(sp)
    7838:	4a62                	lw	s4,24(sp)
    783a:	4ad2                	lw	s5,20(sp)
    783c:	4b42                	lw	s6,16(sp)
    783e:	6145                	addi	sp,sp,48
    7840:	8082                	ret
    7842:	00178693          	addi	a3,a5,1
    7846:	c636                	sw	a3,12(sp)
    7848:	00e78023          	sb	a4,0(a5)
    784c:	bfc1                	j	781c <__cvt+0xbc>

0000784e <__exponent>:
__exponent():
    784e:	00c50023          	sb	a2,0(a0)
    7852:	00250713          	addi	a4,a0,2
    7856:	02b00793          	li	a5,43
    785a:	0005d663          	bgez	a1,7866 <__exponent+0x18>
    785e:	40b005b3          	neg	a1,a1
    7862:	02d00793          	li	a5,45
    7866:	00f500a3          	sb	a5,1(a0)
    786a:	47a5                	li	a5,9
    786c:	04b7da63          	bge	a5,a1,78c0 <__exponent+0x72>
    7870:	1141                	addi	sp,sp,-16
    7872:	00f10793          	addi	a5,sp,15
    7876:	88be                	mv	a7,a5
    7878:	4829                	li	a6,10
    787a:	06300313          	li	t1,99
    787e:	0305e6b3          	rem	a3,a1,a6
    7882:	fff78613          	addi	a2,a5,-1
    7886:	03068693          	addi	a3,a3,48
    788a:	fed78fa3          	sb	a3,-1(a5)
    788e:	0305c6b3          	div	a3,a1,a6
    7892:	00b34d63          	blt	t1,a1,78ac <__exponent+0x5e>
    7896:	03068693          	addi	a3,a3,48
    789a:	17f9                	addi	a5,a5,-2
    789c:	fed60fa3          	sb	a3,-1(a2) # ffffff <_data_lma+0xff4c2b>
    78a0:	0117e963          	bltu	a5,a7,78b2 <__exponent+0x64>
    78a4:	40a70533          	sub	a0,a4,a0
    78a8:	0141                	addi	sp,sp,16
    78aa:	8082                	ret
    78ac:	87b2                	mv	a5,a2
    78ae:	85b6                	mv	a1,a3
    78b0:	b7f9                	j	787e <__exponent+0x30>
    78b2:	0785                	addi	a5,a5,1
    78b4:	fff7c683          	lbu	a3,-1(a5)
    78b8:	0705                	addi	a4,a4,1
    78ba:	fed70fa3          	sb	a3,-1(a4) # 7fffffff <_eusrstack+0x5ffeffff>
    78be:	b7cd                	j	78a0 <__exponent+0x52>
    78c0:	03000793          	li	a5,48
    78c4:	00450713          	addi	a4,a0,4
    78c8:	03058593          	addi	a1,a1,48
    78cc:	00f50123          	sb	a5,2(a0)
    78d0:	00b501a3          	sb	a1,3(a0)
    78d4:	40a70533          	sub	a0,a4,a0
    78d8:	8082                	ret

000078da <_printf_float>:
_printf_float():
    78da:	7119                	addi	sp,sp,-128
    78dc:	ce3a                	sw	a4,28(sp)
    78de:	de86                	sw	ra,124(sp)
    78e0:	dca2                	sw	s0,120(sp)
    78e2:	daa6                	sw	s1,116(sp)
    78e4:	842e                	mv	s0,a1
    78e6:	d8ca                	sw	s2,112(sp)
    78e8:	d6ce                	sw	s3,108(sp)
    78ea:	d4d2                	sw	s4,104(sp)
    78ec:	89b6                	mv	s3,a3
    78ee:	d0da                	sw	s6,96(sp)
    78f0:	cede                	sw	s7,92(sp)
    78f2:	cce2                	sw	s8,88(sp)
    78f4:	8932                	mv	s2,a2
    78f6:	d2d6                	sw	s5,100(sp)
    78f8:	cae6                	sw	s9,84(sp)
    78fa:	c8ea                	sw	s10,80(sp)
    78fc:	c6ee                	sw	s11,76(sp)
    78fe:	84aa                	mv	s1,a0
    7900:	049010ef          	jal	ra,9148 <_localeconv_r>
    7904:	00052b83          	lw	s7,0(a0)
    7908:	855e                	mv	a0,s7
    790a:	0d5000ef          	jal	ra,81de <strlen>
    790e:	00042b03          	lw	s6,0(s0)
    7912:	4772                	lw	a4,28(sp)
    7914:	dc02                	sw	zero,56(sp)
    7916:	100b7693          	andi	a3,s6,256
    791a:	8c2a                	mv	s8,a0
    791c:	01844a03          	lbu	s4,24(s0)
    7920:	431c                	lw	a5,0(a4)
    7922:	caf1                	beqz	a3,79f6 <_printf_float+0x11c>
    7924:	00478693          	addi	a3,a5,4
    7928:	c314                	sw	a3,0(a4)
    792a:	439c                	lw	a5,0(a5)
    792c:	1008                	addi	a0,sp,32
    792e:	4398                	lw	a4,0(a5)
    7930:	d03a                	sw	a4,32(sp)
    7932:	43d8                	lw	a4,4(a5)
    7934:	d23a                	sw	a4,36(sp)
    7936:	4798                	lw	a4,8(a5)
    7938:	d43a                	sw	a4,40(sp)
    793a:	47dc                	lw	a5,12(a5)
    793c:	d63e                	sw	a5,44(sp)
    793e:	6c3020ef          	jal	ra,a800 <__trunctfdf2>
    7942:	c428                	sw	a0,72(s0)
    7944:	c46c                	sw	a1,76(s0)
    7946:	04c42c83          	lw	s9,76(s0)
    794a:	00003717          	auipc	a4,0x3
    794e:	76670713          	addi	a4,a4,1894 # b0b0 <__clz_tab+0x100>
    7952:	04842a83          	lw	s5,72(s0)
    7956:	00072d03          	lw	s10,0(a4)
    795a:	00472d83          	lw	s11,4(a4)
    795e:	001c9793          	slli	a5,s9,0x1
    7962:	8385                	srli	a5,a5,0x1
    7964:	866a                	mv	a2,s10
    7966:	86ee                	mv	a3,s11
    7968:	8556                	mv	a0,s5
    796a:	85be                	mv	a1,a5
    796c:	ce3e                	sw	a5,28(sp)
    796e:	a9dff0ef          	jal	ra,740a <__unorddf2>
    7972:	ed41                	bnez	a0,7a0a <_printf_float+0x130>
    7974:	47f2                	lw	a5,28(sp)
    7976:	866a                	mv	a2,s10
    7978:	86ee                	mv	a3,s11
    797a:	8556                	mv	a0,s5
    797c:	85be                	mv	a1,a5
    797e:	8f5fe0ef          	jal	ra,6272 <__ledf2>
    7982:	08a05463          	blez	a0,7a0a <_printf_float+0x130>
    7986:	4601                	li	a2,0
    7988:	4681                	li	a3,0
    798a:	8556                	mv	a0,s5
    798c:	85e6                	mv	a1,s9
    798e:	8e5fe0ef          	jal	ra,6272 <__ledf2>
    7992:	00055663          	bgez	a0,799e <_printf_float+0xc4>
    7996:	02d00793          	li	a5,45
    799a:	04f401a3          	sb	a5,67(s0)
    799e:	04700793          	li	a5,71
    79a2:	00003a97          	auipc	s5,0x3
    79a6:	716a8a93          	addi	s5,s5,1814 # b0b8 <__clz_tab+0x108>
    79aa:	0147f663          	bgeu	a5,s4,79b6 <_printf_float+0xdc>
    79ae:	00003a97          	auipc	s5,0x3
    79b2:	70ea8a93          	addi	s5,s5,1806 # b0bc <__clz_tab+0x10c>
    79b6:	ffbb7b13          	andi	s6,s6,-5
    79ba:	478d                	li	a5,3
    79bc:	01642023          	sw	s6,0(s0)
    79c0:	c81c                	sw	a5,16(s0)
    79c2:	4b01                	li	s6,0
    79c4:	874e                	mv	a4,s3
    79c6:	86ca                	mv	a3,s2
    79c8:	1870                	addi	a2,sp,60
    79ca:	85a2                	mv	a1,s0
    79cc:	8526                	mv	a0,s1
    79ce:	2ec1                	jal	7d9e <_printf_common>
    79d0:	5cfd                	li	s9,-1
    79d2:	15951e63          	bne	a0,s9,7b2e <_printf_float+0x254>
    79d6:	557d                	li	a0,-1
    79d8:	50f6                	lw	ra,124(sp)
    79da:	5466                	lw	s0,120(sp)
    79dc:	54d6                	lw	s1,116(sp)
    79de:	5946                	lw	s2,112(sp)
    79e0:	59b6                	lw	s3,108(sp)
    79e2:	5a26                	lw	s4,104(sp)
    79e4:	5a96                	lw	s5,100(sp)
    79e6:	5b06                	lw	s6,96(sp)
    79e8:	4bf6                	lw	s7,92(sp)
    79ea:	4c66                	lw	s8,88(sp)
    79ec:	4cd6                	lw	s9,84(sp)
    79ee:	4d46                	lw	s10,80(sp)
    79f0:	4db6                	lw	s11,76(sp)
    79f2:	6109                	addi	sp,sp,128
    79f4:	8082                	ret
    79f6:	079d                	addi	a5,a5,7
    79f8:	9be1                	andi	a5,a5,-8
    79fa:	00878693          	addi	a3,a5,8
    79fe:	c314                	sw	a3,0(a4)
    7a00:	4398                	lw	a4,0(a5)
    7a02:	43dc                	lw	a5,4(a5)
    7a04:	c438                	sw	a4,72(s0)
    7a06:	c47c                	sw	a5,76(s0)
    7a08:	bf3d                	j	7946 <_printf_float+0x6c>
    7a0a:	8656                	mv	a2,s5
    7a0c:	86e6                	mv	a3,s9
    7a0e:	8556                	mv	a0,s5
    7a10:	85e6                	mv	a1,s9
    7a12:	9f9ff0ef          	jal	ra,740a <__unorddf2>
    7a16:	cd11                	beqz	a0,7a32 <_printf_float+0x158>
    7a18:	04700793          	li	a5,71
    7a1c:	00003a97          	auipc	s5,0x3
    7a20:	6a4a8a93          	addi	s5,s5,1700 # b0c0 <__clz_tab+0x110>
    7a24:	f947f9e3          	bgeu	a5,s4,79b6 <_printf_float+0xdc>
    7a28:	00003a97          	auipc	s5,0x3
    7a2c:	69ca8a93          	addi	s5,s5,1692 # b0c4 <__clz_tab+0x114>
    7a30:	b759                	j	79b6 <_printf_float+0xdc>
    7a32:	405c                	lw	a5,4(s0)
    7a34:	577d                	li	a4,-1
    7a36:	0dfa7d13          	andi	s10,s4,223
    7a3a:	08e79563          	bne	a5,a4,7ac4 <_printf_float+0x1ea>
    7a3e:	4799                	li	a5,6
    7a40:	c05c                	sw	a5,4(s0)
    7a42:	4054                	lw	a3,4(s0)
    7a44:	400b6713          	ori	a4,s6,1024
    7a48:	183c                	addi	a5,sp,56
    7a4a:	85d6                	mv	a1,s5
    7a4c:	c03e                	sw	a5,0(sp)
    7a4e:	c018                	sw	a4,0(s0)
    7a50:	03310793          	addi	a5,sp,51
    7a54:	c202                	sw	zero,4(sp)
    7a56:	88d2                	mv	a7,s4
    7a58:	03410813          	addi	a6,sp,52
    7a5c:	8666                	mv	a2,s9
    7a5e:	8526                	mv	a0,s1
    7a60:	d01ff0ef          	jal	ra,7760 <__cvt>
    7a64:	04700793          	li	a5,71
    7a68:	8aaa                	mv	s5,a0
    7a6a:	55d2                	lw	a1,52(sp)
    7a6c:	00fd1b63          	bne	s10,a5,7a82 <_printf_float+0x1a8>
    7a70:	57f5                	li	a5,-3
    7a72:	00f5c563          	blt	a1,a5,7a7c <_printf_float+0x1a2>
    7a76:	405c                	lw	a5,4(s0)
    7a78:	08b7d863          	bge	a5,a1,7b08 <_printf_float+0x22e>
    7a7c:	1a79                	addi	s4,s4,-2
    7a7e:	0ffa7a13          	andi	s4,s4,255
    7a82:	06500793          	li	a5,101
    7a86:	0547e663          	bltu	a5,s4,7ad2 <_printf_float+0x1f8>
    7a8a:	15fd                	addi	a1,a1,-1
    7a8c:	8652                	mv	a2,s4
    7a8e:	05040513          	addi	a0,s0,80
    7a92:	da2e                	sw	a1,52(sp)
    7a94:	dbbff0ef          	jal	ra,784e <__exponent>
    7a98:	5762                	lw	a4,56(sp)
    7a9a:	4685                	li	a3,1
    7a9c:	8b2a                	mv	s6,a0
    7a9e:	00a707b3          	add	a5,a4,a0
    7aa2:	c81c                	sw	a5,16(s0)
    7aa4:	00e6c563          	blt	a3,a4,7aae <_printf_float+0x1d4>
    7aa8:	4018                	lw	a4,0(s0)
    7aaa:	8b05                	andi	a4,a4,1
    7aac:	c319                	beqz	a4,7ab2 <_printf_float+0x1d8>
    7aae:	0785                	addi	a5,a5,1
    7ab0:	c81c                	sw	a5,16(s0)
    7ab2:	03314783          	lbu	a5,51(sp)
    7ab6:	f00787e3          	beqz	a5,79c4 <_printf_float+0xea>
    7aba:	02d00793          	li	a5,45
    7abe:	04f401a3          	sb	a5,67(s0)
    7ac2:	b709                	j	79c4 <_printf_float+0xea>
    7ac4:	04700713          	li	a4,71
    7ac8:	f6ed1de3          	bne	s10,a4,7a42 <_printf_float+0x168>
    7acc:	fbbd                	bnez	a5,7a42 <_printf_float+0x168>
    7ace:	4785                	li	a5,1
    7ad0:	bf85                	j	7a40 <_printf_float+0x166>
    7ad2:	06600793          	li	a5,102
    7ad6:	02fa1b63          	bne	s4,a5,7b0c <_printf_float+0x232>
    7ada:	405c                	lw	a5,4(s0)
    7adc:	00b05b63          	blez	a1,7af2 <_printf_float+0x218>
    7ae0:	c80c                	sw	a1,16(s0)
    7ae2:	e781                	bnez	a5,7aea <_printf_float+0x210>
    7ae4:	4018                	lw	a4,0(s0)
    7ae6:	8b05                	andi	a4,a4,1
    7ae8:	cf09                	beqz	a4,7b02 <_printf_float+0x228>
    7aea:	0785                	addi	a5,a5,1
    7aec:	97ae                	add	a5,a5,a1
    7aee:	c81c                	sw	a5,16(s0)
    7af0:	a809                	j	7b02 <_printf_float+0x228>
    7af2:	e789                	bnez	a5,7afc <_printf_float+0x222>
    7af4:	4018                	lw	a4,0(s0)
    7af6:	4685                	li	a3,1
    7af8:	8b05                	andi	a4,a4,1
    7afa:	c319                	beqz	a4,7b00 <_printf_float+0x226>
    7afc:	00278693          	addi	a3,a5,2
    7b00:	c814                	sw	a3,16(s0)
    7b02:	cc2c                	sw	a1,88(s0)
    7b04:	4b01                	li	s6,0
    7b06:	b775                	j	7ab2 <_printf_float+0x1d8>
    7b08:	06700a13          	li	s4,103
    7b0c:	57e2                	lw	a5,56(sp)
    7b0e:	00f5c963          	blt	a1,a5,7b20 <_printf_float+0x246>
    7b12:	401c                	lw	a5,0(s0)
    7b14:	c80c                	sw	a1,16(s0)
    7b16:	8b85                	andi	a5,a5,1
    7b18:	d7ed                	beqz	a5,7b02 <_printf_float+0x228>
    7b1a:	00158793          	addi	a5,a1,1
    7b1e:	bfc1                	j	7aee <_printf_float+0x214>
    7b20:	4705                	li	a4,1
    7b22:	00b04463          	bgtz	a1,7b2a <_printf_float+0x250>
    7b26:	4709                	li	a4,2
    7b28:	8f0d                	sub	a4,a4,a1
    7b2a:	97ba                	add	a5,a5,a4
    7b2c:	b7c9                	j	7aee <_printf_float+0x214>
    7b2e:	401c                	lw	a5,0(s0)
    7b30:	4007f713          	andi	a4,a5,1024
    7b34:	e315                	bnez	a4,7b58 <_printf_float+0x27e>
    7b36:	4814                	lw	a3,16(s0)
    7b38:	8656                	mv	a2,s5
    7b3a:	85ca                	mv	a1,s2
    7b3c:	8526                	mv	a0,s1
    7b3e:	9982                	jalr	s3
    7b40:	e9950be3          	beq	a0,s9,79d6 <_printf_float+0xfc>
    7b44:	401c                	lw	a5,0(s0)
    7b46:	8b89                	andi	a5,a5,2
    7b48:	24079663          	bnez	a5,7d94 <_printf_float+0x4ba>
    7b4c:	57f2                	lw	a5,60(sp)
    7b4e:	4448                	lw	a0,12(s0)
    7b50:	e8f554e3          	bge	a0,a5,79d8 <_printf_float+0xfe>
    7b54:	853e                	mv	a0,a5
    7b56:	b549                	j	79d8 <_printf_float+0xfe>
    7b58:	06500713          	li	a4,101
    7b5c:	19477b63          	bgeu	a4,s4,7cf2 <_printf_float+0x418>
    7b60:	4428                	lw	a0,72(s0)
    7b62:	446c                	lw	a1,76(s0)
    7b64:	4601                	li	a2,0
    7b66:	4681                	li	a3,0
    7b68:	dbcfe0ef          	jal	ra,6124 <__eqdf2>
    7b6c:	e939                	bnez	a0,7bc2 <_printf_float+0x2e8>
    7b6e:	4685                	li	a3,1
    7b70:	00003617          	auipc	a2,0x3
    7b74:	55860613          	addi	a2,a2,1368 # b0c8 <__clz_tab+0x118>
    7b78:	85ca                	mv	a1,s2
    7b7a:	8526                	mv	a0,s1
    7b7c:	9982                	jalr	s3
    7b7e:	e5950ce3          	beq	a0,s9,79d6 <_printf_float+0xfc>
    7b82:	5752                	lw	a4,52(sp)
    7b84:	57e2                	lw	a5,56(sp)
    7b86:	00f74563          	blt	a4,a5,7b90 <_printf_float+0x2b6>
    7b8a:	401c                	lw	a5,0(s0)
    7b8c:	8b85                	andi	a5,a5,1
    7b8e:	dbdd                	beqz	a5,7b44 <_printf_float+0x26a>
    7b90:	86e2                	mv	a3,s8
    7b92:	865e                	mv	a2,s7
    7b94:	85ca                	mv	a1,s2
    7b96:	8526                	mv	a0,s1
    7b98:	9982                	jalr	s3
    7b9a:	57fd                	li	a5,-1
    7b9c:	e2f50de3          	beq	a0,a5,79d6 <_printf_float+0xfc>
    7ba0:	4a01                	li	s4,0
    7ba2:	01a40a93          	addi	s5,s0,26
    7ba6:	5b7d                	li	s6,-1
    7ba8:	57e2                	lw	a5,56(sp)
    7baa:	17fd                	addi	a5,a5,-1
    7bac:	f8fa5ce3          	bge	s4,a5,7b44 <_printf_float+0x26a>
    7bb0:	4685                	li	a3,1
    7bb2:	8656                	mv	a2,s5
    7bb4:	85ca                	mv	a1,s2
    7bb6:	8526                	mv	a0,s1
    7bb8:	9982                	jalr	s3
    7bba:	e1650ee3          	beq	a0,s6,79d6 <_printf_float+0xfc>
    7bbe:	0a05                	addi	s4,s4,1
    7bc0:	b7e5                	j	7ba8 <_printf_float+0x2ce>
    7bc2:	57d2                	lw	a5,52(sp)
    7bc4:	06f04663          	bgtz	a5,7c30 <_printf_float+0x356>
    7bc8:	4685                	li	a3,1
    7bca:	00003617          	auipc	a2,0x3
    7bce:	4fe60613          	addi	a2,a2,1278 # b0c8 <__clz_tab+0x118>
    7bd2:	85ca                	mv	a1,s2
    7bd4:	8526                	mv	a0,s1
    7bd6:	9982                	jalr	s3
    7bd8:	df950fe3          	beq	a0,s9,79d6 <_printf_float+0xfc>
    7bdc:	57d2                	lw	a5,52(sp)
    7bde:	5762                	lw	a4,56(sp)
    7be0:	8fd9                	or	a5,a5,a4
    7be2:	e781                	bnez	a5,7bea <_printf_float+0x310>
    7be4:	401c                	lw	a5,0(s0)
    7be6:	8b85                	andi	a5,a5,1
    7be8:	dfb1                	beqz	a5,7b44 <_printf_float+0x26a>
    7bea:	86e2                	mv	a3,s8
    7bec:	865e                	mv	a2,s7
    7bee:	85ca                	mv	a1,s2
    7bf0:	8526                	mv	a0,s1
    7bf2:	9982                	jalr	s3
    7bf4:	57fd                	li	a5,-1
    7bf6:	def500e3          	beq	a0,a5,79d6 <_printf_float+0xfc>
    7bfa:	4a01                	li	s4,0
    7bfc:	01a40b13          	addi	s6,s0,26
    7c00:	5bfd                	li	s7,-1
    7c02:	57d2                	lw	a5,52(sp)
    7c04:	40f007b3          	neg	a5,a5
    7c08:	00fa4b63          	blt	s4,a5,7c1e <_printf_float+0x344>
    7c0c:	56e2                	lw	a3,56(sp)
    7c0e:	8656                	mv	a2,s5
    7c10:	85ca                	mv	a1,s2
    7c12:	8526                	mv	a0,s1
    7c14:	9982                	jalr	s3
    7c16:	57fd                	li	a5,-1
    7c18:	f2f516e3          	bne	a0,a5,7b44 <_printf_float+0x26a>
    7c1c:	bb6d                	j	79d6 <_printf_float+0xfc>
    7c1e:	4685                	li	a3,1
    7c20:	865a                	mv	a2,s6
    7c22:	85ca                	mv	a1,s2
    7c24:	8526                	mv	a0,s1
    7c26:	9982                	jalr	s3
    7c28:	db7507e3          	beq	a0,s7,79d6 <_printf_float+0xfc>
    7c2c:	0a05                	addi	s4,s4,1
    7c2e:	bfd1                	j	7c02 <_printf_float+0x328>
    7c30:	4c3c                	lw	a5,88(s0)
    7c32:	5a62                	lw	s4,56(sp)
    7c34:	0147d363          	bge	a5,s4,7c3a <_printf_float+0x360>
    7c38:	8a3e                	mv	s4,a5
    7c3a:	01405a63          	blez	s4,7c4e <_printf_float+0x374>
    7c3e:	86d2                	mv	a3,s4
    7c40:	8656                	mv	a2,s5
    7c42:	85ca                	mv	a1,s2
    7c44:	8526                	mv	a0,s1
    7c46:	9982                	jalr	s3
    7c48:	57fd                	li	a5,-1
    7c4a:	d8f506e3          	beq	a0,a5,79d6 <_printf_float+0xfc>
    7c4e:	4c81                	li	s9,0
    7c50:	01a40d13          	addi	s10,s0,26
    7c54:	5dfd                	li	s11,-1
    7c56:	a809                	j	7c68 <_printf_float+0x38e>
    7c58:	4685                	li	a3,1
    7c5a:	866a                	mv	a2,s10
    7c5c:	85ca                	mv	a1,s2
    7c5e:	8526                	mv	a0,s1
    7c60:	9982                	jalr	s3
    7c62:	d7b50ae3          	beq	a0,s11,79d6 <_printf_float+0xfc>
    7c66:	0c85                	addi	s9,s9,1
    7c68:	05842b03          	lw	s6,88(s0)
    7c6c:	87d2                	mv	a5,s4
    7c6e:	000a5363          	bgez	s4,7c74 <_printf_float+0x39a>
    7c72:	4781                	li	a5,0
    7c74:	40fb07b3          	sub	a5,s6,a5
    7c78:	fefcc0e3          	blt	s9,a5,7c58 <_printf_float+0x37e>
    7c7c:	5752                	lw	a4,52(sp)
    7c7e:	57e2                	lw	a5,56(sp)
    7c80:	02f74d63          	blt	a4,a5,7cba <_printf_float+0x3e0>
    7c84:	401c                	lw	a5,0(s0)
    7c86:	8b85                	andi	a5,a5,1
    7c88:	eb8d                	bnez	a5,7cba <_printf_float+0x3e0>
    7c8a:	57e2                	lw	a5,56(sp)
    7c8c:	5752                	lw	a4,52(sp)
    7c8e:	40e78a33          	sub	s4,a5,a4
    7c92:	00eb4463          	blt	s6,a4,7c9a <_printf_float+0x3c0>
    7c96:	41678a33          	sub	s4,a5,s6
    7c9a:	01405b63          	blez	s4,7cb0 <_printf_float+0x3d6>
    7c9e:	86d2                	mv	a3,s4
    7ca0:	016a8633          	add	a2,s5,s6
    7ca4:	85ca                	mv	a1,s2
    7ca6:	8526                	mv	a0,s1
    7ca8:	9982                	jalr	s3
    7caa:	57fd                	li	a5,-1
    7cac:	d2f505e3          	beq	a0,a5,79d6 <_printf_float+0xfc>
    7cb0:	4a81                	li	s5,0
    7cb2:	01a40b13          	addi	s6,s0,26
    7cb6:	5bfd                	li	s7,-1
    7cb8:	a015                	j	7cdc <_printf_float+0x402>
    7cba:	86e2                	mv	a3,s8
    7cbc:	865e                	mv	a2,s7
    7cbe:	85ca                	mv	a1,s2
    7cc0:	8526                	mv	a0,s1
    7cc2:	9982                	jalr	s3
    7cc4:	57fd                	li	a5,-1
    7cc6:	fcf512e3          	bne	a0,a5,7c8a <_printf_float+0x3b0>
    7cca:	b331                	j	79d6 <_printf_float+0xfc>
    7ccc:	4685                	li	a3,1
    7cce:	865a                	mv	a2,s6
    7cd0:	85ca                	mv	a1,s2
    7cd2:	8526                	mv	a0,s1
    7cd4:	9982                	jalr	s3
    7cd6:	d17500e3          	beq	a0,s7,79d6 <_printf_float+0xfc>
    7cda:	0a85                	addi	s5,s5,1
    7cdc:	5752                	lw	a4,52(sp)
    7cde:	57e2                	lw	a5,56(sp)
    7ce0:	8f99                	sub	a5,a5,a4
    7ce2:	8752                	mv	a4,s4
    7ce4:	000a5363          	bgez	s4,7cea <_printf_float+0x410>
    7ce8:	4701                	li	a4,0
    7cea:	8f99                	sub	a5,a5,a4
    7cec:	fefac0e3          	blt	s5,a5,7ccc <_printf_float+0x3f2>
    7cf0:	bd91                	j	7b44 <_printf_float+0x26a>
    7cf2:	56e2                	lw	a3,56(sp)
    7cf4:	4705                	li	a4,1
    7cf6:	00d74463          	blt	a4,a3,7cfe <_printf_float+0x424>
    7cfa:	8b85                	andi	a5,a5,1
    7cfc:	c7b5                	beqz	a5,7d68 <_printf_float+0x48e>
    7cfe:	4685                	li	a3,1
    7d00:	8656                	mv	a2,s5
    7d02:	85ca                	mv	a1,s2
    7d04:	8526                	mv	a0,s1
    7d06:	9982                	jalr	s3
    7d08:	5a7d                	li	s4,-1
    7d0a:	cd4506e3          	beq	a0,s4,79d6 <_printf_float+0xfc>
    7d0e:	86e2                	mv	a3,s8
    7d10:	865e                	mv	a2,s7
    7d12:	85ca                	mv	a1,s2
    7d14:	8526                	mv	a0,s1
    7d16:	9982                	jalr	s3
    7d18:	cb450fe3          	beq	a0,s4,79d6 <_printf_float+0xfc>
    7d1c:	4428                	lw	a0,72(s0)
    7d1e:	446c                	lw	a1,76(s0)
    7d20:	4601                	li	a2,0
    7d22:	4681                	li	a3,0
    7d24:	c00fe0ef          	jal	ra,6124 <__eqdf2>
    7d28:	c91d                	beqz	a0,7d5e <_printf_float+0x484>
    7d2a:	56e2                	lw	a3,56(sp)
    7d2c:	001a8613          	addi	a2,s5,1
    7d30:	85ca                	mv	a1,s2
    7d32:	16fd                	addi	a3,a3,-1
    7d34:	8526                	mv	a0,s1
    7d36:	9982                	jalr	s3
    7d38:	c9450fe3          	beq	a0,s4,79d6 <_printf_float+0xfc>
    7d3c:	86da                	mv	a3,s6
    7d3e:	05040613          	addi	a2,s0,80
    7d42:	b5f9                	j	7c10 <_printf_float+0x336>
    7d44:	4685                	li	a3,1
    7d46:	8656                	mv	a2,s5
    7d48:	85ca                	mv	a1,s2
    7d4a:	8526                	mv	a0,s1
    7d4c:	9982                	jalr	s3
    7d4e:	c97504e3          	beq	a0,s7,79d6 <_printf_float+0xfc>
    7d52:	0a05                	addi	s4,s4,1
    7d54:	57e2                	lw	a5,56(sp)
    7d56:	17fd                	addi	a5,a5,-1
    7d58:	fefa46e3          	blt	s4,a5,7d44 <_printf_float+0x46a>
    7d5c:	b7c5                	j	7d3c <_printf_float+0x462>
    7d5e:	4a01                	li	s4,0
    7d60:	01a40a93          	addi	s5,s0,26
    7d64:	5bfd                	li	s7,-1
    7d66:	b7fd                	j	7d54 <_printf_float+0x47a>
    7d68:	4685                	li	a3,1
    7d6a:	8656                	mv	a2,s5
    7d6c:	85ca                	mv	a1,s2
    7d6e:	8526                	mv	a0,s1
    7d70:	9982                	jalr	s3
    7d72:	fd9515e3          	bne	a0,s9,7d3c <_printf_float+0x462>
    7d76:	b185                	j	79d6 <_printf_float+0xfc>
    7d78:	4685                	li	a3,1
    7d7a:	8656                	mv	a2,s5
    7d7c:	85ca                	mv	a1,s2
    7d7e:	8526                	mv	a0,s1
    7d80:	9982                	jalr	s3
    7d82:	c5650ae3          	beq	a0,s6,79d6 <_printf_float+0xfc>
    7d86:	0a05                	addi	s4,s4,1
    7d88:	445c                	lw	a5,12(s0)
    7d8a:	5772                	lw	a4,60(sp)
    7d8c:	8f99                	sub	a5,a5,a4
    7d8e:	fefa45e3          	blt	s4,a5,7d78 <_printf_float+0x49e>
    7d92:	bb6d                	j	7b4c <_printf_float+0x272>
    7d94:	4a01                	li	s4,0
    7d96:	01940a93          	addi	s5,s0,25
    7d9a:	5b7d                	li	s6,-1
    7d9c:	b7f5                	j	7d88 <_printf_float+0x4ae>

00007d9e <_printf_common>:
_printf_common():
    7d9e:	7179                	addi	sp,sp,-48
    7da0:	ca56                	sw	s5,20(sp)
    7da2:	499c                	lw	a5,16(a1)
    7da4:	8aba                	mv	s5,a4
    7da6:	4598                	lw	a4,8(a1)
    7da8:	d422                	sw	s0,40(sp)
    7daa:	d226                	sw	s1,36(sp)
    7dac:	ce4e                	sw	s3,28(sp)
    7dae:	cc52                	sw	s4,24(sp)
    7db0:	d606                	sw	ra,44(sp)
    7db2:	d04a                	sw	s2,32(sp)
    7db4:	c85a                	sw	s6,16(sp)
    7db6:	c65e                	sw	s7,12(sp)
    7db8:	89aa                	mv	s3,a0
    7dba:	842e                	mv	s0,a1
    7dbc:	84b2                	mv	s1,a2
    7dbe:	8a36                	mv	s4,a3
    7dc0:	00e7d363          	bge	a5,a4,7dc6 <_printf_common+0x28>
    7dc4:	87ba                	mv	a5,a4
    7dc6:	c09c                	sw	a5,0(s1)
    7dc8:	04344703          	lbu	a4,67(s0)
    7dcc:	c319                	beqz	a4,7dd2 <_printf_common+0x34>
    7dce:	0785                	addi	a5,a5,1
    7dd0:	c09c                	sw	a5,0(s1)
    7dd2:	401c                	lw	a5,0(s0)
    7dd4:	0207f793          	andi	a5,a5,32
    7dd8:	c781                	beqz	a5,7de0 <_printf_common+0x42>
    7dda:	409c                	lw	a5,0(s1)
    7ddc:	0789                	addi	a5,a5,2
    7dde:	c09c                	sw	a5,0(s1)
    7de0:	00042903          	lw	s2,0(s0)
    7de4:	00697913          	andi	s2,s2,6
    7de8:	00091a63          	bnez	s2,7dfc <_printf_common+0x5e>
    7dec:	01940b13          	addi	s6,s0,25
    7df0:	5bfd                	li	s7,-1
    7df2:	445c                	lw	a5,12(s0)
    7df4:	4098                	lw	a4,0(s1)
    7df6:	8f99                	sub	a5,a5,a4
    7df8:	04f94c63          	blt	s2,a5,7e50 <_printf_common+0xb2>
    7dfc:	401c                	lw	a5,0(s0)
    7dfe:	04344683          	lbu	a3,67(s0)
    7e02:	0207f793          	andi	a5,a5,32
    7e06:	00d036b3          	snez	a3,a3
    7e0a:	eba5                	bnez	a5,7e7a <_printf_common+0xdc>
    7e0c:	04340613          	addi	a2,s0,67
    7e10:	85d2                	mv	a1,s4
    7e12:	854e                	mv	a0,s3
    7e14:	9a82                	jalr	s5
    7e16:	57fd                	li	a5,-1
    7e18:	04f50363          	beq	a0,a5,7e5e <_printf_common+0xc0>
    7e1c:	401c                	lw	a5,0(s0)
    7e1e:	4611                	li	a2,4
    7e20:	4098                	lw	a4,0(s1)
    7e22:	8b99                	andi	a5,a5,6
    7e24:	4454                	lw	a3,12(s0)
    7e26:	4481                	li	s1,0
    7e28:	00c79763          	bne	a5,a2,7e36 <_printf_common+0x98>
    7e2c:	40e684b3          	sub	s1,a3,a4
    7e30:	0004d363          	bgez	s1,7e36 <_printf_common+0x98>
    7e34:	4481                	li	s1,0
    7e36:	441c                	lw	a5,8(s0)
    7e38:	4818                	lw	a4,16(s0)
    7e3a:	00f75463          	bge	a4,a5,7e42 <_printf_common+0xa4>
    7e3e:	8f99                	sub	a5,a5,a4
    7e40:	94be                	add	s1,s1,a5
    7e42:	4901                	li	s2,0
    7e44:	0469                	addi	s0,s0,26
    7e46:	5b7d                	li	s6,-1
    7e48:	05249863          	bne	s1,s2,7e98 <_printf_common+0xfa>
    7e4c:	4501                	li	a0,0
    7e4e:	a809                	j	7e60 <_printf_common+0xc2>
    7e50:	4685                	li	a3,1
    7e52:	865a                	mv	a2,s6
    7e54:	85d2                	mv	a1,s4
    7e56:	854e                	mv	a0,s3
    7e58:	9a82                	jalr	s5
    7e5a:	01751e63          	bne	a0,s7,7e76 <_printf_common+0xd8>
    7e5e:	557d                	li	a0,-1
    7e60:	50b2                	lw	ra,44(sp)
    7e62:	5422                	lw	s0,40(sp)
    7e64:	5492                	lw	s1,36(sp)
    7e66:	5902                	lw	s2,32(sp)
    7e68:	49f2                	lw	s3,28(sp)
    7e6a:	4a62                	lw	s4,24(sp)
    7e6c:	4ad2                	lw	s5,20(sp)
    7e6e:	4b42                	lw	s6,16(sp)
    7e70:	4bb2                	lw	s7,12(sp)
    7e72:	6145                	addi	sp,sp,48
    7e74:	8082                	ret
    7e76:	0905                	addi	s2,s2,1
    7e78:	bfad                	j	7df2 <_printf_common+0x54>
    7e7a:	00d40733          	add	a4,s0,a3
    7e7e:	03000613          	li	a2,48
    7e82:	04c701a3          	sb	a2,67(a4)
    7e86:	04544703          	lbu	a4,69(s0)
    7e8a:	00168793          	addi	a5,a3,1
    7e8e:	97a2                	add	a5,a5,s0
    7e90:	0689                	addi	a3,a3,2
    7e92:	04e781a3          	sb	a4,67(a5)
    7e96:	bf9d                	j	7e0c <_printf_common+0x6e>
    7e98:	4685                	li	a3,1
    7e9a:	8622                	mv	a2,s0
    7e9c:	85d2                	mv	a1,s4
    7e9e:	854e                	mv	a0,s3
    7ea0:	9a82                	jalr	s5
    7ea2:	fb650ee3          	beq	a0,s6,7e5e <_printf_common+0xc0>
    7ea6:	0905                	addi	s2,s2,1
    7ea8:	b745                	j	7e48 <_printf_common+0xaa>

00007eaa <_printf_i>:
_printf_i():
    7eaa:	7179                	addi	sp,sp,-48
    7eac:	d422                	sw	s0,40(sp)
    7eae:	d226                	sw	s1,36(sp)
    7eb0:	d04a                	sw	s2,32(sp)
    7eb2:	ce4e                	sw	s3,28(sp)
    7eb4:	d606                	sw	ra,44(sp)
    7eb6:	cc52                	sw	s4,24(sp)
    7eb8:	ca56                	sw	s5,20(sp)
    7eba:	c85a                	sw	s6,16(sp)
    7ebc:	89b6                	mv	s3,a3
    7ebe:	0185c683          	lbu	a3,24(a1)
    7ec2:	06900793          	li	a5,105
    7ec6:	8932                	mv	s2,a2
    7ec8:	84aa                	mv	s1,a0
    7eca:	842e                	mv	s0,a1
    7ecc:	04358613          	addi	a2,a1,67
    7ed0:	02f68d63          	beq	a3,a5,7f0a <_printf_i+0x60>
    7ed4:	06d7e263          	bltu	a5,a3,7f38 <_printf_i+0x8e>
    7ed8:	05800793          	li	a5,88
    7edc:	18f68963          	beq	a3,a5,806e <_printf_i+0x1c4>
    7ee0:	00d7ed63          	bltu	a5,a3,7efa <_printf_i+0x50>
    7ee4:	22068263          	beqz	a3,8108 <_printf_i+0x25e>
    7ee8:	04300793          	li	a5,67
    7eec:	0af68f63          	beq	a3,a5,7faa <_printf_i+0x100>
    7ef0:	04240a93          	addi	s5,s0,66
    7ef4:	04d40123          	sb	a3,66(s0)
    7ef8:	a0d1                	j	7fbc <_printf_i+0x112>
    7efa:	06300793          	li	a5,99
    7efe:	0af68663          	beq	a3,a5,7faa <_printf_i+0x100>
    7f02:	06400793          	li	a5,100
    7f06:	fef695e3          	bne	a3,a5,7ef0 <_printf_i+0x46>
    7f0a:	401c                	lw	a5,0(s0)
    7f0c:	4308                	lw	a0,0(a4)
    7f0e:	0807f693          	andi	a3,a5,128
    7f12:	00450593          	addi	a1,a0,4
    7f16:	c6cd                	beqz	a3,7fc0 <_printf_i+0x116>
    7f18:	411c                	lw	a5,0(a0)
    7f1a:	c30c                	sw	a1,0(a4)
    7f1c:	0007d863          	bgez	a5,7f2c <_printf_i+0x82>
    7f20:	02d00713          	li	a4,45
    7f24:	40f007b3          	neg	a5,a5
    7f28:	04e401a3          	sb	a4,67(s0)
    7f2c:	00003697          	auipc	a3,0x3
    7f30:	1a068693          	addi	a3,a3,416 # b0cc <__clz_tab+0x11c>
    7f34:	4729                	li	a4,10
    7f36:	a875                	j	7ff2 <_printf_i+0x148>
    7f38:	07000793          	li	a5,112
    7f3c:	16f68563          	beq	a3,a5,80a6 <_printf_i+0x1fc>
    7f40:	02d7e563          	bltu	a5,a3,7f6a <_printf_i+0xc0>
    7f44:	06e00793          	li	a5,110
    7f48:	18f68c63          	beq	a3,a5,80e0 <_printf_i+0x236>
    7f4c:	06f00793          	li	a5,111
    7f50:	faf690e3          	bne	a3,a5,7ef0 <_printf_i+0x46>
    7f54:	400c                	lw	a1,0(s0)
    7f56:	431c                	lw	a5,0(a4)
    7f58:	0805f813          	andi	a6,a1,128
    7f5c:	00478513          	addi	a0,a5,4
    7f60:	06080863          	beqz	a6,7fd0 <_printf_i+0x126>
    7f64:	c308                	sw	a0,0(a4)
    7f66:	439c                	lw	a5,0(a5)
    7f68:	a895                	j	7fdc <_printf_i+0x132>
    7f6a:	07500793          	li	a5,117
    7f6e:	fef683e3          	beq	a3,a5,7f54 <_printf_i+0xaa>
    7f72:	07800793          	li	a5,120
    7f76:	12f68c63          	beq	a3,a5,80ae <_printf_i+0x204>
    7f7a:	07300793          	li	a5,115
    7f7e:	f6f699e3          	bne	a3,a5,7ef0 <_printf_i+0x46>
    7f82:	431c                	lw	a5,0(a4)
    7f84:	41d0                	lw	a2,4(a1)
    7f86:	4581                	li	a1,0
    7f88:	00478693          	addi	a3,a5,4
    7f8c:	c314                	sw	a3,0(a4)
    7f8e:	0007aa83          	lw	s5,0(a5)
    7f92:	8556                	mv	a0,s5
    7f94:	1d8010ef          	jal	ra,916c <memchr>
    7f98:	c501                	beqz	a0,7fa0 <_printf_i+0xf6>
    7f9a:	41550533          	sub	a0,a0,s5
    7f9e:	c048                	sw	a0,4(s0)
    7fa0:	405c                	lw	a5,4(s0)
    7fa2:	c81c                	sw	a5,16(s0)
    7fa4:	040401a3          	sb	zero,67(s0)
    7fa8:	a871                	j	8044 <_printf_i+0x19a>
    7faa:	431c                	lw	a5,0(a4)
    7fac:	04240a93          	addi	s5,s0,66
    7fb0:	00478693          	addi	a3,a5,4
    7fb4:	439c                	lw	a5,0(a5)
    7fb6:	c314                	sw	a3,0(a4)
    7fb8:	04f40123          	sb	a5,66(s0)
    7fbc:	4785                	li	a5,1
    7fbe:	b7d5                	j	7fa2 <_printf_i+0xf8>
    7fc0:	0407f693          	andi	a3,a5,64
    7fc4:	411c                	lw	a5,0(a0)
    7fc6:	c30c                	sw	a1,0(a4)
    7fc8:	dab1                	beqz	a3,7f1c <_printf_i+0x72>
    7fca:	07c2                	slli	a5,a5,0x10
    7fcc:	87c1                	srai	a5,a5,0x10
    7fce:	b7b9                	j	7f1c <_printf_i+0x72>
    7fd0:	0405f593          	andi	a1,a1,64
    7fd4:	c308                	sw	a0,0(a4)
    7fd6:	d9c1                	beqz	a1,7f66 <_printf_i+0xbc>
    7fd8:	0007d783          	lhu	a5,0(a5)
    7fdc:	06f00713          	li	a4,111
    7fe0:	0ee68863          	beq	a3,a4,80d0 <_printf_i+0x226>
    7fe4:	00003697          	auipc	a3,0x3
    7fe8:	0e868693          	addi	a3,a3,232 # b0cc <__clz_tab+0x11c>
    7fec:	4729                	li	a4,10
    7fee:	040401a3          	sb	zero,67(s0)
    7ff2:	404c                	lw	a1,4(s0)
    7ff4:	c40c                	sw	a1,8(s0)
    7ff6:	0005c563          	bltz	a1,8000 <_printf_i+0x156>
    7ffa:	4008                	lw	a0,0(s0)
    7ffc:	996d                	andi	a0,a0,-5
    7ffe:	c008                	sw	a0,0(s0)
    8000:	e399                	bnez	a5,8006 <_printf_i+0x15c>
    8002:	8ab2                	mv	s5,a2
    8004:	cd91                	beqz	a1,8020 <_printf_i+0x176>
    8006:	8ab2                	mv	s5,a2
    8008:	02e7f5b3          	remu	a1,a5,a4
    800c:	1afd                	addi	s5,s5,-1
    800e:	95b6                	add	a1,a1,a3
    8010:	0005c583          	lbu	a1,0(a1)
    8014:	00ba8023          	sb	a1,0(s5)
    8018:	02e7d5b3          	divu	a1,a5,a4
    801c:	0ce7f063          	bgeu	a5,a4,80dc <_printf_i+0x232>
    8020:	47a1                	li	a5,8
    8022:	00f71e63          	bne	a4,a5,803e <_printf_i+0x194>
    8026:	401c                	lw	a5,0(s0)
    8028:	8b85                	andi	a5,a5,1
    802a:	cb91                	beqz	a5,803e <_printf_i+0x194>
    802c:	4058                	lw	a4,4(s0)
    802e:	481c                	lw	a5,16(s0)
    8030:	00e7c763          	blt	a5,a4,803e <_printf_i+0x194>
    8034:	03000793          	li	a5,48
    8038:	fefa8fa3          	sb	a5,-1(s5)
    803c:	1afd                	addi	s5,s5,-1
    803e:	41560633          	sub	a2,a2,s5
    8042:	c810                	sw	a2,16(s0)
    8044:	874e                	mv	a4,s3
    8046:	86ca                	mv	a3,s2
    8048:	0070                	addi	a2,sp,12
    804a:	85a2                	mv	a1,s0
    804c:	8526                	mv	a0,s1
    804e:	d51ff0ef          	jal	ra,7d9e <_printf_common>
    8052:	5a7d                	li	s4,-1
    8054:	0b451e63          	bne	a0,s4,8110 <_printf_i+0x266>
    8058:	557d                	li	a0,-1
    805a:	50b2                	lw	ra,44(sp)
    805c:	5422                	lw	s0,40(sp)
    805e:	5492                	lw	s1,36(sp)
    8060:	5902                	lw	s2,32(sp)
    8062:	49f2                	lw	s3,28(sp)
    8064:	4a62                	lw	s4,24(sp)
    8066:	4ad2                	lw	s5,20(sp)
    8068:	4b42                	lw	s6,16(sp)
    806a:	6145                	addi	sp,sp,48
    806c:	8082                	ret
    806e:	04d582a3          	sb	a3,69(a1)
    8072:	00003697          	auipc	a3,0x3
    8076:	05a68693          	addi	a3,a3,90 # b0cc <__clz_tab+0x11c>
    807a:	400c                	lw	a1,0(s0)
    807c:	4308                	lw	a0,0(a4)
    807e:	0805f813          	andi	a6,a1,128
    8082:	411c                	lw	a5,0(a0)
    8084:	0511                	addi	a0,a0,4
    8086:	02080d63          	beqz	a6,80c0 <_printf_i+0x216>
    808a:	c308                	sw	a0,0(a4)
    808c:	0015f713          	andi	a4,a1,1
    8090:	c701                	beqz	a4,8098 <_printf_i+0x1ee>
    8092:	0205e593          	ori	a1,a1,32
    8096:	c00c                	sw	a1,0(s0)
    8098:	4741                	li	a4,16
    809a:	fbb1                	bnez	a5,7fee <_printf_i+0x144>
    809c:	400c                	lw	a1,0(s0)
    809e:	fdf5f593          	andi	a1,a1,-33
    80a2:	c00c                	sw	a1,0(s0)
    80a4:	b7a9                	j	7fee <_printf_i+0x144>
    80a6:	419c                	lw	a5,0(a1)
    80a8:	0207e793          	ori	a5,a5,32
    80ac:	c19c                	sw	a5,0(a1)
    80ae:	07800793          	li	a5,120
    80b2:	04f402a3          	sb	a5,69(s0)
    80b6:	00003697          	auipc	a3,0x3
    80ba:	02a68693          	addi	a3,a3,42 # b0e0 <__clz_tab+0x130>
    80be:	bf75                	j	807a <_printf_i+0x1d0>
    80c0:	0405f813          	andi	a6,a1,64
    80c4:	c308                	sw	a0,0(a4)
    80c6:	fc0803e3          	beqz	a6,808c <_printf_i+0x1e2>
    80ca:	07c2                	slli	a5,a5,0x10
    80cc:	83c1                	srli	a5,a5,0x10
    80ce:	bf7d                	j	808c <_printf_i+0x1e2>
    80d0:	00003697          	auipc	a3,0x3
    80d4:	ffc68693          	addi	a3,a3,-4 # b0cc <__clz_tab+0x11c>
    80d8:	4721                	li	a4,8
    80da:	bf11                	j	7fee <_printf_i+0x144>
    80dc:	87ae                	mv	a5,a1
    80de:	b72d                	j	8008 <_printf_i+0x15e>
    80e0:	4194                	lw	a3,0(a1)
    80e2:	431c                	lw	a5,0(a4)
    80e4:	49cc                	lw	a1,20(a1)
    80e6:	0806f813          	andi	a6,a3,128
    80ea:	00478513          	addi	a0,a5,4
    80ee:	00080663          	beqz	a6,80fa <_printf_i+0x250>
    80f2:	c308                	sw	a0,0(a4)
    80f4:	439c                	lw	a5,0(a5)
    80f6:	c38c                	sw	a1,0(a5)
    80f8:	a801                	j	8108 <_printf_i+0x25e>
    80fa:	c308                	sw	a0,0(a4)
    80fc:	0406f693          	andi	a3,a3,64
    8100:	439c                	lw	a5,0(a5)
    8102:	daf5                	beqz	a3,80f6 <_printf_i+0x24c>
    8104:	00b79023          	sh	a1,0(a5)
    8108:	00042823          	sw	zero,16(s0)
    810c:	8ab2                	mv	s5,a2
    810e:	bf1d                	j	8044 <_printf_i+0x19a>
    8110:	4814                	lw	a3,16(s0)
    8112:	8656                	mv	a2,s5
    8114:	85ca                	mv	a1,s2
    8116:	8526                	mv	a0,s1
    8118:	9982                	jalr	s3
    811a:	f3450fe3          	beq	a0,s4,8058 <_printf_i+0x1ae>
    811e:	401c                	lw	a5,0(s0)
    8120:	8b89                	andi	a5,a5,2
    8122:	e78d                	bnez	a5,814c <_printf_i+0x2a2>
    8124:	47b2                	lw	a5,12(sp)
    8126:	4448                	lw	a0,12(s0)
    8128:	f2f559e3          	bge	a0,a5,805a <_printf_i+0x1b0>
    812c:	853e                	mv	a0,a5
    812e:	b735                	j	805a <_printf_i+0x1b0>
    8130:	4685                	li	a3,1
    8132:	8656                	mv	a2,s5
    8134:	85ca                	mv	a1,s2
    8136:	8526                	mv	a0,s1
    8138:	9982                	jalr	s3
    813a:	f1650fe3          	beq	a0,s6,8058 <_printf_i+0x1ae>
    813e:	0a05                	addi	s4,s4,1
    8140:	445c                	lw	a5,12(s0)
    8142:	4732                	lw	a4,12(sp)
    8144:	8f99                	sub	a5,a5,a4
    8146:	fefa45e3          	blt	s4,a5,8130 <_printf_i+0x286>
    814a:	bfe9                	j	8124 <_printf_i+0x27a>
    814c:	4a01                	li	s4,0
    814e:	01940a93          	addi	s5,s0,25
    8152:	5b7d                	li	s6,-1
    8154:	b7f5                	j	8140 <_printf_i+0x296>

00008156 <iprintf>:
printf():
    8156:	7139                	addi	sp,sp,-64
    8158:	da3e                	sw	a5,52(sp)
    815a:	d22e                	sw	a1,36(sp)
    815c:	d432                	sw	a2,40(sp)
    815e:	d636                	sw	a3,44(sp)
    8160:	d83a                	sw	a4,48(sp)
    8162:	dc42                	sw	a6,56(sp)
    8164:	de46                	sw	a7,60(sp)
    8166:	82418793          	addi	a5,gp,-2012 # 2000025c <_impure_ptr>
    816a:	cc22                	sw	s0,24(sp)
    816c:	4380                	lw	s0,0(a5)
    816e:	ca26                	sw	s1,20(sp)
    8170:	ce06                	sw	ra,28(sp)
    8172:	84aa                	mv	s1,a0
    8174:	c411                	beqz	s0,8180 <iprintf+0x2a>
    8176:	4c1c                	lw	a5,24(s0)
    8178:	e781                	bnez	a5,8180 <iprintf+0x2a>
    817a:	8522                	mv	a0,s0
    817c:	655000ef          	jal	ra,8fd0 <__sinit>
    8180:	440c                	lw	a1,8(s0)
    8182:	1054                	addi	a3,sp,36
    8184:	8626                	mv	a2,s1
    8186:	8522                	mv	a0,s0
    8188:	c636                	sw	a3,12(sp)
    818a:	46f010ef          	jal	ra,9df8 <_vfiprintf_r>
    818e:	40f2                	lw	ra,28(sp)
    8190:	4462                	lw	s0,24(sp)
    8192:	44d2                	lw	s1,20(sp)
    8194:	6121                	addi	sp,sp,64
    8196:	8082                	ret

00008198 <siprintf>:
sprintf():
    8198:	7135                	addi	sp,sp,-160
    819a:	cb3e                	sw	a5,148(sp)
    819c:	800007b7          	lui	a5,0x80000
    81a0:	fff7c793          	not	a5,a5
    81a4:	ce3e                	sw	a5,28(sp)
    81a6:	c83e                	sw	a5,16(sp)
    81a8:	77c1                	lui	a5,0xffff0
    81aa:	20878793          	addi	a5,a5,520 # ffff0208 <_eusrstack+0xdffe0208>
    81ae:	c532                	sw	a2,136(sp)
    81b0:	c736                	sw	a3,140(sp)
    81b2:	c93a                	sw	a4,144(sp)
    81b4:	cd42                	sw	a6,152(sp)
    81b6:	cf46                	sw	a7,156(sp)
    81b8:	ca3e                	sw	a5,20(sp)
    81ba:	82418793          	addi	a5,gp,-2012 # 2000025c <_impure_ptr>
    81be:	c42a                	sw	a0,8(sp)
    81c0:	cc2a                	sw	a0,24(sp)
    81c2:	4388                	lw	a0,0(a5)
    81c4:	0134                	addi	a3,sp,136
    81c6:	862e                	mv	a2,a1
    81c8:	002c                	addi	a1,sp,8
    81ca:	de86                	sw	ra,124(sp)
    81cc:	c236                	sw	a3,4(sp)
    81ce:	141010ef          	jal	ra,9b0e <_svfiprintf_r>
    81d2:	47a2                	lw	a5,8(sp)
    81d4:	00078023          	sb	zero,0(a5)
    81d8:	50f6                	lw	ra,124(sp)
    81da:	610d                	addi	sp,sp,160
    81dc:	8082                	ret

000081de <strlen>:
strlen():
    81de:	87aa                	mv	a5,a0
    81e0:	0785                	addi	a5,a5,1
    81e2:	fff7c703          	lbu	a4,-1(a5)
    81e6:	ff6d                	bnez	a4,81e0 <strlen+0x2>
    81e8:	40a78533          	sub	a0,a5,a0
    81ec:	157d                	addi	a0,a0,-1
    81ee:	8082                	ret

000081f0 <quorem>:
quorem():
    81f0:	1101                	addi	sp,sp,-32
    81f2:	cc22                	sw	s0,24(sp)
    81f4:	491c                	lw	a5,16(a0)
    81f6:	4980                	lw	s0,16(a1)
    81f8:	ce06                	sw	ra,28(sp)
    81fa:	ca26                	sw	s1,20(sp)
    81fc:	c84a                	sw	s2,16(sp)
    81fe:	c64e                	sw	s3,12(sp)
    8200:	c452                	sw	s4,8(sp)
    8202:	c256                	sw	s5,4(sp)
    8204:	1287c163          	blt	a5,s0,8326 <quorem+0x136>
    8208:	147d                	addi	s0,s0,-1
    820a:	00241813          	slli	a6,s0,0x2
    820e:	01458993          	addi	s3,a1,20
    8212:	01098a33          	add	s4,s3,a6
    8216:	01450913          	addi	s2,a0,20
    821a:	984a                	add	a6,a6,s2
    821c:	000a2783          	lw	a5,0(s4)
    8220:	00082703          	lw	a4,0(a6) # 100000 <_data_lma+0xf4c2c>
    8224:	0785                	addi	a5,a5,1
    8226:	02f754b3          	divu	s1,a4,a5
    822a:	06f76663          	bltu	a4,a5,8296 <quorem+0xa6>
    822e:	68c1                	lui	a7,0x10
    8230:	834e                	mv	t1,s3
    8232:	8e4a                	mv	t3,s2
    8234:	4e81                	li	t4,0
    8236:	4f01                	li	t5,0
    8238:	18fd                	addi	a7,a7,-1
    823a:	0311                	addi	t1,t1,4
    823c:	ffc32603          	lw	a2,-4(t1) # 3ffffc <_data_lma+0x3f4c28>
    8240:	0e11                	addi	t3,t3,4
    8242:	01167733          	and	a4,a2,a7
    8246:	8241                	srli	a2,a2,0x10
    8248:	02970733          	mul	a4,a4,s1
    824c:	02960633          	mul	a2,a2,s1
    8250:	9776                	add	a4,a4,t4
    8252:	01075693          	srli	a3,a4,0x10
    8256:	011777b3          	and	a5,a4,a7
    825a:	40ff07b3          	sub	a5,t5,a5
    825e:	9636                	add	a2,a2,a3
    8260:	ffce2683          	lw	a3,-4(t3)
    8264:	01065e93          	srli	t4,a2,0x10
    8268:	01167633          	and	a2,a2,a7
    826c:	0116f733          	and	a4,a3,a7
    8270:	97ba                	add	a5,a5,a4
    8272:	82c1                	srli	a3,a3,0x10
    8274:	4107d713          	srai	a4,a5,0x10
    8278:	8e91                	sub	a3,a3,a2
    827a:	96ba                	add	a3,a3,a4
    827c:	4106df13          	srai	t5,a3,0x10
    8280:	0117f7b3          	and	a5,a5,a7
    8284:	06c2                	slli	a3,a3,0x10
    8286:	8fd5                	or	a5,a5,a3
    8288:	fefe2e23          	sw	a5,-4(t3)
    828c:	fa6a77e3          	bgeu	s4,t1,823a <quorem+0x4a>
    8290:	00082783          	lw	a5,0(a6)
    8294:	cbbd                	beqz	a5,830a <quorem+0x11a>
    8296:	8aaa                	mv	s5,a0
    8298:	3ee010ef          	jal	ra,9686 <__mcmp>
    829c:	04054963          	bltz	a0,82ee <quorem+0xfe>
    82a0:	6641                	lui	a2,0x10
    82a2:	0485                	addi	s1,s1,1
    82a4:	85ca                	mv	a1,s2
    82a6:	4501                	li	a0,0
    82a8:	167d                	addi	a2,a2,-1
    82aa:	0991                	addi	s3,s3,4
    82ac:	ffc9a803          	lw	a6,-4(s3)
    82b0:	4198                	lw	a4,0(a1)
    82b2:	0591                	addi	a1,a1,4
    82b4:	00c876b3          	and	a3,a6,a2
    82b8:	8d15                	sub	a0,a0,a3
    82ba:	00c776b3          	and	a3,a4,a2
    82be:	96aa                	add	a3,a3,a0
    82c0:	01075793          	srli	a5,a4,0x10
    82c4:	01085813          	srli	a6,a6,0x10
    82c8:	4106d713          	srai	a4,a3,0x10
    82cc:	410787b3          	sub	a5,a5,a6
    82d0:	97ba                	add	a5,a5,a4
    82d2:	4107d513          	srai	a0,a5,0x10
    82d6:	8ef1                	and	a3,a3,a2
    82d8:	07c2                	slli	a5,a5,0x10
    82da:	8fd5                	or	a5,a5,a3
    82dc:	fef5ae23          	sw	a5,-4(a1)
    82e0:	fd3a75e3          	bgeu	s4,s3,82aa <quorem+0xba>
    82e4:	00241793          	slli	a5,s0,0x2
    82e8:	97ca                	add	a5,a5,s2
    82ea:	4398                	lw	a4,0(a5)
    82ec:	c71d                	beqz	a4,831a <quorem+0x12a>
    82ee:	8526                	mv	a0,s1
    82f0:	40f2                	lw	ra,28(sp)
    82f2:	4462                	lw	s0,24(sp)
    82f4:	44d2                	lw	s1,20(sp)
    82f6:	4942                	lw	s2,16(sp)
    82f8:	49b2                	lw	s3,12(sp)
    82fa:	4a22                	lw	s4,8(sp)
    82fc:	4a92                	lw	s5,4(sp)
    82fe:	6105                	addi	sp,sp,32
    8300:	8082                	ret
    8302:	00082783          	lw	a5,0(a6)
    8306:	e789                	bnez	a5,8310 <quorem+0x120>
    8308:	147d                	addi	s0,s0,-1
    830a:	1871                	addi	a6,a6,-4
    830c:	ff096be3          	bltu	s2,a6,8302 <quorem+0x112>
    8310:	c900                	sw	s0,16(a0)
    8312:	b751                	j	8296 <quorem+0xa6>
    8314:	4398                	lw	a4,0(a5)
    8316:	e709                	bnez	a4,8320 <quorem+0x130>
    8318:	147d                	addi	s0,s0,-1
    831a:	17f1                	addi	a5,a5,-4
    831c:	fef96ce3          	bltu	s2,a5,8314 <quorem+0x124>
    8320:	008aa823          	sw	s0,16(s5)
    8324:	b7e9                	j	82ee <quorem+0xfe>
    8326:	4501                	li	a0,0
    8328:	b7e1                	j	82f0 <quorem+0x100>

0000832a <_dtoa_r>:
_dtoa_r():
    832a:	7135                	addi	sp,sp,-160
    832c:	c0be                	sw	a5,64(sp)
    832e:	515c                	lw	a5,36(a0)
    8330:	cd22                	sw	s0,152(sp)
    8332:	cb26                	sw	s1,148(sp)
    8334:	c94a                	sw	s2,144(sp)
    8336:	c74e                	sw	s3,140(sp)
    8338:	c552                	sw	s4,136(sp)
    833a:	d8ea                	sw	s10,112(sp)
    833c:	cf06                	sw	ra,156(sp)
    833e:	c356                	sw	s5,132(sp)
    8340:	c15a                	sw	s6,128(sp)
    8342:	dede                	sw	s7,124(sp)
    8344:	dce2                	sw	s8,120(sp)
    8346:	dae6                	sw	s9,116(sp)
    8348:	d6ee                	sw	s11,108(sp)
    834a:	d23a                	sw	a4,36(sp)
    834c:	d646                	sw	a7,44(sp)
    834e:	c82e                	sw	a1,16(sp)
    8350:	84aa                	mv	s1,a0
    8352:	842e                	mv	s0,a1
    8354:	89b2                	mv	s3,a2
    8356:	8d36                	mv	s10,a3
    8358:	8a42                	mv	s4,a6
    835a:	8932                	mv	s2,a2
    835c:	ef89                	bnez	a5,8376 <_dtoa_r+0x4c>
    835e:	4541                	li	a0,16
    8360:	601000ef          	jal	ra,9160 <malloc>
    8364:	d0c8                	sw	a0,36(s1)
    8366:	00052223          	sw	zero,4(a0)
    836a:	00052423          	sw	zero,8(a0)
    836e:	00052023          	sw	zero,0(a0)
    8372:	00052623          	sw	zero,12(a0)
    8376:	50dc                	lw	a5,36(s1)
    8378:	438c                	lw	a1,0(a5)
    837a:	cd89                	beqz	a1,8394 <_dtoa_r+0x6a>
    837c:	43d8                	lw	a4,4(a5)
    837e:	4785                	li	a5,1
    8380:	8526                	mv	a0,s1
    8382:	00e797b3          	sll	a5,a5,a4
    8386:	c59c                	sw	a5,8(a1)
    8388:	c1d8                	sw	a4,4(a1)
    838a:	685000ef          	jal	ra,920e <_Bfree>
    838e:	50dc                	lw	a5,36(s1)
    8390:	0007a023          	sw	zero,0(a5)
    8394:	0609d763          	bgez	s3,8402 <_dtoa_r+0xd8>
    8398:	4785                	li	a5,1
    839a:	00199913          	slli	s2,s3,0x1
    839e:	00fa2023          	sw	a5,0(s4)
    83a2:	00195913          	srli	s2,s2,0x1
    83a6:	7ff007b7          	lui	a5,0x7ff00
    83aa:	00f97733          	and	a4,s2,a5
    83ae:	04f71d63          	bne	a4,a5,8408 <_dtoa_r+0xde>
    83b2:	4706                	lw	a4,64(sp)
    83b4:	6789                	lui	a5,0x2
    83b6:	0932                	slli	s2,s2,0xc
    83b8:	70f78793          	addi	a5,a5,1807 # 270f <EXTI2_IRQHandler+0x31>
    83bc:	00c95913          	srli	s2,s2,0xc
    83c0:	c31c                	sw	a5,0(a4)
    83c2:	00896933          	or	s2,s2,s0
    83c6:	2e090ee3          	beqz	s2,8ec2 <_dtoa_r+0xb98>
    83ca:	57b2                	lw	a5,44(sp)
    83cc:	00003a97          	auipc	s5,0x3
    83d0:	d80a8a93          	addi	s5,s5,-640 # b14c <__clz_tab+0x19c>
    83d4:	c799                	beqz	a5,83e2 <_dtoa_r+0xb8>
    83d6:	00003797          	auipc	a5,0x3
    83da:	d7978793          	addi	a5,a5,-647 # b14f <__clz_tab+0x19f>
    83de:	5732                	lw	a4,44(sp)
    83e0:	c31c                	sw	a5,0(a4)
    83e2:	40fa                	lw	ra,156(sp)
    83e4:	446a                	lw	s0,152(sp)
    83e6:	8556                	mv	a0,s5
    83e8:	44da                	lw	s1,148(sp)
    83ea:	494a                	lw	s2,144(sp)
    83ec:	49ba                	lw	s3,140(sp)
    83ee:	4a2a                	lw	s4,136(sp)
    83f0:	4a9a                	lw	s5,132(sp)
    83f2:	4b0a                	lw	s6,128(sp)
    83f4:	5bf6                	lw	s7,124(sp)
    83f6:	5c66                	lw	s8,120(sp)
    83f8:	5cd6                	lw	s9,116(sp)
    83fa:	5d46                	lw	s10,112(sp)
    83fc:	5db6                	lw	s11,108(sp)
    83fe:	610d                	addi	sp,sp,160
    8400:	8082                	ret
    8402:	000a2023          	sw	zero,0(s4)
    8406:	b745                	j	83a6 <_dtoa_r+0x7c>
    8408:	4601                	li	a2,0
    840a:	4681                	li	a3,0
    840c:	8522                	mv	a0,s0
    840e:	85ca                	mv	a1,s2
    8410:	da22                	sw	s0,52(sp)
    8412:	dc4a                	sw	s2,56(sp)
    8414:	d11fd0ef          	jal	ra,6124 <__eqdf2>
    8418:	ed19                	bnez	a0,8436 <_dtoa_r+0x10c>
    841a:	4706                	lw	a4,64(sp)
    841c:	4785                	li	a5,1
    841e:	00003a97          	auipc	s5,0x3
    8422:	caaa8a93          	addi	s5,s5,-854 # b0c8 <__clz_tab+0x118>
    8426:	c31c                	sw	a5,0(a4)
    8428:	57b2                	lw	a5,44(sp)
    842a:	dfc5                	beqz	a5,83e2 <_dtoa_r+0xb8>
    842c:	00003797          	auipc	a5,0x3
    8430:	c9d78793          	addi	a5,a5,-867 # b0c9 <__clz_tab+0x119>
    8434:	b76d                	j	83de <_dtoa_r+0xb4>
    8436:	08b8                	addi	a4,sp,88
    8438:	08f4                	addi	a3,sp,92
    843a:	864a                	mv	a2,s2
    843c:	85a2                	mv	a1,s0
    843e:	8526                	mv	a0,s1
    8440:	01495b13          	srli	s6,s2,0x14
    8444:	366010ef          	jal	ra,97aa <__d2b>
    8448:	7ffb7b13          	andi	s6,s6,2047
    844c:	89aa                	mv	s3,a0
    844e:	4be6                	lw	s7,88(sp)
    8450:	100b0963          	beqz	s6,8562 <_dtoa_r+0x238>
    8454:	57e2                	lw	a5,56(sp)
    8456:	5552                	lw	a0,52(sp)
    8458:	c01b0b13          	addi	s6,s6,-1023
    845c:	00c79593          	slli	a1,a5,0xc
    8460:	81b1                	srli	a1,a1,0xc
    8462:	3ff007b7          	lui	a5,0x3ff00
    8466:	8ddd                	or	a1,a1,a5
    8468:	c282                	sw	zero,68(sp)
    846a:	00003797          	auipc	a5,0x3
    846e:	c8e78793          	addi	a5,a5,-882 # b0f8 <__clz_tab+0x148>
    8472:	4390                	lw	a2,0(a5)
    8474:	43d4                	lw	a3,4(a5)
    8476:	d08fe0ef          	jal	ra,697e <__subdf3>
    847a:	00003797          	auipc	a5,0x3
    847e:	c8678793          	addi	a5,a5,-890 # b100 <__clz_tab+0x150>
    8482:	4390                	lw	a2,0(a5)
    8484:	43d4                	lw	a3,4(a5)
    8486:	ea3fd0ef          	jal	ra,6328 <__muldf3>
    848a:	00003797          	auipc	a5,0x3
    848e:	c7e78793          	addi	a5,a5,-898 # b108 <__clz_tab+0x158>
    8492:	4390                	lw	a2,0(a5)
    8494:	43d4                	lw	a3,4(a5)
    8496:	a97fc0ef          	jal	ra,4f2c <__adddf3>
    849a:	8a2a                	mv	s4,a0
    849c:	855a                	mv	a0,s6
    849e:	8aae                	mv	s5,a1
    84a0:	8beff0ef          	jal	ra,755e <__floatsidf>
    84a4:	00003797          	auipc	a5,0x3
    84a8:	c6c78793          	addi	a5,a5,-916 # b110 <__clz_tab+0x160>
    84ac:	4390                	lw	a2,0(a5)
    84ae:	43d4                	lw	a3,4(a5)
    84b0:	e79fd0ef          	jal	ra,6328 <__muldf3>
    84b4:	862a                	mv	a2,a0
    84b6:	86ae                	mv	a3,a1
    84b8:	8552                	mv	a0,s4
    84ba:	85d6                	mv	a1,s5
    84bc:	a71fc0ef          	jal	ra,4f2c <__adddf3>
    84c0:	8a2a                	mv	s4,a0
    84c2:	8aae                	mv	s5,a1
    84c4:	fc3fe0ef          	jal	ra,7486 <__fixdfsi>
    84c8:	842a                	mv	s0,a0
    84ca:	4601                	li	a2,0
    84cc:	4681                	li	a3,0
    84ce:	8552                	mv	a0,s4
    84d0:	85d6                	mv	a1,s5
    84d2:	da1fd0ef          	jal	ra,6272 <__ledf2>
    84d6:	00055b63          	bgez	a0,84ec <_dtoa_r+0x1c2>
    84da:	8522                	mv	a0,s0
    84dc:	882ff0ef          	jal	ra,755e <__floatsidf>
    84e0:	8652                	mv	a2,s4
    84e2:	86d6                	mv	a3,s5
    84e4:	c41fd0ef          	jal	ra,6124 <__eqdf2>
    84e8:	c111                	beqz	a0,84ec <_dtoa_r+0x1c2>
    84ea:	147d                	addi	s0,s0,-1
    84ec:	4705                	li	a4,1
    84ee:	47d9                	li	a5,22
    84f0:	de3a                	sw	a4,60(sp)
    84f2:	0287e363          	bltu	a5,s0,8518 <_dtoa_r+0x1ee>
    84f6:	00341713          	slli	a4,s0,0x3
    84fa:	00003797          	auipc	a5,0x3
    84fe:	cde78793          	addi	a5,a5,-802 # b1d8 <__mprec_tens>
    8502:	97ba                	add	a5,a5,a4
    8504:	4390                	lw	a2,0(a5)
    8506:	43d4                	lw	a3,4(a5)
    8508:	5552                	lw	a0,52(sp)
    850a:	55e2                	lw	a1,56(sp)
    850c:	d67fd0ef          	jal	ra,6272 <__ledf2>
    8510:	00055363          	bgez	a0,8516 <_dtoa_r+0x1ec>
    8514:	147d                	addi	s0,s0,-1
    8516:	de02                	sw	zero,60(sp)
    8518:	416b8b33          	sub	s6,s7,s6
    851c:	fffb0c93          	addi	s9,s6,-1
    8520:	4c01                	li	s8,0
    8522:	000cd663          	bgez	s9,852e <_dtoa_r+0x204>
    8526:	4c05                	li	s8,1
    8528:	416c0c33          	sub	s8,s8,s6
    852c:	4c81                	li	s9,0
    852e:	06044a63          	bltz	s0,85a2 <_dtoa_r+0x278>
    8532:	9ca2                	add	s9,s9,s0
    8534:	d822                	sw	s0,48(sp)
    8536:	d002                	sw	zero,32(sp)
    8538:	47a5                	li	a5,9
    853a:	15a7e163          	bltu	a5,s10,867c <_dtoa_r+0x352>
    853e:	4795                	li	a5,5
    8540:	4b05                	li	s6,1
    8542:	01a7d463          	bge	a5,s10,854a <_dtoa_r+0x220>
    8546:	1d71                	addi	s10,s10,-4
    8548:	4b01                	li	s6,0
    854a:	478d                	li	a5,3
    854c:	10fd0d63          	beq	s10,a5,8666 <_dtoa_r+0x33c>
    8550:	07a7c063          	blt	a5,s10,85b0 <_dtoa_r+0x286>
    8554:	4789                	li	a5,2
    8556:	d402                	sw	zero,40(sp)
    8558:	06fd0c63          	beq	s10,a5,85d0 <_dtoa_r+0x2a6>
    855c:	4785                	li	a5,1
    855e:	d43e                	sw	a5,40(sp)
    8560:	a085                	j	85c0 <_dtoa_r+0x296>
    8562:	4b76                	lw	s6,92(sp)
    8564:	02000793          	li	a5,32
    8568:	9b5e                	add	s6,s6,s7
    856a:	432b0713          	addi	a4,s6,1074
    856e:	02e7d563          	bge	a5,a4,8598 <_dtoa_r+0x26e>
    8572:	04000513          	li	a0,64
    8576:	8d19                	sub	a0,a0,a4
    8578:	412b0793          	addi	a5,s6,1042
    857c:	00a91533          	sll	a0,s2,a0
    8580:	00f45433          	srl	s0,s0,a5
    8584:	8d41                	or	a0,a0,s0
    8586:	848ff0ef          	jal	ra,75ce <__floatunsidf>
    858a:	fe1007b7          	lui	a5,0xfe100
    858e:	95be                	add	a1,a1,a5
    8590:	4785                	li	a5,1
    8592:	1b7d                	addi	s6,s6,-1
    8594:	c2be                	sw	a5,68(sp)
    8596:	bdd1                	j	846a <_dtoa_r+0x140>
    8598:	40e78533          	sub	a0,a5,a4
    859c:	00a41533          	sll	a0,s0,a0
    85a0:	b7dd                	j	8586 <_dtoa_r+0x25c>
    85a2:	408007b3          	neg	a5,s0
    85a6:	408c0c33          	sub	s8,s8,s0
    85aa:	d03e                	sw	a5,32(sp)
    85ac:	d802                	sw	zero,48(sp)
    85ae:	b769                	j	8538 <_dtoa_r+0x20e>
    85b0:	4791                	li	a5,4
    85b2:	00fd0d63          	beq	s10,a5,85cc <_dtoa_r+0x2a2>
    85b6:	4705                	li	a4,1
    85b8:	4795                	li	a5,5
    85ba:	d43a                	sw	a4,40(sp)
    85bc:	0afd0663          	beq	s10,a5,8668 <_dtoa_r+0x33e>
    85c0:	57fd                	li	a5,-1
    85c2:	c63e                	sw	a5,12(sp)
    85c4:	5a7d                	li	s4,-1
    85c6:	47c9                	li	a5,18
    85c8:	d202                	sw	zero,36(sp)
    85ca:	a819                	j	85e0 <_dtoa_r+0x2b6>
    85cc:	4785                	li	a5,1
    85ce:	d43e                	sw	a5,40(sp)
    85d0:	5792                	lw	a5,36(sp)
    85d2:	0af04863          	bgtz	a5,8682 <_dtoa_r+0x358>
    85d6:	4785                	li	a5,1
    85d8:	4705                	li	a4,1
    85da:	c63e                	sw	a5,12(sp)
    85dc:	4a05                	li	s4,1
    85de:	d23a                	sw	a4,36(sp)
    85e0:	0244aa83          	lw	s5,36(s1)
    85e4:	4711                	li	a4,4
    85e6:	000aa223          	sw	zero,4(s5)
    85ea:	01470693          	addi	a3,a4,20
    85ee:	004aa583          	lw	a1,4(s5)
    85f2:	08d7fc63          	bgeu	a5,a3,868a <_dtoa_r+0x360>
    85f6:	8526                	mv	a0,s1
    85f8:	38f000ef          	jal	ra,9186 <_Balloc>
    85fc:	50dc                	lw	a5,36(s1)
    85fe:	00aaa023          	sw	a0,0(s5)
    8602:	0007aa83          	lw	s5,0(a5) # fe100000 <_eusrstack+0xde0f0000>
    8606:	47b9                	li	a5,14
    8608:	1d47e863          	bltu	a5,s4,87d8 <_dtoa_r+0x4ae>
    860c:	1c0b0663          	beqz	s6,87d8 <_dtoa_r+0x4ae>
    8610:	0a805f63          	blez	s0,86ce <_dtoa_r+0x3a4>
    8614:	00f47793          	andi	a5,s0,15
    8618:	00379713          	slli	a4,a5,0x3
    861c:	40445b13          	srai	s6,s0,0x4
    8620:	00003797          	auipc	a5,0x3
    8624:	bb878793          	addi	a5,a5,-1096 # b1d8 <__mprec_tens>
    8628:	97ba                	add	a5,a5,a4
    862a:	010b7693          	andi	a3,s6,16
    862e:	4398                	lw	a4,0(a5)
    8630:	4d89                	li	s11,2
    8632:	43dc                	lw	a5,4(a5)
    8634:	c685                	beqz	a3,865c <_dtoa_r+0x332>
    8636:	00003697          	auipc	a3,0x3
    863a:	b7a68693          	addi	a3,a3,-1158 # b1b0 <__mprec_bigtens>
    863e:	5290                	lw	a2,32(a3)
    8640:	5552                	lw	a0,52(sp)
    8642:	52d4                	lw	a3,36(a3)
    8644:	55e2                	lw	a1,56(sp)
    8646:	cc3a                	sw	a4,24(sp)
    8648:	ce3e                	sw	a5,28(sp)
    864a:	af0fd0ef          	jal	ra,593a <__divdf3>
    864e:	4762                	lw	a4,24(sp)
    8650:	47f2                	lw	a5,28(sp)
    8652:	00fb7b13          	andi	s6,s6,15
    8656:	c82a                	sw	a0,16(sp)
    8658:	892e                	mv	s2,a1
    865a:	4d8d                	li	s11,3
    865c:	00003b97          	auipc	s7,0x3
    8660:	b54b8b93          	addi	s7,s7,-1196 # b1b0 <__mprec_bigtens>
    8664:	a889                	j	86b6 <_dtoa_r+0x38c>
    8666:	d402                	sw	zero,40(sp)
    8668:	5792                	lw	a5,36(sp)
    866a:	97a2                	add	a5,a5,s0
    866c:	c63e                	sw	a5,12(sp)
    866e:	00178a13          	addi	s4,a5,1
    8672:	87d2                	mv	a5,s4
    8674:	f74046e3          	bgtz	s4,85e0 <_dtoa_r+0x2b6>
    8678:	4785                	li	a5,1
    867a:	b79d                	j	85e0 <_dtoa_r+0x2b6>
    867c:	4b05                	li	s6,1
    867e:	4d01                	li	s10,0
    8680:	bdf1                	j	855c <_dtoa_r+0x232>
    8682:	5792                	lw	a5,36(sp)
    8684:	c63e                	sw	a5,12(sp)
    8686:	8a3e                	mv	s4,a5
    8688:	bfa1                	j	85e0 <_dtoa_r+0x2b6>
    868a:	0585                	addi	a1,a1,1
    868c:	00baa223          	sw	a1,4(s5)
    8690:	0706                	slli	a4,a4,0x1
    8692:	bfa1                	j	85ea <_dtoa_r+0x2c0>
    8694:	001b7693          	andi	a3,s6,1
    8698:	ce81                	beqz	a3,86b0 <_dtoa_r+0x386>
    869a:	000ba603          	lw	a2,0(s7)
    869e:	004ba683          	lw	a3,4(s7)
    86a2:	853a                	mv	a0,a4
    86a4:	85be                	mv	a1,a5
    86a6:	c83fd0ef          	jal	ra,6328 <__muldf3>
    86aa:	0d85                	addi	s11,s11,1
    86ac:	872a                	mv	a4,a0
    86ae:	87ae                	mv	a5,a1
    86b0:	401b5b13          	srai	s6,s6,0x1
    86b4:	0ba1                	addi	s7,s7,8
    86b6:	fc0b1fe3          	bnez	s6,8694 <_dtoa_r+0x36a>
    86ba:	863a                	mv	a2,a4
    86bc:	4742                	lw	a4,16(sp)
    86be:	86be                	mv	a3,a5
    86c0:	85ca                	mv	a1,s2
    86c2:	853a                	mv	a0,a4
    86c4:	a76fd0ef          	jal	ra,593a <__divdf3>
    86c8:	c82a                	sw	a0,16(sp)
    86ca:	892e                	mv	s2,a1
    86cc:	a081                	j	870c <_dtoa_r+0x3e2>
    86ce:	4d89                	li	s11,2
    86d0:	cc15                	beqz	s0,870c <_dtoa_r+0x3e2>
    86d2:	40800b33          	neg	s6,s0
    86d6:	00fb7793          	andi	a5,s6,15
    86da:	00379713          	slli	a4,a5,0x3
    86de:	00003797          	auipc	a5,0x3
    86e2:	afa78793          	addi	a5,a5,-1286 # b1d8 <__mprec_tens>
    86e6:	97ba                	add	a5,a5,a4
    86e8:	4390                	lw	a2,0(a5)
    86ea:	43d4                	lw	a3,4(a5)
    86ec:	5552                	lw	a0,52(sp)
    86ee:	55e2                	lw	a1,56(sp)
    86f0:	404b5b13          	srai	s6,s6,0x4
    86f4:	00003b97          	auipc	s7,0x3
    86f8:	abcb8b93          	addi	s7,s7,-1348 # b1b0 <__mprec_bigtens>
    86fc:	c2dfd0ef          	jal	ra,6328 <__muldf3>
    8700:	c82a                	sw	a0,16(sp)
    8702:	892e                	mv	s2,a1
    8704:	4781                	li	a5,0
    8706:	120b1c63          	bnez	s6,883e <_dtoa_r+0x514>
    870a:	ffdd                	bnez	a5,86c8 <_dtoa_r+0x39e>
    870c:	57f2                	lw	a5,60(sp)
    870e:	14078763          	beqz	a5,885c <_dtoa_r+0x532>
    8712:	00003797          	auipc	a5,0x3
    8716:	a0678793          	addi	a5,a5,-1530 # b118 <__clz_tab+0x168>
    871a:	4bc2                	lw	s7,16(sp)
    871c:	4390                	lw	a2,0(a5)
    871e:	43d4                	lw	a3,4(a5)
    8720:	855e                	mv	a0,s7
    8722:	85ca                	mv	a1,s2
    8724:	b4ffd0ef          	jal	ra,6272 <__ledf2>
    8728:	12055a63          	bgez	a0,885c <_dtoa_r+0x532>
    872c:	120a0b63          	beqz	s4,8862 <_dtoa_r+0x538>
    8730:	47b2                	lw	a5,12(sp)
    8732:	0af05063          	blez	a5,87d2 <_dtoa_r+0x4a8>
    8736:	fff40793          	addi	a5,s0,-1
    873a:	cc3e                	sw	a5,24(sp)
    873c:	00003797          	auipc	a5,0x3
    8740:	9e478793          	addi	a5,a5,-1564 # b120 <__clz_tab+0x170>
    8744:	4390                	lw	a2,0(a5)
    8746:	43d4                	lw	a3,4(a5)
    8748:	85ca                	mv	a1,s2
    874a:	855e                	mv	a0,s7
    874c:	bddfd0ef          	jal	ra,6328 <__muldf3>
    8750:	47b2                	lw	a5,12(sp)
    8752:	c82a                	sw	a0,16(sp)
    8754:	892e                	mv	s2,a1
    8756:	0d85                	addi	s11,s11,1
    8758:	4842                	lw	a6,16(sp)
    875a:	856e                	mv	a0,s11
    875c:	c6be                	sw	a5,76(sp)
    875e:	8b42                	mv	s6,a6
    8760:	c4c2                	sw	a6,72(sp)
    8762:	c84a                	sw	s2,16(sp)
    8764:	dfbfe0ef          	jal	ra,755e <__floatsidf>
    8768:	4826                	lw	a6,72(sp)
    876a:	4742                	lw	a4,16(sp)
    876c:	8bca                	mv	s7,s2
    876e:	8642                	mv	a2,a6
    8770:	86ba                	mv	a3,a4
    8772:	bb7fd0ef          	jal	ra,6328 <__muldf3>
    8776:	00003697          	auipc	a3,0x3
    877a:	9b268693          	addi	a3,a3,-1614 # b128 <__clz_tab+0x178>
    877e:	4290                	lw	a2,0(a3)
    8780:	42d4                	lw	a3,4(a3)
    8782:	fcc00937          	lui	s2,0xfcc00
    8786:	fa6fc0ef          	jal	ra,4f2c <__adddf3>
    878a:	47b6                	lw	a5,76(sp)
    878c:	8daa                	mv	s11,a0
    878e:	992e                	add	s2,s2,a1
    8790:	efe1                	bnez	a5,8868 <_dtoa_r+0x53e>
    8792:	00003797          	auipc	a5,0x3
    8796:	99e78793          	addi	a5,a5,-1634 # b130 <__clz_tab+0x180>
    879a:	4826                	lw	a6,72(sp)
    879c:	4742                	lw	a4,16(sp)
    879e:	4390                	lw	a2,0(a5)
    87a0:	43d4                	lw	a3,4(a5)
    87a2:	8542                	mv	a0,a6
    87a4:	85ba                	mv	a1,a4
    87a6:	9d8fe0ef          	jal	ra,697e <__subdf3>
    87aa:	866e                	mv	a2,s11
    87ac:	86ca                	mv	a3,s2
    87ae:	8b2a                	mv	s6,a0
    87b0:	8bae                	mv	s7,a1
    87b2:	a0bfd0ef          	jal	ra,61bc <__gedf2>
    87b6:	54a04563          	bgtz	a0,8d00 <_dtoa_r+0x9d6>
    87ba:	800007b7          	lui	a5,0x80000
    87be:	0127c7b3          	xor	a5,a5,s2
    87c2:	866e                	mv	a2,s11
    87c4:	86be                	mv	a3,a5
    87c6:	855a                	mv	a0,s6
    87c8:	85de                	mv	a1,s7
    87ca:	aa9fd0ef          	jal	ra,6272 <__ledf2>
    87ce:	52054663          	bltz	a0,8cfa <_dtoa_r+0x9d0>
    87d2:	57d2                	lw	a5,52(sp)
    87d4:	5962                	lw	s2,56(sp)
    87d6:	c83e                	sw	a5,16(sp)
    87d8:	47f6                	lw	a5,92(sp)
    87da:	3007c863          	bltz	a5,8aea <_dtoa_r+0x7c0>
    87de:	4739                	li	a4,14
    87e0:	30874563          	blt	a4,s0,8aea <_dtoa_r+0x7c0>
    87e4:	00341713          	slli	a4,s0,0x3
    87e8:	00003797          	auipc	a5,0x3
    87ec:	9f078793          	addi	a5,a5,-1552 # b1d8 <__mprec_tens>
    87f0:	97ba                	add	a5,a5,a4
    87f2:	0007ab03          	lw	s6,0(a5)
    87f6:	0047ab83          	lw	s7,4(a5)
    87fa:	5792                	lw	a5,36(sp)
    87fc:	2007d363          	bgez	a5,8a02 <_dtoa_r+0x6d8>
    8800:	21404163          	bgtz	s4,8a02 <_dtoa_r+0x6d8>
    8804:	4e0a1b63          	bnez	s4,8cfa <_dtoa_r+0x9d0>
    8808:	00003797          	auipc	a5,0x3
    880c:	92878793          	addi	a5,a5,-1752 # b130 <__clz_tab+0x180>
    8810:	4390                	lw	a2,0(a5)
    8812:	43d4                	lw	a3,4(a5)
    8814:	855a                	mv	a0,s6
    8816:	85de                	mv	a1,s7
    8818:	b11fd0ef          	jal	ra,6328 <__muldf3>
    881c:	4742                	lw	a4,16(sp)
    881e:	86ca                	mv	a3,s2
    8820:	4b81                	li	s7,0
    8822:	863a                	mv	a2,a4
    8824:	999fd0ef          	jal	ra,61bc <__gedf2>
    8828:	4b01                	li	s6,0
    882a:	4a055363          	bgez	a0,8cd0 <_dtoa_r+0x9a6>
    882e:	03100793          	li	a5,49
    8832:	001a8913          	addi	s2,s5,1
    8836:	00fa8023          	sb	a5,0(s5)
    883a:	0405                	addi	s0,s0,1
    883c:	a971                	j	8cd8 <_dtoa_r+0x9ae>
    883e:	001b7713          	andi	a4,s6,1
    8842:	cb09                	beqz	a4,8854 <_dtoa_r+0x52a>
    8844:	000ba603          	lw	a2,0(s7)
    8848:	004ba683          	lw	a3,4(s7)
    884c:	0d85                	addi	s11,s11,1
    884e:	adbfd0ef          	jal	ra,6328 <__muldf3>
    8852:	4785                	li	a5,1
    8854:	401b5b13          	srai	s6,s6,0x1
    8858:	0ba1                	addi	s7,s7,8
    885a:	b575                	j	8706 <_dtoa_r+0x3dc>
    885c:	cc22                	sw	s0,24(sp)
    885e:	87d2                	mv	a5,s4
    8860:	bde5                	j	8758 <_dtoa_r+0x42e>
    8862:	cc22                	sw	s0,24(sp)
    8864:	4781                	li	a5,0
    8866:	bdcd                	j	8758 <_dtoa_r+0x42e>
    8868:	fff78693          	addi	a3,a5,-1
    886c:	00fa8db3          	add	s11,s5,a5
    8870:	57a2                	lw	a5,40(sp)
    8872:	00369613          	slli	a2,a3,0x3
    8876:	00003697          	auipc	a3,0x3
    887a:	96268693          	addi	a3,a3,-1694 # b1d8 <__mprec_tens>
    887e:	96b2                	add	a3,a3,a2
    8880:	882a                	mv	a6,a0
    8882:	42cc                	lw	a1,4(a3)
    8884:	4288                	lw	a0,0(a3)
    8886:	c3e1                	beqz	a5,8946 <_dtoa_r+0x61c>
    8888:	00003797          	auipc	a5,0x3
    888c:	8b078793          	addi	a5,a5,-1872 # b138 <__clz_tab+0x188>
    8890:	862a                	mv	a2,a0
    8892:	86ae                	mv	a3,a1
    8894:	4388                	lw	a0,0(a5)
    8896:	43cc                	lw	a1,4(a5)
    8898:	c4ca                	sw	s2,72(sp)
    889a:	c842                	sw	a6,16(sp)
    889c:	89efd0ef          	jal	ra,593a <__divdf3>
    88a0:	4842                	lw	a6,16(sp)
    88a2:	4726                	lw	a4,72(sp)
    88a4:	8956                	mv	s2,s5
    88a6:	8642                	mv	a2,a6
    88a8:	86ba                	mv	a3,a4
    88aa:	8d4fe0ef          	jal	ra,697e <__subdf3>
    88ae:	c82a                	sw	a0,16(sp)
    88b0:	ca2e                	sw	a1,20(sp)
    88b2:	85de                	mv	a1,s7
    88b4:	855a                	mv	a0,s6
    88b6:	bd1fe0ef          	jal	ra,7486 <__fixdfsi>
    88ba:	c4aa                	sw	a0,72(sp)
    88bc:	ca3fe0ef          	jal	ra,755e <__floatsidf>
    88c0:	862a                	mv	a2,a0
    88c2:	86ae                	mv	a3,a1
    88c4:	855a                	mv	a0,s6
    88c6:	85de                	mv	a1,s7
    88c8:	8b6fe0ef          	jal	ra,697e <__subdf3>
    88cc:	47a6                	lw	a5,72(sp)
    88ce:	8b2a                	mv	s6,a0
    88d0:	8bae                	mv	s7,a1
    88d2:	862a                	mv	a2,a0
    88d4:	86ae                	mv	a3,a1
    88d6:	4542                	lw	a0,16(sp)
    88d8:	45d2                	lw	a1,20(sp)
    88da:	0905                	addi	s2,s2,1
    88dc:	03078793          	addi	a5,a5,48
    88e0:	fef90fa3          	sb	a5,-1(s2) # fcbfffff <_eusrstack+0xdcbeffff>
    88e4:	8d9fd0ef          	jal	ra,61bc <__gedf2>
    88e8:	0ea04c63          	bgtz	a0,89e0 <_dtoa_r+0x6b6>
    88ec:	00003797          	auipc	a5,0x3
    88f0:	82c78793          	addi	a5,a5,-2004 # b118 <__clz_tab+0x168>
    88f4:	4388                	lw	a0,0(a5)
    88f6:	43cc                	lw	a1,4(a5)
    88f8:	865a                	mv	a2,s6
    88fa:	86de                	mv	a3,s7
    88fc:	882fe0ef          	jal	ra,697e <__subdf3>
    8900:	862a                	mv	a2,a0
    8902:	86ae                	mv	a3,a1
    8904:	4542                	lw	a0,16(sp)
    8906:	45d2                	lw	a1,20(sp)
    8908:	8b5fd0ef          	jal	ra,61bc <__gedf2>
    890c:	18a04463          	bgtz	a0,8a94 <_dtoa_r+0x76a>
    8910:	edb901e3          	beq	s2,s11,87d2 <_dtoa_r+0x4a8>
    8914:	00003797          	auipc	a5,0x3
    8918:	80c78793          	addi	a5,a5,-2036 # b120 <__clz_tab+0x170>
    891c:	4390                	lw	a2,0(a5)
    891e:	43d4                	lw	a3,4(a5)
    8920:	4542                	lw	a0,16(sp)
    8922:	45d2                	lw	a1,20(sp)
    8924:	a05fd0ef          	jal	ra,6328 <__muldf3>
    8928:	00002797          	auipc	a5,0x2
    892c:	7f878793          	addi	a5,a5,2040 # b120 <__clz_tab+0x170>
    8930:	4390                	lw	a2,0(a5)
    8932:	43d4                	lw	a3,4(a5)
    8934:	c82a                	sw	a0,16(sp)
    8936:	ca2e                	sw	a1,20(sp)
    8938:	855a                	mv	a0,s6
    893a:	85de                	mv	a1,s7
    893c:	9edfd0ef          	jal	ra,6328 <__muldf3>
    8940:	8b2a                	mv	s6,a0
    8942:	8bae                	mv	s7,a1
    8944:	b7bd                	j	88b2 <_dtoa_r+0x588>
    8946:	86ca                	mv	a3,s2
    8948:	8642                	mv	a2,a6
    894a:	9dffd0ef          	jal	ra,6328 <__muldf3>
    894e:	c82a                	sw	a0,16(sp)
    8950:	ca2e                	sw	a1,20(sp)
    8952:	896e                	mv	s2,s11
    8954:	87d6                	mv	a5,s5
    8956:	85de                	mv	a1,s7
    8958:	855a                	mv	a0,s6
    895a:	c6be                	sw	a5,76(sp)
    895c:	b2bfe0ef          	jal	ra,7486 <__fixdfsi>
    8960:	c4aa                	sw	a0,72(sp)
    8962:	bfdfe0ef          	jal	ra,755e <__floatsidf>
    8966:	862a                	mv	a2,a0
    8968:	86ae                	mv	a3,a1
    896a:	855a                	mv	a0,s6
    896c:	85de                	mv	a1,s7
    896e:	810fe0ef          	jal	ra,697e <__subdf3>
    8972:	47b6                	lw	a5,76(sp)
    8974:	4726                	lw	a4,72(sp)
    8976:	8b2a                	mv	s6,a0
    8978:	0785                	addi	a5,a5,1
    897a:	03070713          	addi	a4,a4,48
    897e:	fee78fa3          	sb	a4,-1(a5)
    8982:	8bae                	mv	s7,a1
    8984:	07b79263          	bne	a5,s11,89e8 <_dtoa_r+0x6be>
    8988:	00002d97          	auipc	s11,0x2
    898c:	7b0d8d93          	addi	s11,s11,1968 # b138 <__clz_tab+0x188>
    8990:	000da603          	lw	a2,0(s11)
    8994:	004da683          	lw	a3,4(s11)
    8998:	4542                	lw	a0,16(sp)
    899a:	45d2                	lw	a1,20(sp)
    899c:	d90fc0ef          	jal	ra,4f2c <__adddf3>
    89a0:	862a                	mv	a2,a0
    89a2:	86ae                	mv	a3,a1
    89a4:	855a                	mv	a0,s6
    89a6:	85de                	mv	a1,s7
    89a8:	815fd0ef          	jal	ra,61bc <__gedf2>
    89ac:	0ea04463          	bgtz	a0,8a94 <_dtoa_r+0x76a>
    89b0:	4642                	lw	a2,16(sp)
    89b2:	46d2                	lw	a3,20(sp)
    89b4:	000da503          	lw	a0,0(s11)
    89b8:	004da583          	lw	a1,4(s11)
    89bc:	fc3fd0ef          	jal	ra,697e <__subdf3>
    89c0:	862a                	mv	a2,a0
    89c2:	86ae                	mv	a3,a1
    89c4:	855a                	mv	a0,s6
    89c6:	85de                	mv	a1,s7
    89c8:	8abfd0ef          	jal	ra,6272 <__ledf2>
    89cc:	03000793          	li	a5,48
    89d0:	e00551e3          	bgez	a0,87d2 <_dtoa_r+0x4a8>
    89d4:	fff94703          	lbu	a4,-1(s2)
    89d8:	fff90693          	addi	a3,s2,-1
    89dc:	00f70463          	beq	a4,a5,89e4 <_dtoa_r+0x6ba>
    89e0:	4462                	lw	s0,24(sp)
    89e2:	a849                	j	8a74 <_dtoa_r+0x74a>
    89e4:	8936                	mv	s2,a3
    89e6:	b7fd                	j	89d4 <_dtoa_r+0x6aa>
    89e8:	c4be                	sw	a5,72(sp)
    89ea:	00002797          	auipc	a5,0x2
    89ee:	73678793          	addi	a5,a5,1846 # b120 <__clz_tab+0x170>
    89f2:	4390                	lw	a2,0(a5)
    89f4:	43d4                	lw	a3,4(a5)
    89f6:	933fd0ef          	jal	ra,6328 <__muldf3>
    89fa:	8b2a                	mv	s6,a0
    89fc:	8bae                	mv	s7,a1
    89fe:	47a6                	lw	a5,72(sp)
    8a00:	bf99                	j	8956 <_dtoa_r+0x62c>
    8a02:	4642                	lw	a2,16(sp)
    8a04:	8dca                	mv	s11,s2
    8a06:	001a8c13          	addi	s8,s5,1
    8a0a:	8d32                	mv	s10,a2
    8a0c:	9a56                	add	s4,s4,s5
    8a0e:	865a                	mv	a2,s6
    8a10:	86de                	mv	a3,s7
    8a12:	856a                	mv	a0,s10
    8a14:	85ee                	mv	a1,s11
    8a16:	f25fc0ef          	jal	ra,593a <__divdf3>
    8a1a:	a6dfe0ef          	jal	ra,7486 <__fixdfsi>
    8a1e:	8caa                	mv	s9,a0
    8a20:	b3ffe0ef          	jal	ra,755e <__floatsidf>
    8a24:	865a                	mv	a2,s6
    8a26:	86de                	mv	a3,s7
    8a28:	901fd0ef          	jal	ra,6328 <__muldf3>
    8a2c:	862a                	mv	a2,a0
    8a2e:	86ae                	mv	a3,a1
    8a30:	856a                	mv	a0,s10
    8a32:	85ee                	mv	a1,s11
    8a34:	f4bfd0ef          	jal	ra,697e <__subdf3>
    8a38:	030c8793          	addi	a5,s9,48
    8a3c:	fefc0fa3          	sb	a5,-1(s8)
    8a40:	862a                	mv	a2,a0
    8a42:	86ae                	mv	a3,a1
    8a44:	8962                	mv	s2,s8
    8a46:	098a1063          	bne	s4,s8,8ac6 <_dtoa_r+0x79c>
    8a4a:	ce2fc0ef          	jal	ra,4f2c <__adddf3>
    8a4e:	865a                	mv	a2,s6
    8a50:	86de                	mv	a3,s7
    8a52:	8d2a                	mv	s10,a0
    8a54:	8dae                	mv	s11,a1
    8a56:	f66fd0ef          	jal	ra,61bc <__gedf2>
    8a5a:	02a04c63          	bgtz	a0,8a92 <_dtoa_r+0x768>
    8a5e:	865a                	mv	a2,s6
    8a60:	86de                	mv	a3,s7
    8a62:	856a                	mv	a0,s10
    8a64:	85ee                	mv	a1,s11
    8a66:	ebefd0ef          	jal	ra,6124 <__eqdf2>
    8a6a:	e509                	bnez	a0,8a74 <_dtoa_r+0x74a>
    8a6c:	001cfc93          	andi	s9,s9,1
    8a70:	020c9163          	bnez	s9,8a92 <_dtoa_r+0x768>
    8a74:	85ce                	mv	a1,s3
    8a76:	8526                	mv	a0,s1
    8a78:	796000ef          	jal	ra,920e <_Bfree>
    8a7c:	4786                	lw	a5,64(sp)
    8a7e:	00090023          	sb	zero,0(s2)
    8a82:	0405                	addi	s0,s0,1
    8a84:	c380                	sw	s0,0(a5)
    8a86:	57b2                	lw	a5,44(sp)
    8a88:	94078de3          	beqz	a5,83e2 <_dtoa_r+0xb8>
    8a8c:	0127a023          	sw	s2,0(a5)
    8a90:	ba89                	j	83e2 <_dtoa_r+0xb8>
    8a92:	cc22                	sw	s0,24(sp)
    8a94:	03900713          	li	a4,57
    8a98:	fff94683          	lbu	a3,-1(s2)
    8a9c:	fff90793          	addi	a5,s2,-1
    8aa0:	00e69b63          	bne	a3,a4,8ab6 <_dtoa_r+0x78c>
    8aa4:	00fa9f63          	bne	s5,a5,8ac2 <_dtoa_r+0x798>
    8aa8:	4762                	lw	a4,24(sp)
    8aaa:	0705                	addi	a4,a4,1
    8aac:	cc3a                	sw	a4,24(sp)
    8aae:	03000713          	li	a4,48
    8ab2:	00ea8023          	sb	a4,0(s5)
    8ab6:	0007c703          	lbu	a4,0(a5)
    8aba:	0705                	addi	a4,a4,1
    8abc:	00e78023          	sb	a4,0(a5)
    8ac0:	b705                	j	89e0 <_dtoa_r+0x6b6>
    8ac2:	893e                	mv	s2,a5
    8ac4:	bfd1                	j	8a98 <_dtoa_r+0x76e>
    8ac6:	00002797          	auipc	a5,0x2
    8aca:	65a78793          	addi	a5,a5,1626 # b120 <__clz_tab+0x170>
    8ace:	4390                	lw	a2,0(a5)
    8ad0:	43d4                	lw	a3,4(a5)
    8ad2:	0c05                	addi	s8,s8,1
    8ad4:	855fd0ef          	jal	ra,6328 <__muldf3>
    8ad8:	4601                	li	a2,0
    8ada:	4681                	li	a3,0
    8adc:	8d2a                	mv	s10,a0
    8ade:	8dae                	mv	s11,a1
    8ae0:	e44fd0ef          	jal	ra,6124 <__eqdf2>
    8ae4:	f20515e3          	bnez	a0,8a0e <_dtoa_r+0x6e4>
    8ae8:	b771                	j	8a74 <_dtoa_r+0x74a>
    8aea:	5722                	lw	a4,40(sp)
    8aec:	0e070d63          	beqz	a4,8be6 <_dtoa_r+0x8bc>
    8af0:	4705                	li	a4,1
    8af2:	0da74163          	blt	a4,s10,8bb4 <_dtoa_r+0x88a>
    8af6:	4716                	lw	a4,68(sp)
    8af8:	43378793          	addi	a5,a5,1075
    8afc:	e709                	bnez	a4,8b06 <_dtoa_r+0x7dc>
    8afe:	4766                	lw	a4,88(sp)
    8b00:	03600793          	li	a5,54
    8b04:	8f99                	sub	a5,a5,a4
    8b06:	5b82                	lw	s7,32(sp)
    8b08:	8de2                	mv	s11,s8
    8b0a:	4585                	li	a1,1
    8b0c:	8526                	mv	a0,s1
    8b0e:	9c3e                	add	s8,s8,a5
    8b10:	9cbe                	add	s9,s9,a5
    8b12:	089000ef          	jal	ra,939a <__i2b>
    8b16:	8b2a                	mv	s6,a0
    8b18:	01b05e63          	blez	s11,8b34 <_dtoa_r+0x80a>
    8b1c:	01905c63          	blez	s9,8b34 <_dtoa_r+0x80a>
    8b20:	87ee                	mv	a5,s11
    8b22:	01bcd363          	bge	s9,s11,8b28 <_dtoa_r+0x7fe>
    8b26:	87e6                	mv	a5,s9
    8b28:	40fc0c33          	sub	s8,s8,a5
    8b2c:	40fd8db3          	sub	s11,s11,a5
    8b30:	40fc8cb3          	sub	s9,s9,a5
    8b34:	5782                	lw	a5,32(sp)
    8b36:	c3a1                	beqz	a5,8b76 <_dtoa_r+0x84c>
    8b38:	57a2                	lw	a5,40(sp)
    8b3a:	cbd5                	beqz	a5,8bee <_dtoa_r+0x8c4>
    8b3c:	03705463          	blez	s7,8b64 <_dtoa_r+0x83a>
    8b40:	85da                	mv	a1,s6
    8b42:	865e                	mv	a2,s7
    8b44:	8526                	mv	a0,s1
    8b46:	1b5000ef          	jal	ra,94fa <__pow5mult>
    8b4a:	864e                	mv	a2,s3
    8b4c:	85aa                	mv	a1,a0
    8b4e:	8b2a                	mv	s6,a0
    8b50:	8526                	mv	a0,s1
    8b52:	065000ef          	jal	ra,93b6 <__multiply>
    8b56:	cc2a                	sw	a0,24(sp)
    8b58:	85ce                	mv	a1,s3
    8b5a:	8526                	mv	a0,s1
    8b5c:	6b2000ef          	jal	ra,920e <_Bfree>
    8b60:	47e2                	lw	a5,24(sp)
    8b62:	89be                	mv	s3,a5
    8b64:	5782                	lw	a5,32(sp)
    8b66:	41778633          	sub	a2,a5,s7
    8b6a:	c611                	beqz	a2,8b76 <_dtoa_r+0x84c>
    8b6c:	85ce                	mv	a1,s3
    8b6e:	8526                	mv	a0,s1
    8b70:	18b000ef          	jal	ra,94fa <__pow5mult>
    8b74:	89aa                	mv	s3,a0
    8b76:	4585                	li	a1,1
    8b78:	8526                	mv	a0,s1
    8b7a:	021000ef          	jal	ra,939a <__i2b>
    8b7e:	57c2                	lw	a5,48(sp)
    8b80:	8baa                	mv	s7,a0
    8b82:	06f05863          	blez	a5,8bf2 <_dtoa_r+0x8c8>
    8b86:	863e                	mv	a2,a5
    8b88:	85aa                	mv	a1,a0
    8b8a:	8526                	mv	a0,s1
    8b8c:	16f000ef          	jal	ra,94fa <__pow5mult>
    8b90:	4785                	li	a5,1
    8b92:	8baa                	mv	s7,a0
    8b94:	07a7d363          	bge	a5,s10,8bfa <_dtoa_r+0x8d0>
    8b98:	d002                	sw	zero,32(sp)
    8b9a:	010ba783          	lw	a5,16(s7)
    8b9e:	078d                	addi	a5,a5,3
    8ba0:	078a                	slli	a5,a5,0x2
    8ba2:	97de                	add	a5,a5,s7
    8ba4:	43c8                	lw	a0,4(a5)
    8ba6:	744000ef          	jal	ra,92ea <__hi0bits>
    8baa:	02000793          	li	a5,32
    8bae:	40a78533          	sub	a0,a5,a0
    8bb2:	a885                	j	8c22 <_dtoa_r+0x8f8>
    8bb4:	5782                	lw	a5,32(sp)
    8bb6:	fffa0b93          	addi	s7,s4,-1
    8bba:	0177ca63          	blt	a5,s7,8bce <_dtoa_r+0x8a4>
    8bbe:	41778bb3          	sub	s7,a5,s7
    8bc2:	000a5f63          	bgez	s4,8be0 <_dtoa_r+0x8b6>
    8bc6:	414c0db3          	sub	s11,s8,s4
    8bca:	4781                	li	a5,0
    8bcc:	bf3d                	j	8b0a <_dtoa_r+0x7e0>
    8bce:	5782                	lw	a5,32(sp)
    8bd0:	d05e                	sw	s7,32(sp)
    8bd2:	40fb8633          	sub	a2,s7,a5
    8bd6:	57c2                	lw	a5,48(sp)
    8bd8:	4b81                	li	s7,0
    8bda:	97b2                	add	a5,a5,a2
    8bdc:	d83e                	sw	a5,48(sp)
    8bde:	b7d5                	j	8bc2 <_dtoa_r+0x898>
    8be0:	8de2                	mv	s11,s8
    8be2:	87d2                	mv	a5,s4
    8be4:	b71d                	j	8b0a <_dtoa_r+0x7e0>
    8be6:	5b82                	lw	s7,32(sp)
    8be8:	8de2                	mv	s11,s8
    8bea:	4b01                	li	s6,0
    8bec:	b735                	j	8b18 <_dtoa_r+0x7ee>
    8bee:	5602                	lw	a2,32(sp)
    8bf0:	bfb5                	j	8b6c <_dtoa_r+0x842>
    8bf2:	4785                	li	a5,1
    8bf4:	d002                	sw	zero,32(sp)
    8bf6:	03a7c363          	blt	a5,s10,8c1c <_dtoa_r+0x8f2>
    8bfa:	47c2                	lw	a5,16(sp)
    8bfc:	d002                	sw	zero,32(sp)
    8bfe:	ef99                	bnez	a5,8c1c <_dtoa_r+0x8f2>
    8c00:	d03e                	sw	a5,32(sp)
    8c02:	00c91793          	slli	a5,s2,0xc
    8c06:	eb99                	bnez	a5,8c1c <_dtoa_r+0x8f2>
    8c08:	7ff005b7          	lui	a1,0x7ff00
    8c0c:	00b97933          	and	s2,s2,a1
    8c10:	00090663          	beqz	s2,8c1c <_dtoa_r+0x8f2>
    8c14:	4785                	li	a5,1
    8c16:	0c05                	addi	s8,s8,1
    8c18:	0c85                	addi	s9,s9,1
    8c1a:	d03e                	sw	a5,32(sp)
    8c1c:	57c2                	lw	a5,48(sp)
    8c1e:	4505                	li	a0,1
    8c20:	ffad                	bnez	a5,8b9a <_dtoa_r+0x870>
    8c22:	9566                	add	a0,a0,s9
    8c24:	897d                	andi	a0,a0,31
    8c26:	cd3d                	beqz	a0,8ca4 <_dtoa_r+0x97a>
    8c28:	02000793          	li	a5,32
    8c2c:	8f89                	sub	a5,a5,a0
    8c2e:	4711                	li	a4,4
    8c30:	06f75763          	bge	a4,a5,8c9e <_dtoa_r+0x974>
    8c34:	47f1                	li	a5,28
    8c36:	40a78533          	sub	a0,a5,a0
    8c3a:	9c2a                	add	s8,s8,a0
    8c3c:	9daa                	add	s11,s11,a0
    8c3e:	9caa                	add	s9,s9,a0
    8c40:	01805863          	blez	s8,8c50 <_dtoa_r+0x926>
    8c44:	85ce                	mv	a1,s3
    8c46:	8662                	mv	a2,s8
    8c48:	8526                	mv	a0,s1
    8c4a:	16f000ef          	jal	ra,95b8 <__lshift>
    8c4e:	89aa                	mv	s3,a0
    8c50:	01905863          	blez	s9,8c60 <_dtoa_r+0x936>
    8c54:	85de                	mv	a1,s7
    8c56:	8666                	mv	a2,s9
    8c58:	8526                	mv	a0,s1
    8c5a:	15f000ef          	jal	ra,95b8 <__lshift>
    8c5e:	8baa                	mv	s7,a0
    8c60:	57f2                	lw	a5,60(sp)
    8c62:	c3b9                	beqz	a5,8ca8 <_dtoa_r+0x97e>
    8c64:	85de                	mv	a1,s7
    8c66:	854e                	mv	a0,s3
    8c68:	21f000ef          	jal	ra,9686 <__mcmp>
    8c6c:	02055e63          	bgez	a0,8ca8 <_dtoa_r+0x97e>
    8c70:	85ce                	mv	a1,s3
    8c72:	4681                	li	a3,0
    8c74:	4629                	li	a2,10
    8c76:	8526                	mv	a0,s1
    8c78:	2be9                	jal	9252 <__multadd>
    8c7a:	57a2                	lw	a5,40(sp)
    8c7c:	147d                	addi	s0,s0,-1
    8c7e:	89aa                	mv	s3,a0
    8c80:	24078e63          	beqz	a5,8edc <_dtoa_r+0xbb2>
    8c84:	85da                	mv	a1,s6
    8c86:	4681                	li	a3,0
    8c88:	4629                	li	a2,10
    8c8a:	8526                	mv	a0,s1
    8c8c:	23d9                	jal	9252 <__multadd>
    8c8e:	47b2                	lw	a5,12(sp)
    8c90:	8b2a                	mv	s6,a0
    8c92:	06f04f63          	bgtz	a5,8d10 <_dtoa_r+0x9e6>
    8c96:	4789                	li	a5,2
    8c98:	07a7dc63          	bge	a5,s10,8d10 <_dtoa_r+0x9e6>
    8c9c:	a821                	j	8cb4 <_dtoa_r+0x98a>
    8c9e:	fae781e3          	beq	a5,a4,8c40 <_dtoa_r+0x916>
    8ca2:	853e                	mv	a0,a5
    8ca4:	0571                	addi	a0,a0,28
    8ca6:	bf51                	j	8c3a <_dtoa_r+0x910>
    8ca8:	07404063          	bgtz	s4,8d08 <_dtoa_r+0x9de>
    8cac:	4789                	li	a5,2
    8cae:	05a7dd63          	bge	a5,s10,8d08 <_dtoa_r+0x9de>
    8cb2:	c652                	sw	s4,12(sp)
    8cb4:	47b2                	lw	a5,12(sp)
    8cb6:	ef89                	bnez	a5,8cd0 <_dtoa_r+0x9a6>
    8cb8:	85de                	mv	a1,s7
    8cba:	4681                	li	a3,0
    8cbc:	4615                	li	a2,5
    8cbe:	8526                	mv	a0,s1
    8cc0:	2b49                	jal	9252 <__multadd>
    8cc2:	8baa                	mv	s7,a0
    8cc4:	85aa                	mv	a1,a0
    8cc6:	854e                	mv	a0,s3
    8cc8:	1bf000ef          	jal	ra,9686 <__mcmp>
    8ccc:	b6a041e3          	bgtz	a0,882e <_dtoa_r+0x504>
    8cd0:	5792                	lw	a5,36(sp)
    8cd2:	8956                	mv	s2,s5
    8cd4:	fff7c413          	not	s0,a5
    8cd8:	4c01                	li	s8,0
    8cda:	85de                	mv	a1,s7
    8cdc:	8526                	mv	a0,s1
    8cde:	2b05                	jal	920e <_Bfree>
    8ce0:	d80b0ae3          	beqz	s6,8a74 <_dtoa_r+0x74a>
    8ce4:	000c0763          	beqz	s8,8cf2 <_dtoa_r+0x9c8>
    8ce8:	016c0563          	beq	s8,s6,8cf2 <_dtoa_r+0x9c8>
    8cec:	85e2                	mv	a1,s8
    8cee:	8526                	mv	a0,s1
    8cf0:	2b39                	jal	920e <_Bfree>
    8cf2:	85da                	mv	a1,s6
    8cf4:	8526                	mv	a0,s1
    8cf6:	2b21                	jal	920e <_Bfree>
    8cf8:	bbb5                	j	8a74 <_dtoa_r+0x74a>
    8cfa:	4b81                	li	s7,0
    8cfc:	4b01                	li	s6,0
    8cfe:	bfc9                	j	8cd0 <_dtoa_r+0x9a6>
    8d00:	4462                	lw	s0,24(sp)
    8d02:	4b81                	li	s7,0
    8d04:	4b01                	li	s6,0
    8d06:	b625                	j	882e <_dtoa_r+0x504>
    8d08:	57a2                	lw	a5,40(sp)
    8d0a:	c652                	sw	s4,12(sp)
    8d0c:	1c078e63          	beqz	a5,8ee8 <_dtoa_r+0xbbe>
    8d10:	01b05863          	blez	s11,8d20 <_dtoa_r+0x9f6>
    8d14:	85da                	mv	a1,s6
    8d16:	866e                	mv	a2,s11
    8d18:	8526                	mv	a0,s1
    8d1a:	09f000ef          	jal	ra,95b8 <__lshift>
    8d1e:	8b2a                	mv	s6,a0
    8d20:	5782                	lw	a5,32(sp)
    8d22:	855a                	mv	a0,s6
    8d24:	c785                	beqz	a5,8d4c <_dtoa_r+0xa22>
    8d26:	004b2583          	lw	a1,4(s6)
    8d2a:	8526                	mv	a0,s1
    8d2c:	29a9                	jal	9186 <_Balloc>
    8d2e:	010b2603          	lw	a2,16(s6)
    8d32:	892a                	mv	s2,a0
    8d34:	00cb0593          	addi	a1,s6,12
    8d38:	0609                	addi	a2,a2,2
    8d3a:	060a                	slli	a2,a2,0x2
    8d3c:	0531                	addi	a0,a0,12
    8d3e:	96dfe0ef          	jal	ra,76aa <memcpy>
    8d42:	4605                	li	a2,1
    8d44:	85ca                	mv	a1,s2
    8d46:	8526                	mv	a0,s1
    8d48:	071000ef          	jal	ra,95b8 <__lshift>
    8d4c:	47b2                	lw	a5,12(sp)
    8d4e:	8c5a                	mv	s8,s6
    8d50:	001a8a13          	addi	s4,s5,1
    8d54:	97d6                	add	a5,a5,s5
    8d56:	cc3e                	sw	a5,24(sp)
    8d58:	47c2                	lw	a5,16(sp)
    8d5a:	8b2a                	mv	s6,a0
    8d5c:	8b85                	andi	a5,a5,1
    8d5e:	d03e                	sw	a5,32(sp)
    8d60:	fffa0793          	addi	a5,s4,-1
    8d64:	85de                	mv	a1,s7
    8d66:	854e                	mv	a0,s3
    8d68:	c63e                	sw	a5,12(sp)
    8d6a:	c86ff0ef          	jal	ra,81f0 <quorem>
    8d6e:	c82a                	sw	a0,16(sp)
    8d70:	85e2                	mv	a1,s8
    8d72:	03050d93          	addi	s11,a0,48
    8d76:	854e                	mv	a0,s3
    8d78:	10f000ef          	jal	ra,9686 <__mcmp>
    8d7c:	8caa                	mv	s9,a0
    8d7e:	865a                	mv	a2,s6
    8d80:	85de                	mv	a1,s7
    8d82:	8526                	mv	a0,s1
    8d84:	135000ef          	jal	ra,96b8 <__mdiff>
    8d88:	4554                	lw	a3,12(a0)
    8d8a:	892a                	mv	s2,a0
    8d8c:	4705                	li	a4,1
    8d8e:	e691                	bnez	a3,8d9a <_dtoa_r+0xa70>
    8d90:	85aa                	mv	a1,a0
    8d92:	854e                	mv	a0,s3
    8d94:	0f3000ef          	jal	ra,9686 <__mcmp>
    8d98:	872a                	mv	a4,a0
    8d9a:	85ca                	mv	a1,s2
    8d9c:	8526                	mv	a0,s1
    8d9e:	d23a                	sw	a4,36(sp)
    8da0:	21bd                	jal	920e <_Bfree>
    8da2:	5712                	lw	a4,36(sp)
    8da4:	5782                	lw	a5,32(sp)
    8da6:	8952                	mv	s2,s4
    8da8:	00ed66b3          	or	a3,s10,a4
    8dac:	8edd                	or	a3,a3,a5
    8dae:	ee91                	bnez	a3,8dca <_dtoa_r+0xaa0>
    8db0:	03900713          	li	a4,57
    8db4:	04ed8963          	beq	s11,a4,8e06 <_dtoa_r+0xadc>
    8db8:	01905563          	blez	s9,8dc2 <_dtoa_r+0xa98>
    8dbc:	47c2                	lw	a5,16(sp)
    8dbe:	03178d93          	addi	s11,a5,49
    8dc2:	47b2                	lw	a5,12(sp)
    8dc4:	01b78023          	sb	s11,0(a5)
    8dc8:	bf09                	j	8cda <_dtoa_r+0x9b0>
    8dca:	000cc963          	bltz	s9,8ddc <_dtoa_r+0xab2>
    8dce:	5782                	lw	a5,32(sp)
    8dd0:	019d6cb3          	or	s9,s10,s9
    8dd4:	00fcecb3          	or	s9,s9,a5
    8dd8:	040c9663          	bnez	s9,8e24 <_dtoa_r+0xafa>
    8ddc:	fee053e3          	blez	a4,8dc2 <_dtoa_r+0xa98>
    8de0:	85ce                	mv	a1,s3
    8de2:	4605                	li	a2,1
    8de4:	8526                	mv	a0,s1
    8de6:	7d2000ef          	jal	ra,95b8 <__lshift>
    8dea:	85de                	mv	a1,s7
    8dec:	89aa                	mv	s3,a0
    8dee:	099000ef          	jal	ra,9686 <__mcmp>
    8df2:	00a04663          	bgtz	a0,8dfe <_dtoa_r+0xad4>
    8df6:	f571                	bnez	a0,8dc2 <_dtoa_r+0xa98>
    8df8:	001df713          	andi	a4,s11,1
    8dfc:	d379                	beqz	a4,8dc2 <_dtoa_r+0xa98>
    8dfe:	03900713          	li	a4,57
    8e02:	faed9de3          	bne	s11,a4,8dbc <_dtoa_r+0xa92>
    8e06:	4732                	lw	a4,12(sp)
    8e08:	03900793          	li	a5,57
    8e0c:	00f70023          	sb	a5,0(a4)
    8e10:	03900693          	li	a3,57
    8e14:	fff94783          	lbu	a5,-1(s2)
    8e18:	fff90713          	addi	a4,s2,-1
    8e1c:	08d78963          	beq	a5,a3,8eae <_dtoa_r+0xb84>
    8e20:	0785                	addi	a5,a5,1
    8e22:	a811                	j	8e36 <_dtoa_r+0xb0c>
    8e24:	00e05c63          	blez	a4,8e3c <_dtoa_r+0xb12>
    8e28:	03900713          	li	a4,57
    8e2c:	fced8de3          	beq	s11,a4,8e06 <_dtoa_r+0xadc>
    8e30:	4732                	lw	a4,12(sp)
    8e32:	001d8793          	addi	a5,s11,1
    8e36:	00f70023          	sb	a5,0(a4)
    8e3a:	b545                	j	8cda <_dtoa_r+0x9b0>
    8e3c:	47e2                	lw	a5,24(sp)
    8e3e:	ffba0fa3          	sb	s11,-1(s4)
    8e42:	03478d63          	beq	a5,s4,8e7c <_dtoa_r+0xb52>
    8e46:	85ce                	mv	a1,s3
    8e48:	4681                	li	a3,0
    8e4a:	4629                	li	a2,10
    8e4c:	8526                	mv	a0,s1
    8e4e:	2111                	jal	9252 <__multadd>
    8e50:	89aa                	mv	s3,a0
    8e52:	4681                	li	a3,0
    8e54:	4629                	li	a2,10
    8e56:	85e2                	mv	a1,s8
    8e58:	8526                	mv	a0,s1
    8e5a:	016c1763          	bne	s8,s6,8e68 <_dtoa_r+0xb3e>
    8e5e:	2ed5                	jal	9252 <__multadd>
    8e60:	8c2a                	mv	s8,a0
    8e62:	8b2a                	mv	s6,a0
    8e64:	0a05                	addi	s4,s4,1
    8e66:	bded                	j	8d60 <_dtoa_r+0xa36>
    8e68:	26ed                	jal	9252 <__multadd>
    8e6a:	85da                	mv	a1,s6
    8e6c:	8c2a                	mv	s8,a0
    8e6e:	4681                	li	a3,0
    8e70:	4629                	li	a2,10
    8e72:	8526                	mv	a0,s1
    8e74:	2ef9                	jal	9252 <__multadd>
    8e76:	8b2a                	mv	s6,a0
    8e78:	b7f5                	j	8e64 <_dtoa_r+0xb3a>
    8e7a:	4c01                	li	s8,0
    8e7c:	85ce                	mv	a1,s3
    8e7e:	4605                	li	a2,1
    8e80:	8526                	mv	a0,s1
    8e82:	736000ef          	jal	ra,95b8 <__lshift>
    8e86:	85de                	mv	a1,s7
    8e88:	89aa                	mv	s3,a0
    8e8a:	7fc000ef          	jal	ra,9686 <__mcmp>
    8e8e:	f8a041e3          	bgtz	a0,8e10 <_dtoa_r+0xae6>
    8e92:	e501                	bnez	a0,8e9a <_dtoa_r+0xb70>
    8e94:	001df793          	andi	a5,s11,1
    8e98:	ffa5                	bnez	a5,8e10 <_dtoa_r+0xae6>
    8e9a:	03000793          	li	a5,48
    8e9e:	fff94703          	lbu	a4,-1(s2)
    8ea2:	fff90693          	addi	a3,s2,-1
    8ea6:	e2f71ae3          	bne	a4,a5,8cda <_dtoa_r+0x9b0>
    8eaa:	8936                	mv	s2,a3
    8eac:	bfcd                	j	8e9e <_dtoa_r+0xb74>
    8eae:	00ea9863          	bne	s5,a4,8ebe <_dtoa_r+0xb94>
    8eb2:	03100793          	li	a5,49
    8eb6:	0405                	addi	s0,s0,1
    8eb8:	00fa8023          	sb	a5,0(s5)
    8ebc:	bd39                	j	8cda <_dtoa_r+0x9b0>
    8ebe:	893a                	mv	s2,a4
    8ec0:	bf91                	j	8e14 <_dtoa_r+0xaea>
    8ec2:	5732                	lw	a4,44(sp)
    8ec4:	00002a97          	auipc	s5,0x2
    8ec8:	27ca8a93          	addi	s5,s5,636 # b140 <__clz_tab+0x190>
    8ecc:	00002797          	auipc	a5,0x2
    8ed0:	27c78793          	addi	a5,a5,636 # b148 <__clz_tab+0x198>
    8ed4:	d0071563          	bnez	a4,83de <_dtoa_r+0xb4>
    8ed8:	d0aff06f          	j	83e2 <_dtoa_r+0xb8>
    8edc:	47b2                	lw	a5,12(sp)
    8ede:	00f04563          	bgtz	a5,8ee8 <_dtoa_r+0xbbe>
    8ee2:	4789                	li	a5,2
    8ee4:	dda7c8e3          	blt	a5,s10,8cb4 <_dtoa_r+0x98a>
    8ee8:	8956                	mv	s2,s5
    8eea:	85de                	mv	a1,s7
    8eec:	854e                	mv	a0,s3
    8eee:	b02ff0ef          	jal	ra,81f0 <quorem>
    8ef2:	47b2                	lw	a5,12(sp)
    8ef4:	0905                	addi	s2,s2,1
    8ef6:	03050d93          	addi	s11,a0,48
    8efa:	ffb90fa3          	sb	s11,-1(s2)
    8efe:	41590733          	sub	a4,s2,s5
    8f02:	f6f75ce3          	bge	a4,a5,8e7a <_dtoa_r+0xb50>
    8f06:	85ce                	mv	a1,s3
    8f08:	4681                	li	a3,0
    8f0a:	4629                	li	a2,10
    8f0c:	8526                	mv	a0,s1
    8f0e:	2691                	jal	9252 <__multadd>
    8f10:	89aa                	mv	s3,a0
    8f12:	bfe1                	j	8eea <_dtoa_r+0xbc0>

00008f14 <std>:
std():
    8f14:	1141                	addi	sp,sp,-16
    8f16:	c422                	sw	s0,8(sp)
    8f18:	c606                	sw	ra,12(sp)
    8f1a:	842a                	mv	s0,a0
    8f1c:	00b51623          	sh	a1,12(a0)
    8f20:	00c51723          	sh	a2,14(a0)
    8f24:	00052023          	sw	zero,0(a0)
    8f28:	00052223          	sw	zero,4(a0)
    8f2c:	00052423          	sw	zero,8(a0)
    8f30:	06052223          	sw	zero,100(a0)
    8f34:	00052823          	sw	zero,16(a0)
    8f38:	00052a23          	sw	zero,20(a0)
    8f3c:	00052c23          	sw	zero,24(a0)
    8f40:	4621                	li	a2,8
    8f42:	4581                	li	a1,0
    8f44:	05c50513          	addi	a0,a0,92
    8f48:	ab8f70ef          	jal	ra,200 <memset>
    8f4c:	00001797          	auipc	a5,0x1
    8f50:	17478793          	addi	a5,a5,372 # a0c0 <__sread>
    8f54:	d05c                	sw	a5,36(s0)
    8f56:	00001797          	auipc	a5,0x1
    8f5a:	19a78793          	addi	a5,a5,410 # a0f0 <__swrite>
    8f5e:	d41c                	sw	a5,40(s0)
    8f60:	00001797          	auipc	a5,0x1
    8f64:	1de78793          	addi	a5,a5,478 # a13e <__sseek>
    8f68:	d45c                	sw	a5,44(s0)
    8f6a:	00001797          	auipc	a5,0x1
    8f6e:	20a78793          	addi	a5,a5,522 # a174 <__sclose>
    8f72:	d000                	sw	s0,32(s0)
    8f74:	d81c                	sw	a5,48(s0)
    8f76:	40b2                	lw	ra,12(sp)
    8f78:	4422                	lw	s0,8(sp)
    8f7a:	0141                	addi	sp,sp,16
    8f7c:	8082                	ret

00008f7e <_cleanup_r>:
_cleanup_r():
    8f7e:	00001597          	auipc	a1,0x1
    8f82:	56458593          	addi	a1,a1,1380 # a4e2 <_fflush_r>
    8f86:	aa99                	j	90dc <_fwalk_reent>

00008f88 <__sfmoreglue>:
__sfmoreglue():
    8f88:	1141                	addi	sp,sp,-16
    8f8a:	c226                	sw	s1,4(sp)
    8f8c:	06800613          	li	a2,104
    8f90:	fff58493          	addi	s1,a1,-1
    8f94:	02c484b3          	mul	s1,s1,a2
    8f98:	c04a                	sw	s2,0(sp)
    8f9a:	892e                	mv	s2,a1
    8f9c:	c422                	sw	s0,8(sp)
    8f9e:	c606                	sw	ra,12(sp)
    8fa0:	07448593          	addi	a1,s1,116
    8fa4:	1a9000ef          	jal	ra,994c <_malloc_r>
    8fa8:	842a                	mv	s0,a0
    8faa:	cd01                	beqz	a0,8fc2 <__sfmoreglue+0x3a>
    8fac:	00052023          	sw	zero,0(a0)
    8fb0:	01252223          	sw	s2,4(a0)
    8fb4:	0531                	addi	a0,a0,12
    8fb6:	c408                	sw	a0,8(s0)
    8fb8:	06848613          	addi	a2,s1,104
    8fbc:	4581                	li	a1,0
    8fbe:	a42f70ef          	jal	ra,200 <memset>
    8fc2:	8522                	mv	a0,s0
    8fc4:	40b2                	lw	ra,12(sp)
    8fc6:	4422                	lw	s0,8(sp)
    8fc8:	4492                	lw	s1,4(sp)
    8fca:	4902                	lw	s2,0(sp)
    8fcc:	0141                	addi	sp,sp,16
    8fce:	8082                	ret

00008fd0 <__sinit>:
__sinit():
    8fd0:	4d1c                	lw	a5,24(a0)
    8fd2:	e7a5                	bnez	a5,903a <__sinit+0x6a>
    8fd4:	1141                	addi	sp,sp,-16
    8fd6:	c606                	sw	ra,12(sp)
    8fd8:	c422                	sw	s0,8(sp)
    8fda:	00000797          	auipc	a5,0x0
    8fde:	fa478793          	addi	a5,a5,-92 # 8f7e <_cleanup_r>
    8fe2:	d51c                	sw	a5,40(a0)
    8fe4:	83418793          	addi	a5,gp,-1996 # 2000026c <_global_impure_ptr>
    8fe8:	439c                	lw	a5,0(a5)
    8fea:	04052423          	sw	zero,72(a0)
    8fee:	04052623          	sw	zero,76(a0)
    8ff2:	04052823          	sw	zero,80(a0)
    8ff6:	00f51463          	bne	a0,a5,8ffe <__sinit+0x2e>
    8ffa:	4785                	li	a5,1
    8ffc:	cd1c                	sw	a5,24(a0)
    8ffe:	842a                	mv	s0,a0
    9000:	2835                	jal	903c <__sfp>
    9002:	c048                	sw	a0,4(s0)
    9004:	8522                	mv	a0,s0
    9006:	281d                	jal	903c <__sfp>
    9008:	c408                	sw	a0,8(s0)
    900a:	8522                	mv	a0,s0
    900c:	2805                	jal	903c <__sfp>
    900e:	c448                	sw	a0,12(s0)
    9010:	4048                	lw	a0,4(s0)
    9012:	4601                	li	a2,0
    9014:	4591                	li	a1,4
    9016:	effff0ef          	jal	ra,8f14 <std>
    901a:	4408                	lw	a0,8(s0)
    901c:	4605                	li	a2,1
    901e:	45a5                	li	a1,9
    9020:	ef5ff0ef          	jal	ra,8f14 <std>
    9024:	4448                	lw	a0,12(s0)
    9026:	4609                	li	a2,2
    9028:	45c9                	li	a1,18
    902a:	eebff0ef          	jal	ra,8f14 <std>
    902e:	4785                	li	a5,1
    9030:	cc1c                	sw	a5,24(s0)
    9032:	40b2                	lw	ra,12(sp)
    9034:	4422                	lw	s0,8(sp)
    9036:	0141                	addi	sp,sp,16
    9038:	8082                	ret
    903a:	8082                	ret

0000903c <__sfp>:
__sfp():
    903c:	1141                	addi	sp,sp,-16
    903e:	83418793          	addi	a5,gp,-1996 # 2000026c <_global_impure_ptr>
    9042:	c226                	sw	s1,4(sp)
    9044:	4384                	lw	s1,0(a5)
    9046:	c04a                	sw	s2,0(sp)
    9048:	c606                	sw	ra,12(sp)
    904a:	4c9c                	lw	a5,24(s1)
    904c:	c422                	sw	s0,8(sp)
    904e:	892a                	mv	s2,a0
    9050:	e781                	bnez	a5,9058 <__sfp+0x1c>
    9052:	8526                	mv	a0,s1
    9054:	f7dff0ef          	jal	ra,8fd0 <__sinit>
    9058:	04848493          	addi	s1,s1,72
    905c:	4480                	lw	s0,8(s1)
    905e:	40dc                	lw	a5,4(s1)
    9060:	17fd                	addi	a5,a5,-1
    9062:	0007d663          	bgez	a5,906e <__sfp+0x32>
    9066:	409c                	lw	a5,0(s1)
    9068:	cfb9                	beqz	a5,90c6 <__sfp+0x8a>
    906a:	4084                	lw	s1,0(s1)
    906c:	bfc5                	j	905c <__sfp+0x20>
    906e:	00c41703          	lh	a4,12(s0)
    9072:	e739                	bnez	a4,90c0 <__sfp+0x84>
    9074:	77c1                	lui	a5,0xffff0
    9076:	0785                	addi	a5,a5,1
    9078:	06042223          	sw	zero,100(s0)
    907c:	00042023          	sw	zero,0(s0)
    9080:	00042223          	sw	zero,4(s0)
    9084:	00042423          	sw	zero,8(s0)
    9088:	c45c                	sw	a5,12(s0)
    908a:	00042823          	sw	zero,16(s0)
    908e:	00042a23          	sw	zero,20(s0)
    9092:	00042c23          	sw	zero,24(s0)
    9096:	4621                	li	a2,8
    9098:	4581                	li	a1,0
    909a:	05c40513          	addi	a0,s0,92
    909e:	962f70ef          	jal	ra,200 <memset>
    90a2:	02042a23          	sw	zero,52(s0)
    90a6:	02042c23          	sw	zero,56(s0)
    90aa:	04042423          	sw	zero,72(s0)
    90ae:	04042623          	sw	zero,76(s0)
    90b2:	8522                	mv	a0,s0
    90b4:	40b2                	lw	ra,12(sp)
    90b6:	4422                	lw	s0,8(sp)
    90b8:	4492                	lw	s1,4(sp)
    90ba:	4902                	lw	s2,0(sp)
    90bc:	0141                	addi	sp,sp,16
    90be:	8082                	ret
    90c0:	06840413          	addi	s0,s0,104
    90c4:	bf71                	j	9060 <__sfp+0x24>
    90c6:	4591                	li	a1,4
    90c8:	854a                	mv	a0,s2
    90ca:	ebfff0ef          	jal	ra,8f88 <__sfmoreglue>
    90ce:	c088                	sw	a0,0(s1)
    90d0:	fd49                	bnez	a0,906a <__sfp+0x2e>
    90d2:	47b1                	li	a5,12
    90d4:	00f92023          	sw	a5,0(s2)
    90d8:	4401                	li	s0,0
    90da:	bfe1                	j	90b2 <__sfp+0x76>

000090dc <_fwalk_reent>:
_fwalk_reent():
    90dc:	7179                	addi	sp,sp,-48
    90de:	d422                	sw	s0,40(sp)
    90e0:	d04a                	sw	s2,32(sp)
    90e2:	cc52                	sw	s4,24(sp)
    90e4:	ca56                	sw	s5,20(sp)
    90e6:	c85a                	sw	s6,16(sp)
    90e8:	c65e                	sw	s7,12(sp)
    90ea:	d606                	sw	ra,44(sp)
    90ec:	d226                	sw	s1,36(sp)
    90ee:	ce4e                	sw	s3,28(sp)
    90f0:	8a2a                	mv	s4,a0
    90f2:	8aae                	mv	s5,a1
    90f4:	04850413          	addi	s0,a0,72
    90f8:	4901                	li	s2,0
    90fa:	4b05                	li	s6,1
    90fc:	5bfd                	li	s7,-1
    90fe:	ec09                	bnez	s0,9118 <_fwalk_reent+0x3c>
    9100:	50b2                	lw	ra,44(sp)
    9102:	5422                	lw	s0,40(sp)
    9104:	854a                	mv	a0,s2
    9106:	5492                	lw	s1,36(sp)
    9108:	5902                	lw	s2,32(sp)
    910a:	49f2                	lw	s3,28(sp)
    910c:	4a62                	lw	s4,24(sp)
    910e:	4ad2                	lw	s5,20(sp)
    9110:	4b42                	lw	s6,16(sp)
    9112:	4bb2                	lw	s7,12(sp)
    9114:	6145                	addi	sp,sp,48
    9116:	8082                	ret
    9118:	4404                	lw	s1,8(s0)
    911a:	00442983          	lw	s3,4(s0)
    911e:	19fd                	addi	s3,s3,-1
    9120:	0009d463          	bgez	s3,9128 <_fwalk_reent+0x4c>
    9124:	4000                	lw	s0,0(s0)
    9126:	bfe1                	j	90fe <_fwalk_reent+0x22>
    9128:	00c4d783          	lhu	a5,12(s1)
    912c:	00fb7b63          	bgeu	s6,a5,9142 <_fwalk_reent+0x66>
    9130:	00e49783          	lh	a5,14(s1)
    9134:	01778763          	beq	a5,s7,9142 <_fwalk_reent+0x66>
    9138:	85a6                	mv	a1,s1
    913a:	8552                	mv	a0,s4
    913c:	9a82                	jalr	s5
    913e:	00a96933          	or	s2,s2,a0
    9142:	06848493          	addi	s1,s1,104
    9146:	bfe1                	j	911e <_fwalk_reent+0x42>

00009148 <_localeconv_r>:
_localeconv_r():
    9148:	82418793          	addi	a5,gp,-2012 # 2000025c <_impure_ptr>
    914c:	439c                	lw	a5,0(a5)
    914e:	5388                	lw	a0,32(a5)
    9150:	e509                	bnez	a0,915a <_localeconv_r+0x12>
    9152:	1fff7517          	auipc	a0,0x1fff7
    9156:	f7650513          	addi	a0,a0,-138 # 200000c8 <__global_locale>
    915a:	0f050513          	addi	a0,a0,240
    915e:	8082                	ret

00009160 <malloc>:
malloc():
    9160:	82418793          	addi	a5,gp,-2012 # 2000025c <_impure_ptr>
    9164:	85aa                	mv	a1,a0
    9166:	4388                	lw	a0,0(a5)
    9168:	7e40006f          	j	994c <_malloc_r>

0000916c <memchr>:
memchr():
    916c:	0ff5f593          	andi	a1,a1,255
    9170:	962a                	add	a2,a2,a0
    9172:	00c51463          	bne	a0,a2,917a <memchr+0xe>
    9176:	4501                	li	a0,0
    9178:	8082                	ret
    917a:	00054783          	lbu	a5,0(a0)
    917e:	feb78de3          	beq	a5,a1,9178 <memchr+0xc>
    9182:	0505                	addi	a0,a0,1
    9184:	b7fd                	j	9172 <memchr+0x6>

00009186 <_Balloc>:
_Balloc():
    9186:	515c                	lw	a5,36(a0)
    9188:	1141                	addi	sp,sp,-16
    918a:	c422                	sw	s0,8(sp)
    918c:	c04a                	sw	s2,0(sp)
    918e:	c606                	sw	ra,12(sp)
    9190:	c226                	sw	s1,4(sp)
    9192:	842a                	mv	s0,a0
    9194:	892e                	mv	s2,a1
    9196:	ef89                	bnez	a5,91b0 <_Balloc+0x2a>
    9198:	4541                	li	a0,16
    919a:	fc7ff0ef          	jal	ra,9160 <malloc>
    919e:	d048                	sw	a0,36(s0)
    91a0:	00052223          	sw	zero,4(a0)
    91a4:	00052423          	sw	zero,8(a0)
    91a8:	00052023          	sw	zero,0(a0)
    91ac:	00052623          	sw	zero,12(a0)
    91b0:	5044                	lw	s1,36(s0)
    91b2:	44dc                	lw	a5,12(s1)
    91b4:	c795                	beqz	a5,91e0 <_Balloc+0x5a>
    91b6:	5058                	lw	a4,36(s0)
    91b8:	00291793          	slli	a5,s2,0x2
    91bc:	4758                	lw	a4,12(a4)
    91be:	97ba                	add	a5,a5,a4
    91c0:	4388                	lw	a0,0(a5)
    91c2:	ed1d                	bnez	a0,9200 <_Balloc+0x7a>
    91c4:	4485                	li	s1,1
    91c6:	012494b3          	sll	s1,s1,s2
    91ca:	00548613          	addi	a2,s1,5
    91ce:	060a                	slli	a2,a2,0x2
    91d0:	4585                	li	a1,1
    91d2:	8522                	mv	a0,s0
    91d4:	256d                	jal	987e <_calloc_r>
    91d6:	cd11                	beqz	a0,91f2 <_Balloc+0x6c>
    91d8:	01252223          	sw	s2,4(a0)
    91dc:	c504                	sw	s1,8(a0)
    91de:	a01d                	j	9204 <_Balloc+0x7e>
    91e0:	02100613          	li	a2,33
    91e4:	4591                	li	a1,4
    91e6:	8522                	mv	a0,s0
    91e8:	2d59                	jal	987e <_calloc_r>
    91ea:	505c                	lw	a5,36(s0)
    91ec:	c4c8                	sw	a0,12(s1)
    91ee:	47dc                	lw	a5,12(a5)
    91f0:	f3f9                	bnez	a5,91b6 <_Balloc+0x30>
    91f2:	4501                	li	a0,0
    91f4:	40b2                	lw	ra,12(sp)
    91f6:	4422                	lw	s0,8(sp)
    91f8:	4492                	lw	s1,4(sp)
    91fa:	4902                	lw	s2,0(sp)
    91fc:	0141                	addi	sp,sp,16
    91fe:	8082                	ret
    9200:	4118                	lw	a4,0(a0)
    9202:	c398                	sw	a4,0(a5)
    9204:	00052823          	sw	zero,16(a0)
    9208:	00052623          	sw	zero,12(a0)
    920c:	b7e5                	j	91f4 <_Balloc+0x6e>

0000920e <_Bfree>:
_Bfree():
    920e:	515c                	lw	a5,36(a0)
    9210:	1101                	addi	sp,sp,-32
    9212:	cc22                	sw	s0,24(sp)
    9214:	ce06                	sw	ra,28(sp)
    9216:	842a                	mv	s0,a0
    9218:	ef99                	bnez	a5,9236 <_Bfree+0x28>
    921a:	4541                	li	a0,16
    921c:	c62e                	sw	a1,12(sp)
    921e:	f43ff0ef          	jal	ra,9160 <malloc>
    9222:	45b2                	lw	a1,12(sp)
    9224:	d048                	sw	a0,36(s0)
    9226:	00052223          	sw	zero,4(a0)
    922a:	00052423          	sw	zero,8(a0)
    922e:	00052023          	sw	zero,0(a0)
    9232:	00052623          	sw	zero,12(a0)
    9236:	c991                	beqz	a1,924a <_Bfree+0x3c>
    9238:	5054                	lw	a3,36(s0)
    923a:	41dc                	lw	a5,4(a1)
    923c:	00279713          	slli	a4,a5,0x2
    9240:	46dc                	lw	a5,12(a3)
    9242:	97ba                	add	a5,a5,a4
    9244:	4398                	lw	a4,0(a5)
    9246:	c198                	sw	a4,0(a1)
    9248:	c38c                	sw	a1,0(a5)
    924a:	40f2                	lw	ra,28(sp)
    924c:	4462                	lw	s0,24(sp)
    924e:	6105                	addi	sp,sp,32
    9250:	8082                	ret

00009252 <__multadd>:
__multadd():
    9252:	7179                	addi	sp,sp,-48
    9254:	ce4e                	sw	s3,28(sp)
    9256:	89aa                	mv	s3,a0
    9258:	6541                	lui	a0,0x10
    925a:	d422                	sw	s0,40(sp)
    925c:	d226                	sw	s1,36(sp)
    925e:	842e                	mv	s0,a1
    9260:	4984                	lw	s1,16(a1)
    9262:	d606                	sw	ra,44(sp)
    9264:	d04a                	sw	s2,32(sp)
    9266:	05d1                	addi	a1,a1,20
    9268:	4801                	li	a6,0
    926a:	157d                	addi	a0,a0,-1
    926c:	419c                	lw	a5,0(a1)
    926e:	0591                	addi	a1,a1,4
    9270:	0805                	addi	a6,a6,1
    9272:	00a7f733          	and	a4,a5,a0
    9276:	02c70733          	mul	a4,a4,a2
    927a:	83c1                	srli	a5,a5,0x10
    927c:	02c787b3          	mul	a5,a5,a2
    9280:	9736                	add	a4,a4,a3
    9282:	01075693          	srli	a3,a4,0x10
    9286:	8f69                	and	a4,a4,a0
    9288:	97b6                	add	a5,a5,a3
    928a:	0107d693          	srli	a3,a5,0x10
    928e:	07c2                	slli	a5,a5,0x10
    9290:	97ba                	add	a5,a5,a4
    9292:	fef5ae23          	sw	a5,-4(a1)
    9296:	fc984be3          	blt	a6,s1,926c <__multadd+0x1a>
    929a:	c2a1                	beqz	a3,92da <__multadd+0x88>
    929c:	441c                	lw	a5,8(s0)
    929e:	02f4c763          	blt	s1,a5,92cc <__multadd+0x7a>
    92a2:	404c                	lw	a1,4(s0)
    92a4:	854e                	mv	a0,s3
    92a6:	c636                	sw	a3,12(sp)
    92a8:	0585                	addi	a1,a1,1
    92aa:	eddff0ef          	jal	ra,9186 <_Balloc>
    92ae:	4810                	lw	a2,16(s0)
    92b0:	00c40593          	addi	a1,s0,12
    92b4:	892a                	mv	s2,a0
    92b6:	0609                	addi	a2,a2,2
    92b8:	060a                	slli	a2,a2,0x2
    92ba:	0531                	addi	a0,a0,12
    92bc:	beefe0ef          	jal	ra,76aa <memcpy>
    92c0:	85a2                	mv	a1,s0
    92c2:	854e                	mv	a0,s3
    92c4:	f4bff0ef          	jal	ra,920e <_Bfree>
    92c8:	46b2                	lw	a3,12(sp)
    92ca:	844a                	mv	s0,s2
    92cc:	00448793          	addi	a5,s1,4
    92d0:	078a                	slli	a5,a5,0x2
    92d2:	97a2                	add	a5,a5,s0
    92d4:	c3d4                	sw	a3,4(a5)
    92d6:	0485                	addi	s1,s1,1
    92d8:	c804                	sw	s1,16(s0)
    92da:	8522                	mv	a0,s0
    92dc:	50b2                	lw	ra,44(sp)
    92de:	5422                	lw	s0,40(sp)
    92e0:	5492                	lw	s1,36(sp)
    92e2:	5902                	lw	s2,32(sp)
    92e4:	49f2                	lw	s3,28(sp)
    92e6:	6145                	addi	sp,sp,48
    92e8:	8082                	ret

000092ea <__hi0bits>:
__hi0bits():
    92ea:	7741                	lui	a4,0xffff0
    92ec:	8f69                	and	a4,a4,a0
    92ee:	87aa                	mv	a5,a0
    92f0:	4501                	li	a0,0
    92f2:	e319                	bnez	a4,92f8 <__hi0bits+0xe>
    92f4:	07c2                	slli	a5,a5,0x10
    92f6:	4541                	li	a0,16
    92f8:	ff000737          	lui	a4,0xff000
    92fc:	8f7d                	and	a4,a4,a5
    92fe:	e319                	bnez	a4,9304 <__hi0bits+0x1a>
    9300:	0521                	addi	a0,a0,8
    9302:	07a2                	slli	a5,a5,0x8
    9304:	f0000737          	lui	a4,0xf0000
    9308:	8f7d                	and	a4,a4,a5
    930a:	e319                	bnez	a4,9310 <__hi0bits+0x26>
    930c:	0511                	addi	a0,a0,4
    930e:	0792                	slli	a5,a5,0x4
    9310:	c0000737          	lui	a4,0xc0000
    9314:	8f7d                	and	a4,a4,a5
    9316:	e319                	bnez	a4,931c <__hi0bits+0x32>
    9318:	0509                	addi	a0,a0,2
    931a:	078a                	slli	a5,a5,0x2
    931c:	0007c963          	bltz	a5,932e <__hi0bits+0x44>
    9320:	00179713          	slli	a4,a5,0x1
    9324:	0505                	addi	a0,a0,1
    9326:	00074463          	bltz	a4,932e <__hi0bits+0x44>
    932a:	02000513          	li	a0,32
    932e:	8082                	ret

00009330 <__lo0bits>:
__lo0bits():
    9330:	411c                	lw	a5,0(a0)
    9332:	0077f713          	andi	a4,a5,7
    9336:	c30d                	beqz	a4,9358 <__lo0bits+0x28>
    9338:	0017f693          	andi	a3,a5,1
    933c:	4701                	li	a4,0
    933e:	e699                	bnez	a3,934c <__lo0bits+0x1c>
    9340:	0027f713          	andi	a4,a5,2
    9344:	c711                	beqz	a4,9350 <__lo0bits+0x20>
    9346:	8385                	srli	a5,a5,0x1
    9348:	c11c                	sw	a5,0(a0)
    934a:	4705                	li	a4,1
    934c:	853a                	mv	a0,a4
    934e:	8082                	ret
    9350:	8389                	srli	a5,a5,0x2
    9352:	c11c                	sw	a5,0(a0)
    9354:	4709                	li	a4,2
    9356:	bfdd                	j	934c <__lo0bits+0x1c>
    9358:	01079693          	slli	a3,a5,0x10
    935c:	82c1                	srli	a3,a3,0x10
    935e:	4701                	li	a4,0
    9360:	e299                	bnez	a3,9366 <__lo0bits+0x36>
    9362:	83c1                	srli	a5,a5,0x10
    9364:	4741                	li	a4,16
    9366:	0ff7f693          	andi	a3,a5,255
    936a:	e299                	bnez	a3,9370 <__lo0bits+0x40>
    936c:	0721                	addi	a4,a4,8
    936e:	83a1                	srli	a5,a5,0x8
    9370:	00f7f693          	andi	a3,a5,15
    9374:	e299                	bnez	a3,937a <__lo0bits+0x4a>
    9376:	0711                	addi	a4,a4,4
    9378:	8391                	srli	a5,a5,0x4
    937a:	0037f693          	andi	a3,a5,3
    937e:	e299                	bnez	a3,9384 <__lo0bits+0x54>
    9380:	0709                	addi	a4,a4,2
    9382:	8389                	srli	a5,a5,0x2
    9384:	0017f693          	andi	a3,a5,1
    9388:	e681                	bnez	a3,9390 <__lo0bits+0x60>
    938a:	8385                	srli	a5,a5,0x1
    938c:	0705                	addi	a4,a4,1
    938e:	c399                	beqz	a5,9394 <__lo0bits+0x64>
    9390:	c11c                	sw	a5,0(a0)
    9392:	bf6d                	j	934c <__lo0bits+0x1c>
    9394:	02000713          	li	a4,32
    9398:	bf55                	j	934c <__lo0bits+0x1c>

0000939a <__i2b>:
__i2b():
    939a:	1141                	addi	sp,sp,-16
    939c:	c422                	sw	s0,8(sp)
    939e:	842e                	mv	s0,a1
    93a0:	4585                	li	a1,1
    93a2:	c606                	sw	ra,12(sp)
    93a4:	de3ff0ef          	jal	ra,9186 <_Balloc>
    93a8:	c940                	sw	s0,20(a0)
    93aa:	40b2                	lw	ra,12(sp)
    93ac:	4422                	lw	s0,8(sp)
    93ae:	4705                	li	a4,1
    93b0:	c918                	sw	a4,16(a0)
    93b2:	0141                	addi	sp,sp,16
    93b4:	8082                	ret

000093b6 <__multiply>:
__multiply():
    93b6:	4998                	lw	a4,16(a1)
    93b8:	4a1c                	lw	a5,16(a2)
    93ba:	7179                	addi	sp,sp,-48
    93bc:	d226                	sw	s1,36(sp)
    93be:	d606                	sw	ra,44(sp)
    93c0:	d422                	sw	s0,40(sp)
    93c2:	d04a                	sw	s2,32(sp)
    93c4:	ce4e                	sw	s3,28(sp)
    93c6:	84ae                	mv	s1,a1
    93c8:	00f75463          	bge	a4,a5,93d0 <__multiply+0x1a>
    93cc:	84b2                	mv	s1,a2
    93ce:	862e                	mv	a2,a1
    93d0:	0104a983          	lw	s3,16(s1)
    93d4:	01062903          	lw	s2,16(a2) # 10010 <_data_lma+0x4c3c>
    93d8:	449c                	lw	a5,8(s1)
    93da:	40cc                	lw	a1,4(s1)
    93dc:	01298433          	add	s0,s3,s2
    93e0:	0087d363          	bge	a5,s0,93e6 <__multiply+0x30>
    93e4:	0585                	addi	a1,a1,1
    93e6:	c632                	sw	a2,12(sp)
    93e8:	d9fff0ef          	jal	ra,9186 <_Balloc>
    93ec:	4632                	lw	a2,12(sp)
    93ee:	01450813          	addi	a6,a0,20 # 10014 <_data_lma+0x4c40>
    93f2:	00241313          	slli	t1,s0,0x2
    93f6:	9342                	add	t1,t1,a6
    93f8:	87c2                	mv	a5,a6
    93fa:	0267ed63          	bltu	a5,t1,9434 <__multiply+0x7e>
    93fe:	01448593          	addi	a1,s1,20
    9402:	00299893          	slli	a7,s3,0x2
    9406:	0651                	addi	a2,a2,20
    9408:	00291e13          	slli	t3,s2,0x2
    940c:	66c1                	lui	a3,0x10
    940e:	98ae                	add	a7,a7,a1
    9410:	9e32                	add	t3,t3,a2
    9412:	16fd                	addi	a3,a3,-1
    9414:	03c66463          	bltu	a2,t3,943c <__multiply+0x86>
    9418:	00805663          	blez	s0,9424 <__multiply+0x6e>
    941c:	1371                	addi	t1,t1,-4
    941e:	00032783          	lw	a5,0(t1)
    9422:	cbf1                	beqz	a5,94f6 <__multiply+0x140>
    9424:	c900                	sw	s0,16(a0)
    9426:	50b2                	lw	ra,44(sp)
    9428:	5422                	lw	s0,40(sp)
    942a:	5492                	lw	s1,36(sp)
    942c:	5902                	lw	s2,32(sp)
    942e:	49f2                	lw	s3,28(sp)
    9430:	6145                	addi	sp,sp,48
    9432:	8082                	ret
    9434:	0007a023          	sw	zero,0(a5) # ffff0000 <_eusrstack+0xdffe0000>
    9438:	0791                	addi	a5,a5,4
    943a:	b7c1                	j	93fa <__multiply+0x44>
    943c:	00062f83          	lw	t6,0(a2)
    9440:	00dfffb3          	and	t6,t6,a3
    9444:	040f8a63          	beqz	t6,9498 <__multiply+0xe2>
    9448:	8f42                	mv	t5,a6
    944a:	82ae                	mv	t0,a1
    944c:	4481                	li	s1,0
    944e:	0002a703          	lw	a4,0(t0) # 10000 <_data_lma+0x4c2c>
    9452:	000f2383          	lw	t2,0(t5)
    9456:	0f11                	addi	t5,t5,4
    9458:	00d77eb3          	and	t4,a4,a3
    945c:	03fe8eb3          	mul	t4,t4,t6
    9460:	00d3f7b3          	and	a5,t2,a3
    9464:	0103d393          	srli	t2,t2,0x10
    9468:	0291                	addi	t0,t0,4
    946a:	9ebe                	add	t4,t4,a5
    946c:	01075793          	srli	a5,a4,0x10
    9470:	03f787b3          	mul	a5,a5,t6
    9474:	9ea6                	add	t4,t4,s1
    9476:	010ed713          	srli	a4,t4,0x10
    947a:	00defeb3          	and	t4,t4,a3
    947e:	979e                	add	a5,a5,t2
    9480:	97ba                	add	a5,a5,a4
    9482:	0107d493          	srli	s1,a5,0x10
    9486:	07c2                	slli	a5,a5,0x10
    9488:	01d7e7b3          	or	a5,a5,t4
    948c:	feff2e23          	sw	a5,-4(t5)
    9490:	fb12efe3          	bltu	t0,a7,944e <__multiply+0x98>
    9494:	009f2023          	sw	s1,0(t5)
    9498:	00265283          	lhu	t0,2(a2)
    949c:	04028a63          	beqz	t0,94f0 <__multiply+0x13a>
    94a0:	00082783          	lw	a5,0(a6)
    94a4:	8ec2                	mv	t4,a6
    94a6:	8f2e                	mv	t5,a1
    94a8:	4f81                	li	t6,0
    94aa:	000f2703          	lw	a4,0(t5)
    94ae:	002ed383          	lhu	t2,2(t4) # 10002 <_data_lma+0x4c2e>
    94b2:	8ff5                	and	a5,a5,a3
    94b4:	8f75                	and	a4,a4,a3
    94b6:	02570733          	mul	a4,a4,t0
    94ba:	0e91                	addi	t4,t4,4
    94bc:	0f11                	addi	t5,t5,4
    94be:	971e                	add	a4,a4,t2
    94c0:	977e                	add	a4,a4,t6
    94c2:	01071f93          	slli	t6,a4,0x10
    94c6:	00ffe7b3          	or	a5,t6,a5
    94ca:	fefeae23          	sw	a5,-4(t4)
    94ce:	ffef5783          	lhu	a5,-2(t5)
    94d2:	000eaf83          	lw	t6,0(t4)
    94d6:	8341                	srli	a4,a4,0x10
    94d8:	025787b3          	mul	a5,a5,t0
    94dc:	00dfffb3          	and	t6,t6,a3
    94e0:	97fe                	add	a5,a5,t6
    94e2:	97ba                	add	a5,a5,a4
    94e4:	0107df93          	srli	t6,a5,0x10
    94e8:	fd1f61e3          	bltu	t5,a7,94aa <__multiply+0xf4>
    94ec:	00fea023          	sw	a5,0(t4)
    94f0:	0611                	addi	a2,a2,4
    94f2:	0811                	addi	a6,a6,4
    94f4:	b705                	j	9414 <__multiply+0x5e>
    94f6:	147d                	addi	s0,s0,-1
    94f8:	b705                	j	9418 <__multiply+0x62>

000094fa <__pow5mult>:
__pow5mult():
    94fa:	1101                	addi	sp,sp,-32
    94fc:	ca26                	sw	s1,20(sp)
    94fe:	c84a                	sw	s2,16(sp)
    9500:	c64e                	sw	s3,12(sp)
    9502:	ce06                	sw	ra,28(sp)
    9504:	cc22                	sw	s0,24(sp)
    9506:	c452                	sw	s4,8(sp)
    9508:	00367793          	andi	a5,a2,3
    950c:	892a                	mv	s2,a0
    950e:	84b2                	mv	s1,a2
    9510:	89ae                	mv	s3,a1
    9512:	cf89                	beqz	a5,952c <__pow5mult+0x32>
    9514:	17fd                	addi	a5,a5,-1
    9516:	00002717          	auipc	a4,0x2
    951a:	d8a70713          	addi	a4,a4,-630 # b2a0 <p05.3321>
    951e:	078a                	slli	a5,a5,0x2
    9520:	97ba                	add	a5,a5,a4
    9522:	4390                	lw	a2,0(a5)
    9524:	4681                	li	a3,0
    9526:	d2dff0ef          	jal	ra,9252 <__multadd>
    952a:	89aa                	mv	s3,a0
    952c:	8489                	srai	s1,s1,0x2
    952e:	cca5                	beqz	s1,95a6 <__pow5mult+0xac>
    9530:	02492783          	lw	a5,36(s2)
    9534:	ef91                	bnez	a5,9550 <__pow5mult+0x56>
    9536:	4541                	li	a0,16
    9538:	c29ff0ef          	jal	ra,9160 <malloc>
    953c:	02a92223          	sw	a0,36(s2)
    9540:	00052223          	sw	zero,4(a0)
    9544:	00052423          	sw	zero,8(a0)
    9548:	00052023          	sw	zero,0(a0)
    954c:	00052623          	sw	zero,12(a0)
    9550:	02492a03          	lw	s4,36(s2)
    9554:	008a2403          	lw	s0,8(s4)
    9558:	e819                	bnez	s0,956e <__pow5mult+0x74>
    955a:	27100593          	li	a1,625
    955e:	854a                	mv	a0,s2
    9560:	e3bff0ef          	jal	ra,939a <__i2b>
    9564:	00aa2423          	sw	a0,8(s4)
    9568:	842a                	mv	s0,a0
    956a:	00052023          	sw	zero,0(a0)
    956e:	0014f793          	andi	a5,s1,1
    9572:	cf81                	beqz	a5,958a <__pow5mult+0x90>
    9574:	85ce                	mv	a1,s3
    9576:	8622                	mv	a2,s0
    9578:	854a                	mv	a0,s2
    957a:	e3dff0ef          	jal	ra,93b6 <__multiply>
    957e:	8a2a                	mv	s4,a0
    9580:	85ce                	mv	a1,s3
    9582:	854a                	mv	a0,s2
    9584:	c8bff0ef          	jal	ra,920e <_Bfree>
    9588:	89d2                	mv	s3,s4
    958a:	8485                	srai	s1,s1,0x1
    958c:	cc89                	beqz	s1,95a6 <__pow5mult+0xac>
    958e:	4008                	lw	a0,0(s0)
    9590:	e909                	bnez	a0,95a2 <__pow5mult+0xa8>
    9592:	8622                	mv	a2,s0
    9594:	85a2                	mv	a1,s0
    9596:	854a                	mv	a0,s2
    9598:	e1fff0ef          	jal	ra,93b6 <__multiply>
    959c:	c008                	sw	a0,0(s0)
    959e:	00052023          	sw	zero,0(a0)
    95a2:	842a                	mv	s0,a0
    95a4:	b7e9                	j	956e <__pow5mult+0x74>
    95a6:	40f2                	lw	ra,28(sp)
    95a8:	4462                	lw	s0,24(sp)
    95aa:	854e                	mv	a0,s3
    95ac:	44d2                	lw	s1,20(sp)
    95ae:	4942                	lw	s2,16(sp)
    95b0:	49b2                	lw	s3,12(sp)
    95b2:	4a22                	lw	s4,8(sp)
    95b4:	6105                	addi	sp,sp,32
    95b6:	8082                	ret

000095b8 <__lshift>:
__lshift():
    95b8:	7179                	addi	sp,sp,-48
    95ba:	d226                	sw	s1,36(sp)
    95bc:	84ae                	mv	s1,a1
    95be:	ce4e                	sw	s3,28(sp)
    95c0:	0104a983          	lw	s3,16(s1)
    95c4:	d422                	sw	s0,40(sp)
    95c6:	41cc                	lw	a1,4(a1)
    95c8:	40565413          	srai	s0,a2,0x5
    95cc:	449c                	lw	a5,8(s1)
    95ce:	99a2                	add	s3,s3,s0
    95d0:	d04a                	sw	s2,32(sp)
    95d2:	ca56                	sw	s5,20(sp)
    95d4:	d606                	sw	ra,44(sp)
    95d6:	cc52                	sw	s4,24(sp)
    95d8:	8aaa                	mv	s5,a0
    95da:	00198913          	addi	s2,s3,1
    95de:	0927c463          	blt	a5,s2,9666 <__lshift+0xae>
    95e2:	8556                	mv	a0,s5
    95e4:	c632                	sw	a2,12(sp)
    95e6:	ba1ff0ef          	jal	ra,9186 <_Balloc>
    95ea:	4632                	lw	a2,12(sp)
    95ec:	01450793          	addi	a5,a0,20
    95f0:	8a2a                	mv	s4,a0
    95f2:	86be                	mv	a3,a5
    95f4:	4701                	li	a4,0
    95f6:	0691                	addi	a3,a3,4
    95f8:	06874a63          	blt	a4,s0,966c <__lshift+0xb4>
    95fc:	00045363          	bgez	s0,9602 <__lshift+0x4a>
    9600:	4401                	li	s0,0
    9602:	4894                	lw	a3,16(s1)
    9604:	040a                	slli	s0,s0,0x2
    9606:	00878733          	add	a4,a5,s0
    960a:	068a                	slli	a3,a3,0x2
    960c:	01448793          	addi	a5,s1,20
    9610:	8a7d                	andi	a2,a2,31
    9612:	96be                	add	a3,a3,a5
    9614:	c225                	beqz	a2,9674 <__lshift+0xbc>
    9616:	02000813          	li	a6,32
    961a:	40c80833          	sub	a6,a6,a2
    961e:	4581                	li	a1,0
    9620:	4388                	lw	a0,0(a5)
    9622:	0711                	addi	a4,a4,4
    9624:	0791                	addi	a5,a5,4
    9626:	00c51533          	sll	a0,a0,a2
    962a:	8dc9                	or	a1,a1,a0
    962c:	feb72e23          	sw	a1,-4(a4)
    9630:	ffc7a583          	lw	a1,-4(a5)
    9634:	0105d5b3          	srl	a1,a1,a6
    9638:	fed7e4e3          	bltu	a5,a3,9620 <__lshift+0x68>
    963c:	c30c                	sw	a1,0(a4)
    963e:	c199                	beqz	a1,9644 <__lshift+0x8c>
    9640:	00298913          	addi	s2,s3,2
    9644:	197d                	addi	s2,s2,-1
    9646:	012a2823          	sw	s2,16(s4)
    964a:	8556                	mv	a0,s5
    964c:	85a6                	mv	a1,s1
    964e:	bc1ff0ef          	jal	ra,920e <_Bfree>
    9652:	50b2                	lw	ra,44(sp)
    9654:	5422                	lw	s0,40(sp)
    9656:	8552                	mv	a0,s4
    9658:	5492                	lw	s1,36(sp)
    965a:	5902                	lw	s2,32(sp)
    965c:	49f2                	lw	s3,28(sp)
    965e:	4a62                	lw	s4,24(sp)
    9660:	4ad2                	lw	s5,20(sp)
    9662:	6145                	addi	sp,sp,48
    9664:	8082                	ret
    9666:	0585                	addi	a1,a1,1
    9668:	0786                	slli	a5,a5,0x1
    966a:	bf95                	j	95de <__lshift+0x26>
    966c:	fe06ae23          	sw	zero,-4(a3) # fffc <_data_lma+0x4c28>
    9670:	0705                	addi	a4,a4,1
    9672:	b751                	j	95f6 <__lshift+0x3e>
    9674:	0791                	addi	a5,a5,4
    9676:	ffc7a603          	lw	a2,-4(a5)
    967a:	0711                	addi	a4,a4,4
    967c:	fec72e23          	sw	a2,-4(a4)
    9680:	fed7eae3          	bltu	a5,a3,9674 <__lshift+0xbc>
    9684:	b7c1                	j	9644 <__lshift+0x8c>

00009686 <__mcmp>:
__mcmp():
    9686:	491c                	lw	a5,16(a0)
    9688:	4998                	lw	a4,16(a1)
    968a:	8f99                	sub	a5,a5,a4
    968c:	e38d                	bnez	a5,96ae <__mcmp+0x28>
    968e:	070a                	slli	a4,a4,0x2
    9690:	0551                	addi	a0,a0,20
    9692:	05d1                	addi	a1,a1,20
    9694:	00e506b3          	add	a3,a0,a4
    9698:	95ba                	add	a1,a1,a4
    969a:	16f1                	addi	a3,a3,-4
    969c:	15f1                	addi	a1,a1,-4
    969e:	4290                	lw	a2,0(a3)
    96a0:	4198                	lw	a4,0(a1)
    96a2:	00e60863          	beq	a2,a4,96b2 <__mcmp+0x2c>
    96a6:	57fd                	li	a5,-1
    96a8:	00e66363          	bltu	a2,a4,96ae <__mcmp+0x28>
    96ac:	4785                	li	a5,1
    96ae:	853e                	mv	a0,a5
    96b0:	8082                	ret
    96b2:	fed564e3          	bltu	a0,a3,969a <__mcmp+0x14>
    96b6:	bfe5                	j	96ae <__mcmp+0x28>

000096b8 <__mdiff>:
__mdiff():
    96b8:	1101                	addi	sp,sp,-32
    96ba:	ca26                	sw	s1,20(sp)
    96bc:	84ae                	mv	s1,a1
    96be:	c64e                	sw	s3,12(sp)
    96c0:	85b2                	mv	a1,a2
    96c2:	89aa                	mv	s3,a0
    96c4:	8526                	mv	a0,s1
    96c6:	cc22                	sw	s0,24(sp)
    96c8:	ce06                	sw	ra,28(sp)
    96ca:	c84a                	sw	s2,16(sp)
    96cc:	8432                	mv	s0,a2
    96ce:	fb9ff0ef          	jal	ra,9686 <__mcmp>
    96d2:	e105                	bnez	a0,96f2 <__mdiff+0x3a>
    96d4:	4581                	li	a1,0
    96d6:	854e                	mv	a0,s3
    96d8:	aafff0ef          	jal	ra,9186 <_Balloc>
    96dc:	4785                	li	a5,1
    96de:	c91c                	sw	a5,16(a0)
    96e0:	00052a23          	sw	zero,20(a0)
    96e4:	40f2                	lw	ra,28(sp)
    96e6:	4462                	lw	s0,24(sp)
    96e8:	44d2                	lw	s1,20(sp)
    96ea:	4942                	lw	s2,16(sp)
    96ec:	49b2                	lw	s3,12(sp)
    96ee:	6105                	addi	sp,sp,32
    96f0:	8082                	ret
    96f2:	4905                	li	s2,1
    96f4:	00054663          	bltz	a0,9700 <__mdiff+0x48>
    96f8:	87a2                	mv	a5,s0
    96fa:	4901                	li	s2,0
    96fc:	8426                	mv	s0,s1
    96fe:	84be                	mv	s1,a5
    9700:	404c                	lw	a1,4(s0)
    9702:	854e                	mv	a0,s3
    9704:	a83ff0ef          	jal	ra,9186 <_Balloc>
    9708:	01042303          	lw	t1,16(s0)
    970c:	0104a883          	lw	a7,16(s1)
    9710:	01440613          	addi	a2,s0,20
    9714:	00231e13          	slli	t3,t1,0x2
    9718:	01448813          	addi	a6,s1,20
    971c:	088a                	slli	a7,a7,0x2
    971e:	6ec1                	lui	t4,0x10
    9720:	01252623          	sw	s2,12(a0)
    9724:	9e32                	add	t3,t3,a2
    9726:	98c2                	add	a7,a7,a6
    9728:	01450693          	addi	a3,a0,20
    972c:	4f01                	li	t5,0
    972e:	1efd                	addi	t4,t4,-1
    9730:	4218                	lw	a4,0(a2)
    9732:	00082f83          	lw	t6,0(a6)
    9736:	0691                	addi	a3,a3,4
    9738:	01d775b3          	and	a1,a4,t4
    973c:	01dff7b3          	and	a5,t6,t4
    9740:	95fa                	add	a1,a1,t5
    9742:	8d9d                	sub	a1,a1,a5
    9744:	010fdf93          	srli	t6,t6,0x10
    9748:	01075793          	srli	a5,a4,0x10
    974c:	41f787b3          	sub	a5,a5,t6
    9750:	4105d713          	srai	a4,a1,0x10
    9754:	97ba                	add	a5,a5,a4
    9756:	4107df13          	srai	t5,a5,0x10
    975a:	01d5f5b3          	and	a1,a1,t4
    975e:	07c2                	slli	a5,a5,0x10
    9760:	8fcd                	or	a5,a5,a1
    9762:	0811                	addi	a6,a6,4
    9764:	fef6ae23          	sw	a5,-4(a3)
    9768:	0611                	addi	a2,a2,4
    976a:	fd1863e3          	bltu	a6,a7,9730 <__mdiff+0x78>
    976e:	65c1                	lui	a1,0x10
    9770:	15fd                	addi	a1,a1,-1
    9772:	01c66863          	bltu	a2,t3,9782 <__mdiff+0xca>
    9776:	16f1                	addi	a3,a3,-4
    9778:	429c                	lw	a5,0(a3)
    977a:	c795                	beqz	a5,97a6 <__mdiff+0xee>
    977c:	00652823          	sw	t1,16(a0)
    9780:	b795                	j	96e4 <__mdiff+0x2c>
    9782:	421c                	lw	a5,0(a2)
    9784:	0691                	addi	a3,a3,4
    9786:	0611                	addi	a2,a2,4
    9788:	00b7f733          	and	a4,a5,a1
    978c:	977a                	add	a4,a4,t5
    978e:	41075813          	srai	a6,a4,0x10
    9792:	83c1                	srli	a5,a5,0x10
    9794:	97c2                	add	a5,a5,a6
    9796:	4107df13          	srai	t5,a5,0x10
    979a:	8f6d                	and	a4,a4,a1
    979c:	07c2                	slli	a5,a5,0x10
    979e:	8fd9                	or	a5,a5,a4
    97a0:	fef6ae23          	sw	a5,-4(a3)
    97a4:	b7f9                	j	9772 <__mdiff+0xba>
    97a6:	137d                	addi	t1,t1,-1
    97a8:	b7f9                	j	9776 <__mdiff+0xbe>

000097aa <__d2b>:
__d2b():
    97aa:	7179                	addi	sp,sp,-48
    97ac:	d422                	sw	s0,40(sp)
    97ae:	842e                	mv	s0,a1
    97b0:	4585                	li	a1,1
    97b2:	d226                	sw	s1,36(sp)
    97b4:	d04a                	sw	s2,32(sp)
    97b6:	84b2                	mv	s1,a2
    97b8:	ce4e                	sw	s3,28(sp)
    97ba:	cc52                	sw	s4,24(sp)
    97bc:	893a                	mv	s2,a4
    97be:	d606                	sw	ra,44(sp)
    97c0:	8a36                	mv	s4,a3
    97c2:	9c5ff0ef          	jal	ra,9186 <_Balloc>
    97c6:	00100737          	lui	a4,0x100
    97ca:	fff70793          	addi	a5,a4,-1 # fffff <_data_lma+0xf4c2b>
    97ce:	8fe5                	and	a5,a5,s1
    97d0:	80d1                	srli	s1,s1,0x14
    97d2:	7ff4f493          	andi	s1,s1,2047
    97d6:	89aa                	mv	s3,a0
    97d8:	e0b5                	bnez	s1,983c <__d2b+0x92>
    97da:	c63e                	sw	a5,12(sp)
    97dc:	c42d                	beqz	s0,9846 <__d2b+0x9c>
    97de:	0028                	addi	a0,sp,8
    97e0:	c422                	sw	s0,8(sp)
    97e2:	b4fff0ef          	jal	ra,9330 <__lo0bits>
    97e6:	46a2                	lw	a3,8(sp)
    97e8:	cd21                	beqz	a0,9840 <__d2b+0x96>
    97ea:	4732                	lw	a4,12(sp)
    97ec:	02000793          	li	a5,32
    97f0:	8f89                	sub	a5,a5,a0
    97f2:	00f717b3          	sll	a5,a4,a5
    97f6:	8fd5                	or	a5,a5,a3
    97f8:	00a75733          	srl	a4,a4,a0
    97fc:	00f9aa23          	sw	a5,20(s3)
    9800:	c63a                	sw	a4,12(sp)
    9802:	4432                	lw	s0,12(sp)
    9804:	0089ac23          	sw	s0,24(s3)
    9808:	00803433          	snez	s0,s0
    980c:	0405                	addi	s0,s0,1
    980e:	0089a823          	sw	s0,16(s3)
    9812:	c4b9                	beqz	s1,9860 <__d2b+0xb6>
    9814:	bcd48493          	addi	s1,s1,-1075
    9818:	94aa                	add	s1,s1,a0
    981a:	03500793          	li	a5,53
    981e:	009a2023          	sw	s1,0(s4)
    9822:	40a78533          	sub	a0,a5,a0
    9826:	00a92023          	sw	a0,0(s2)
    982a:	50b2                	lw	ra,44(sp)
    982c:	5422                	lw	s0,40(sp)
    982e:	854e                	mv	a0,s3
    9830:	5492                	lw	s1,36(sp)
    9832:	5902                	lw	s2,32(sp)
    9834:	49f2                	lw	s3,28(sp)
    9836:	4a62                	lw	s4,24(sp)
    9838:	6145                	addi	sp,sp,48
    983a:	8082                	ret
    983c:	8fd9                	or	a5,a5,a4
    983e:	bf71                	j	97da <__d2b+0x30>
    9840:	00d9aa23          	sw	a3,20(s3)
    9844:	bf7d                	j	9802 <__d2b+0x58>
    9846:	0068                	addi	a0,sp,12
    9848:	ae9ff0ef          	jal	ra,9330 <__lo0bits>
    984c:	47b2                	lw	a5,12(sp)
    984e:	02050513          	addi	a0,a0,32
    9852:	4405                	li	s0,1
    9854:	00f9aa23          	sw	a5,20(s3)
    9858:	4785                	li	a5,1
    985a:	00f9a823          	sw	a5,16(s3)
    985e:	bf55                	j	9812 <__d2b+0x68>
    9860:	00241793          	slli	a5,s0,0x2
    9864:	bce50513          	addi	a0,a0,-1074
    9868:	97ce                	add	a5,a5,s3
    986a:	00aa2023          	sw	a0,0(s4)
    986e:	4b88                	lw	a0,16(a5)
    9870:	0416                	slli	s0,s0,0x5
    9872:	a79ff0ef          	jal	ra,92ea <__hi0bits>
    9876:	8c09                	sub	s0,s0,a0
    9878:	00892023          	sw	s0,0(s2)
    987c:	b77d                	j	982a <__d2b+0x80>

0000987e <_calloc_r>:
_calloc_r():
    987e:	02c58633          	mul	a2,a1,a2
    9882:	1101                	addi	sp,sp,-32
    9884:	cc22                	sw	s0,24(sp)
    9886:	ce06                	sw	ra,28(sp)
    9888:	85b2                	mv	a1,a2
    988a:	c632                	sw	a2,12(sp)
    988c:	20c1                	jal	994c <_malloc_r>
    988e:	842a                	mv	s0,a0
    9890:	c509                	beqz	a0,989a <_calloc_r+0x1c>
    9892:	4632                	lw	a2,12(sp)
    9894:	4581                	li	a1,0
    9896:	96bf60ef          	jal	ra,200 <memset>
    989a:	8522                	mv	a0,s0
    989c:	40f2                	lw	ra,28(sp)
    989e:	4462                	lw	s0,24(sp)
    98a0:	6105                	addi	sp,sp,32
    98a2:	8082                	ret

000098a4 <_free_r>:
_free_r():
    98a4:	c1dd                	beqz	a1,994a <_free_r+0xa6>
    98a6:	ffc5a783          	lw	a5,-4(a1) # fffc <_data_lma+0x4c28>
    98aa:	1141                	addi	sp,sp,-16
    98ac:	c422                	sw	s0,8(sp)
    98ae:	c606                	sw	ra,12(sp)
    98b0:	c226                	sw	s1,4(sp)
    98b2:	ffc58413          	addi	s0,a1,-4
    98b6:	0007d363          	bgez	a5,98bc <_free_r+0x18>
    98ba:	943e                	add	s0,s0,a5
    98bc:	84aa                	mv	s1,a0
    98be:	635000ef          	jal	ra,a6f2 <__malloc_lock>
    98c2:	86818793          	addi	a5,gp,-1944 # 200002a0 <__malloc_free_list>
    98c6:	439c                	lw	a5,0(a5)
    98c8:	ef81                	bnez	a5,98e0 <_free_r+0x3c>
    98ca:	00042223          	sw	zero,4(s0)
    98ce:	8681a423          	sw	s0,-1944(gp) # 200002a0 <__malloc_free_list>
    98d2:	4422                	lw	s0,8(sp)
    98d4:	40b2                	lw	ra,12(sp)
    98d6:	8526                	mv	a0,s1
    98d8:	4492                	lw	s1,4(sp)
    98da:	0141                	addi	sp,sp,16
    98dc:	6190006f          	j	a6f4 <__malloc_unlock>
    98e0:	00f47e63          	bgeu	s0,a5,98fc <_free_r+0x58>
    98e4:	4014                	lw	a3,0(s0)
    98e6:	00d40733          	add	a4,s0,a3
    98ea:	00e79663          	bne	a5,a4,98f6 <_free_r+0x52>
    98ee:	4398                	lw	a4,0(a5)
    98f0:	43dc                	lw	a5,4(a5)
    98f2:	9736                	add	a4,a4,a3
    98f4:	c018                	sw	a4,0(s0)
    98f6:	c05c                	sw	a5,4(s0)
    98f8:	bfd9                	j	98ce <_free_r+0x2a>
    98fa:	87ba                	mv	a5,a4
    98fc:	43d8                	lw	a4,4(a5)
    98fe:	c319                	beqz	a4,9904 <_free_r+0x60>
    9900:	fee47de3          	bgeu	s0,a4,98fa <_free_r+0x56>
    9904:	4394                	lw	a3,0(a5)
    9906:	00d78633          	add	a2,a5,a3
    990a:	00861f63          	bne	a2,s0,9928 <_free_r+0x84>
    990e:	4010                	lw	a2,0(s0)
    9910:	96b2                	add	a3,a3,a2
    9912:	c394                	sw	a3,0(a5)
    9914:	00d78633          	add	a2,a5,a3
    9918:	fac71de3          	bne	a4,a2,98d2 <_free_r+0x2e>
    991c:	4310                	lw	a2,0(a4)
    991e:	4358                	lw	a4,4(a4)
    9920:	96b2                	add	a3,a3,a2
    9922:	c394                	sw	a3,0(a5)
    9924:	c3d8                	sw	a4,4(a5)
    9926:	b775                	j	98d2 <_free_r+0x2e>
    9928:	00c47563          	bgeu	s0,a2,9932 <_free_r+0x8e>
    992c:	47b1                	li	a5,12
    992e:	c09c                	sw	a5,0(s1)
    9930:	b74d                	j	98d2 <_free_r+0x2e>
    9932:	4010                	lw	a2,0(s0)
    9934:	00c406b3          	add	a3,s0,a2
    9938:	00d71663          	bne	a4,a3,9944 <_free_r+0xa0>
    993c:	4314                	lw	a3,0(a4)
    993e:	4358                	lw	a4,4(a4)
    9940:	96b2                	add	a3,a3,a2
    9942:	c014                	sw	a3,0(s0)
    9944:	c058                	sw	a4,4(s0)
    9946:	c3c0                	sw	s0,4(a5)
    9948:	b769                	j	98d2 <_free_r+0x2e>
    994a:	8082                	ret

0000994c <_malloc_r>:
_malloc_r():
    994c:	1101                	addi	sp,sp,-32
    994e:	ca26                	sw	s1,20(sp)
    9950:	00358493          	addi	s1,a1,3
    9954:	98f1                	andi	s1,s1,-4
    9956:	ce06                	sw	ra,28(sp)
    9958:	cc22                	sw	s0,24(sp)
    995a:	c84a                	sw	s2,16(sp)
    995c:	c64e                	sw	s3,12(sp)
    995e:	04a1                	addi	s1,s1,8
    9960:	47b1                	li	a5,12
    9962:	04f4f363          	bgeu	s1,a5,99a8 <_malloc_r+0x5c>
    9966:	44b1                	li	s1,12
    9968:	04b4e263          	bltu	s1,a1,99ac <_malloc_r+0x60>
    996c:	892a                	mv	s2,a0
    996e:	585000ef          	jal	ra,a6f2 <__malloc_lock>
    9972:	86818793          	addi	a5,gp,-1944 # 200002a0 <__malloc_free_list>
    9976:	4398                	lw	a4,0(a5)
    9978:	843a                	mv	s0,a4
    997a:	e039                	bnez	s0,99c0 <_malloc_r+0x74>
    997c:	86c18793          	addi	a5,gp,-1940 # 200002a4 <__malloc_sbrk_start>
    9980:	439c                	lw	a5,0(a5)
    9982:	e791                	bnez	a5,998e <_malloc_r+0x42>
    9984:	4581                	li	a1,0
    9986:	854a                	mv	a0,s2
    9988:	2739                	jal	a096 <_sbrk_r>
    998a:	86a1a623          	sw	a0,-1940(gp) # 200002a4 <__malloc_sbrk_start>
    998e:	85a6                	mv	a1,s1
    9990:	854a                	mv	a0,s2
    9992:	2711                	jal	a096 <_sbrk_r>
    9994:	59fd                	li	s3,-1
    9996:	07351963          	bne	a0,s3,9a08 <_malloc_r+0xbc>
    999a:	47b1                	li	a5,12
    999c:	00f92023          	sw	a5,0(s2)
    99a0:	854a                	mv	a0,s2
    99a2:	553000ef          	jal	ra,a6f4 <__malloc_unlock>
    99a6:	a029                	j	99b0 <_malloc_r+0x64>
    99a8:	fc04d0e3          	bgez	s1,9968 <_malloc_r+0x1c>
    99ac:	47b1                	li	a5,12
    99ae:	c11c                	sw	a5,0(a0)
    99b0:	4501                	li	a0,0
    99b2:	40f2                	lw	ra,28(sp)
    99b4:	4462                	lw	s0,24(sp)
    99b6:	44d2                	lw	s1,20(sp)
    99b8:	4942                	lw	s2,16(sp)
    99ba:	49b2                	lw	s3,12(sp)
    99bc:	6105                	addi	sp,sp,32
    99be:	8082                	ret
    99c0:	401c                	lw	a5,0(s0)
    99c2:	8f85                	sub	a5,a5,s1
    99c4:	0207cf63          	bltz	a5,9a02 <_malloc_r+0xb6>
    99c8:	46ad                	li	a3,11
    99ca:	00f6f663          	bgeu	a3,a5,99d6 <_malloc_r+0x8a>
    99ce:	c01c                	sw	a5,0(s0)
    99d0:	943e                	add	s0,s0,a5
    99d2:	c004                	sw	s1,0(s0)
    99d4:	a031                	j	99e0 <_malloc_r+0x94>
    99d6:	405c                	lw	a5,4(s0)
    99d8:	02871363          	bne	a4,s0,99fe <_malloc_r+0xb2>
    99dc:	86f1a423          	sw	a5,-1944(gp) # 200002a0 <__malloc_free_list>
    99e0:	854a                	mv	a0,s2
    99e2:	513000ef          	jal	ra,a6f4 <__malloc_unlock>
    99e6:	00b40513          	addi	a0,s0,11
    99ea:	00440793          	addi	a5,s0,4
    99ee:	9961                	andi	a0,a0,-8
    99f0:	40f50733          	sub	a4,a0,a5
    99f4:	df5d                	beqz	a4,99b2 <_malloc_r+0x66>
    99f6:	943a                	add	s0,s0,a4
    99f8:	8f89                	sub	a5,a5,a0
    99fa:	c01c                	sw	a5,0(s0)
    99fc:	bf5d                	j	99b2 <_malloc_r+0x66>
    99fe:	c35c                	sw	a5,4(a4)
    9a00:	b7c5                	j	99e0 <_malloc_r+0x94>
    9a02:	8722                	mv	a4,s0
    9a04:	4040                	lw	s0,4(s0)
    9a06:	bf95                	j	997a <_malloc_r+0x2e>
    9a08:	00350413          	addi	s0,a0,3
    9a0c:	9871                	andi	s0,s0,-4
    9a0e:	fc8502e3          	beq	a0,s0,99d2 <_malloc_r+0x86>
    9a12:	40a405b3          	sub	a1,s0,a0
    9a16:	854a                	mv	a0,s2
    9a18:	2dbd                	jal	a096 <_sbrk_r>
    9a1a:	fb351ce3          	bne	a0,s3,99d2 <_malloc_r+0x86>
    9a1e:	bfb5                	j	999a <_malloc_r+0x4e>

00009a20 <__ssputs_r>:
__ssputs_r():
    9a20:	1101                	addi	sp,sp,-32
    9a22:	c84a                	sw	s2,16(sp)
    9a24:	0085a903          	lw	s2,8(a1)
    9a28:	cc22                	sw	s0,24(sp)
    9a2a:	c452                	sw	s4,8(sp)
    9a2c:	c05a                	sw	s6,0(sp)
    9a2e:	ce06                	sw	ra,28(sp)
    9a30:	ca26                	sw	s1,20(sp)
    9a32:	c64e                	sw	s3,12(sp)
    9a34:	c256                	sw	s5,4(sp)
    9a36:	842e                	mv	s0,a1
    9a38:	8b32                	mv	s6,a2
    9a3a:	8a36                	mv	s4,a3
    9a3c:	0926ee63          	bltu	a3,s2,9ad8 <__ssputs_r+0xb8>
    9a40:	00c5d783          	lhu	a5,12(a1)
    9a44:	4807f713          	andi	a4,a5,1152
    9a48:	c751                	beqz	a4,9ad4 <__ssputs_r+0xb4>
    9a4a:	4004                	lw	s1,0(s0)
    9a4c:	498c                	lw	a1,16(a1)
    9a4e:	4858                	lw	a4,20(s0)
    9a50:	8aaa                	mv	s5,a0
    9a52:	40b489b3          	sub	s3,s1,a1
    9a56:	448d                	li	s1,3
    9a58:	02e484b3          	mul	s1,s1,a4
    9a5c:	4709                	li	a4,2
    9a5e:	02e4c4b3          	div	s1,s1,a4
    9a62:	00168713          	addi	a4,a3,1
    9a66:	974e                	add	a4,a4,s3
    9a68:	00e4f363          	bgeu	s1,a4,9a6e <__ssputs_r+0x4e>
    9a6c:	84ba                	mv	s1,a4
    9a6e:	4007f793          	andi	a5,a5,1024
    9a72:	c3d9                	beqz	a5,9af8 <__ssputs_r+0xd8>
    9a74:	85a6                	mv	a1,s1
    9a76:	8556                	mv	a0,s5
    9a78:	ed5ff0ef          	jal	ra,994c <_malloc_r>
    9a7c:	892a                	mv	s2,a0
    9a7e:	e50d                	bnez	a0,9aa8 <__ssputs_r+0x88>
    9a80:	47b1                	li	a5,12
    9a82:	00faa023          	sw	a5,0(s5)
    9a86:	00c45783          	lhu	a5,12(s0)
    9a8a:	557d                	li	a0,-1
    9a8c:	0407e793          	ori	a5,a5,64
    9a90:	00f41623          	sh	a5,12(s0)
    9a94:	40f2                	lw	ra,28(sp)
    9a96:	4462                	lw	s0,24(sp)
    9a98:	44d2                	lw	s1,20(sp)
    9a9a:	4942                	lw	s2,16(sp)
    9a9c:	49b2                	lw	s3,12(sp)
    9a9e:	4a22                	lw	s4,8(sp)
    9aa0:	4a92                	lw	s5,4(sp)
    9aa2:	4b02                	lw	s6,0(sp)
    9aa4:	6105                	addi	sp,sp,32
    9aa6:	8082                	ret
    9aa8:	480c                	lw	a1,16(s0)
    9aaa:	864e                	mv	a2,s3
    9aac:	bfffd0ef          	jal	ra,76aa <memcpy>
    9ab0:	00c45783          	lhu	a5,12(s0)
    9ab4:	b7f7f793          	andi	a5,a5,-1153
    9ab8:	0807e793          	ori	a5,a5,128
    9abc:	00f41623          	sh	a5,12(s0)
    9ac0:	01242823          	sw	s2,16(s0)
    9ac4:	c844                	sw	s1,20(s0)
    9ac6:	994e                	add	s2,s2,s3
    9ac8:	413484b3          	sub	s1,s1,s3
    9acc:	01242023          	sw	s2,0(s0)
    9ad0:	c404                	sw	s1,8(s0)
    9ad2:	8952                	mv	s2,s4
    9ad4:	012a7363          	bgeu	s4,s2,9ada <__ssputs_r+0xba>
    9ad8:	8952                	mv	s2,s4
    9ada:	4008                	lw	a0,0(s0)
    9adc:	864a                	mv	a2,s2
    9ade:	85da                	mv	a1,s6
    9ae0:	3c9000ef          	jal	ra,a6a8 <memmove>
    9ae4:	441c                	lw	a5,8(s0)
    9ae6:	4501                	li	a0,0
    9ae8:	412787b3          	sub	a5,a5,s2
    9aec:	c41c                	sw	a5,8(s0)
    9aee:	401c                	lw	a5,0(s0)
    9af0:	993e                	add	s2,s2,a5
    9af2:	01242023          	sw	s2,0(s0)
    9af6:	bf79                	j	9a94 <__ssputs_r+0x74>
    9af8:	8626                	mv	a2,s1
    9afa:	8556                	mv	a0,s5
    9afc:	3fb000ef          	jal	ra,a6f6 <_realloc_r>
    9b00:	892a                	mv	s2,a0
    9b02:	fd5d                	bnez	a0,9ac0 <__ssputs_r+0xa0>
    9b04:	480c                	lw	a1,16(s0)
    9b06:	8556                	mv	a0,s5
    9b08:	d9dff0ef          	jal	ra,98a4 <_free_r>
    9b0c:	bf95                	j	9a80 <__ssputs_r+0x60>

00009b0e <_svfiprintf_r>:
_svfprintf_r():
    9b0e:	00c5d783          	lhu	a5,12(a1)
    9b12:	7171                	addi	sp,sp,-176
    9b14:	d326                	sw	s1,164(sp)
    9b16:	d14a                	sw	s2,160(sp)
    9b18:	cf4e                	sw	s3,156(sp)
    9b1a:	d706                	sw	ra,172(sp)
    9b1c:	d522                	sw	s0,168(sp)
    9b1e:	cd52                	sw	s4,152(sp)
    9b20:	cb56                	sw	s5,148(sp)
    9b22:	c95a                	sw	s6,144(sp)
    9b24:	c75e                	sw	s7,140(sp)
    9b26:	c562                	sw	s8,136(sp)
    9b28:	c366                	sw	s9,132(sp)
    9b2a:	0807f793          	andi	a5,a5,128
    9b2e:	89aa                	mv	s3,a0
    9b30:	892e                	mv	s2,a1
    9b32:	84b2                	mv	s1,a2
    9b34:	c3b9                	beqz	a5,9b7a <_svfiprintf_r+0x6c>
    9b36:	499c                	lw	a5,16(a1)
    9b38:	e3a9                	bnez	a5,9b7a <_svfiprintf_r+0x6c>
    9b3a:	04000593          	li	a1,64
    9b3e:	c636                	sw	a3,12(sp)
    9b40:	e0dff0ef          	jal	ra,994c <_malloc_r>
    9b44:	00a92023          	sw	a0,0(s2)
    9b48:	00a92823          	sw	a0,16(s2)
    9b4c:	46b2                	lw	a3,12(sp)
    9b4e:	e115                	bnez	a0,9b72 <_svfiprintf_r+0x64>
    9b50:	47b1                	li	a5,12
    9b52:	00f9a023          	sw	a5,0(s3)
    9b56:	557d                	li	a0,-1
    9b58:	50ba                	lw	ra,172(sp)
    9b5a:	542a                	lw	s0,168(sp)
    9b5c:	549a                	lw	s1,164(sp)
    9b5e:	590a                	lw	s2,160(sp)
    9b60:	49fa                	lw	s3,156(sp)
    9b62:	4a6a                	lw	s4,152(sp)
    9b64:	4ada                	lw	s5,148(sp)
    9b66:	4b4a                	lw	s6,144(sp)
    9b68:	4bba                	lw	s7,140(sp)
    9b6a:	4c2a                	lw	s8,136(sp)
    9b6c:	4c9a                	lw	s9,132(sp)
    9b6e:	614d                	addi	sp,sp,176
    9b70:	8082                	ret
    9b72:	04000793          	li	a5,64
    9b76:	00f92a23          	sw	a5,20(s2)
    9b7a:	02000793          	li	a5,32
    9b7e:	02f10ca3          	sb	a5,57(sp)
    9b82:	03000793          	li	a5,48
    9b86:	da02                	sw	zero,52(sp)
    9b88:	02f10d23          	sb	a5,58(sp)
    9b8c:	ce36                	sw	a3,28(sp)
    9b8e:	02500b93          	li	s7,37
    9b92:	00001a97          	auipc	s5,0x1
    9b96:	71aa8a93          	addi	s5,s5,1818 # b2ac <p05.3321+0xc>
    9b9a:	4c05                	li	s8,1
    9b9c:	4b29                	li	s6,10
    9b9e:	8426                	mv	s0,s1
    9ba0:	00044783          	lbu	a5,0(s0)
    9ba4:	c399                	beqz	a5,9baa <_svfiprintf_r+0x9c>
    9ba6:	09779d63          	bne	a5,s7,9c40 <_svfiprintf_r+0x132>
    9baa:	40940cb3          	sub	s9,s0,s1
    9bae:	000c8e63          	beqz	s9,9bca <_svfiprintf_r+0xbc>
    9bb2:	86e6                	mv	a3,s9
    9bb4:	8626                	mv	a2,s1
    9bb6:	85ca                	mv	a1,s2
    9bb8:	854e                	mv	a0,s3
    9bba:	e67ff0ef          	jal	ra,9a20 <__ssputs_r>
    9bbe:	57fd                	li	a5,-1
    9bc0:	1af50263          	beq	a0,a5,9d64 <_svfiprintf_r+0x256>
    9bc4:	56d2                	lw	a3,52(sp)
    9bc6:	96e6                	add	a3,a3,s9
    9bc8:	da36                	sw	a3,52(sp)
    9bca:	00044783          	lbu	a5,0(s0)
    9bce:	18078b63          	beqz	a5,9d64 <_svfiprintf_r+0x256>
    9bd2:	57fd                	li	a5,-1
    9bd4:	00140493          	addi	s1,s0,1
    9bd8:	d002                	sw	zero,32(sp)
    9bda:	d602                	sw	zero,44(sp)
    9bdc:	d23e                	sw	a5,36(sp)
    9bde:	d402                	sw	zero,40(sp)
    9be0:	060101a3          	sb	zero,99(sp)
    9be4:	dc82                	sw	zero,120(sp)
    9be6:	0004c583          	lbu	a1,0(s1)
    9bea:	4615                	li	a2,5
    9bec:	8556                	mv	a0,s5
    9bee:	d7eff0ef          	jal	ra,916c <memchr>
    9bf2:	00148413          	addi	s0,s1,1
    9bf6:	5782                	lw	a5,32(sp)
    9bf8:	e531                	bnez	a0,9c44 <_svfiprintf_r+0x136>
    9bfa:	0107f713          	andi	a4,a5,16
    9bfe:	c709                	beqz	a4,9c08 <_svfiprintf_r+0xfa>
    9c00:	02000713          	li	a4,32
    9c04:	06e101a3          	sb	a4,99(sp)
    9c08:	0087f713          	andi	a4,a5,8
    9c0c:	c709                	beqz	a4,9c16 <_svfiprintf_r+0x108>
    9c0e:	02b00713          	li	a4,43
    9c12:	06e101a3          	sb	a4,99(sp)
    9c16:	0004c683          	lbu	a3,0(s1)
    9c1a:	02a00713          	li	a4,42
    9c1e:	02e68b63          	beq	a3,a4,9c54 <_svfiprintf_r+0x146>
    9c22:	57b2                	lw	a5,44(sp)
    9c24:	8426                	mv	s0,s1
    9c26:	4681                	li	a3,0
    9c28:	4625                	li	a2,9
    9c2a:	00044703          	lbu	a4,0(s0)
    9c2e:	00140593          	addi	a1,s0,1
    9c32:	fd070713          	addi	a4,a4,-48
    9c36:	06e67463          	bgeu	a2,a4,9c9e <_svfiprintf_r+0x190>
    9c3a:	c68d                	beqz	a3,9c64 <_svfiprintf_r+0x156>
    9c3c:	d63e                	sw	a5,44(sp)
    9c3e:	a01d                	j	9c64 <_svfiprintf_r+0x156>
    9c40:	0405                	addi	s0,s0,1
    9c42:	bfb9                	j	9ba0 <_svfiprintf_r+0x92>
    9c44:	41550533          	sub	a0,a0,s5
    9c48:	00ac1533          	sll	a0,s8,a0
    9c4c:	8fc9                	or	a5,a5,a0
    9c4e:	d03e                	sw	a5,32(sp)
    9c50:	84a2                	mv	s1,s0
    9c52:	bf51                	j	9be6 <_svfiprintf_r+0xd8>
    9c54:	4772                	lw	a4,28(sp)
    9c56:	00470693          	addi	a3,a4,4
    9c5a:	4318                	lw	a4,0(a4)
    9c5c:	ce36                	sw	a3,28(sp)
    9c5e:	02074963          	bltz	a4,9c90 <_svfiprintf_r+0x182>
    9c62:	d63a                	sw	a4,44(sp)
    9c64:	00044703          	lbu	a4,0(s0)
    9c68:	02e00793          	li	a5,46
    9c6c:	04f71f63          	bne	a4,a5,9cca <_svfiprintf_r+0x1bc>
    9c70:	00144703          	lbu	a4,1(s0)
    9c74:	02a00793          	li	a5,42
    9c78:	02f71b63          	bne	a4,a5,9cae <_svfiprintf_r+0x1a0>
    9c7c:	47f2                	lw	a5,28(sp)
    9c7e:	0409                	addi	s0,s0,2
    9c80:	00478713          	addi	a4,a5,4
    9c84:	439c                	lw	a5,0(a5)
    9c86:	ce3a                	sw	a4,28(sp)
    9c88:	0207c163          	bltz	a5,9caa <_svfiprintf_r+0x19c>
    9c8c:	d23e                	sw	a5,36(sp)
    9c8e:	a835                	j	9cca <_svfiprintf_r+0x1bc>
    9c90:	40e00733          	neg	a4,a4
    9c94:	0027e793          	ori	a5,a5,2
    9c98:	d63a                	sw	a4,44(sp)
    9c9a:	d03e                	sw	a5,32(sp)
    9c9c:	b7e1                	j	9c64 <_svfiprintf_r+0x156>
    9c9e:	036787b3          	mul	a5,a5,s6
    9ca2:	4685                	li	a3,1
    9ca4:	842e                	mv	s0,a1
    9ca6:	97ba                	add	a5,a5,a4
    9ca8:	b749                	j	9c2a <_svfiprintf_r+0x11c>
    9caa:	57fd                	li	a5,-1
    9cac:	b7c5                	j	9c8c <_svfiprintf_r+0x17e>
    9cae:	0405                	addi	s0,s0,1
    9cb0:	d202                	sw	zero,36(sp)
    9cb2:	4681                	li	a3,0
    9cb4:	4781                	li	a5,0
    9cb6:	4625                	li	a2,9
    9cb8:	00044703          	lbu	a4,0(s0)
    9cbc:	00140593          	addi	a1,s0,1
    9cc0:	fd070713          	addi	a4,a4,-48
    9cc4:	06e67863          	bgeu	a2,a4,9d34 <_svfiprintf_r+0x226>
    9cc8:	f2f1                	bnez	a3,9c8c <_svfiprintf_r+0x17e>
    9cca:	00044583          	lbu	a1,0(s0)
    9cce:	460d                	li	a2,3
    9cd0:	00001517          	auipc	a0,0x1
    9cd4:	5e450513          	addi	a0,a0,1508 # b2b4 <p05.3321+0x14>
    9cd8:	c94ff0ef          	jal	ra,916c <memchr>
    9cdc:	cd11                	beqz	a0,9cf8 <_svfiprintf_r+0x1ea>
    9cde:	00001797          	auipc	a5,0x1
    9ce2:	5d678793          	addi	a5,a5,1494 # b2b4 <p05.3321+0x14>
    9ce6:	8d1d                	sub	a0,a0,a5
    9ce8:	04000793          	li	a5,64
    9cec:	00a797b3          	sll	a5,a5,a0
    9cf0:	5502                	lw	a0,32(sp)
    9cf2:	0405                	addi	s0,s0,1
    9cf4:	8d5d                	or	a0,a0,a5
    9cf6:	d02a                	sw	a0,32(sp)
    9cf8:	00044583          	lbu	a1,0(s0)
    9cfc:	4619                	li	a2,6
    9cfe:	00001517          	auipc	a0,0x1
    9d02:	5ba50513          	addi	a0,a0,1466 # b2b8 <p05.3321+0x18>
    9d06:	00140493          	addi	s1,s0,1
    9d0a:	02b10c23          	sb	a1,56(sp)
    9d0e:	c5eff0ef          	jal	ra,916c <memchr>
    9d12:	c135                	beqz	a0,9d76 <_svfiprintf_r+0x268>
    9d14:	ffffe797          	auipc	a5,0xffffe
    9d18:	bc678793          	addi	a5,a5,-1082 # 78da <_printf_float>
    9d1c:	e795                	bnez	a5,9d48 <_svfiprintf_r+0x23a>
    9d1e:	5702                	lw	a4,32(sp)
    9d20:	47f2                	lw	a5,28(sp)
    9d22:	10077713          	andi	a4,a4,256
    9d26:	cf09                	beqz	a4,9d40 <_svfiprintf_r+0x232>
    9d28:	0791                	addi	a5,a5,4
    9d2a:	ce3e                	sw	a5,28(sp)
    9d2c:	57d2                	lw	a5,52(sp)
    9d2e:	97d2                	add	a5,a5,s4
    9d30:	da3e                	sw	a5,52(sp)
    9d32:	b5b5                	j	9b9e <_svfiprintf_r+0x90>
    9d34:	036787b3          	mul	a5,a5,s6
    9d38:	4685                	li	a3,1
    9d3a:	842e                	mv	s0,a1
    9d3c:	97ba                	add	a5,a5,a4
    9d3e:	bfad                	j	9cb8 <_svfiprintf_r+0x1aa>
    9d40:	079d                	addi	a5,a5,7
    9d42:	9be1                	andi	a5,a5,-8
    9d44:	07a1                	addi	a5,a5,8
    9d46:	b7d5                	j	9d2a <_svfiprintf_r+0x21c>
    9d48:	0878                	addi	a4,sp,28
    9d4a:	00000697          	auipc	a3,0x0
    9d4e:	cd668693          	addi	a3,a3,-810 # 9a20 <__ssputs_r>
    9d52:	864a                	mv	a2,s2
    9d54:	100c                	addi	a1,sp,32
    9d56:	854e                	mv	a0,s3
    9d58:	b83fd0ef          	jal	ra,78da <_printf_float>
    9d5c:	57fd                	li	a5,-1
    9d5e:	8a2a                	mv	s4,a0
    9d60:	fcf516e3          	bne	a0,a5,9d2c <_svfiprintf_r+0x21e>
    9d64:	00c95783          	lhu	a5,12(s2)
    9d68:	557d                	li	a0,-1
    9d6a:	0407f793          	andi	a5,a5,64
    9d6e:	de0795e3          	bnez	a5,9b58 <_svfiprintf_r+0x4a>
    9d72:	5552                	lw	a0,52(sp)
    9d74:	b3d5                	j	9b58 <_svfiprintf_r+0x4a>
    9d76:	0878                	addi	a4,sp,28
    9d78:	00000697          	auipc	a3,0x0
    9d7c:	ca868693          	addi	a3,a3,-856 # 9a20 <__ssputs_r>
    9d80:	864a                	mv	a2,s2
    9d82:	100c                	addi	a1,sp,32
    9d84:	854e                	mv	a0,s3
    9d86:	924fe0ef          	jal	ra,7eaa <_printf_i>
    9d8a:	bfc9                	j	9d5c <_svfiprintf_r+0x24e>

00009d8c <__sfputc_r>:
__sfputc_r():
    9d8c:	461c                	lw	a5,8(a2)
    9d8e:	17fd                	addi	a5,a5,-1
    9d90:	c61c                	sw	a5,8(a2)
    9d92:	0007d963          	bgez	a5,9da4 <__sfputc_r+0x18>
    9d96:	4e18                	lw	a4,24(a2)
    9d98:	00e7c563          	blt	a5,a4,9da2 <__sfputc_r+0x16>
    9d9c:	47a9                	li	a5,10
    9d9e:	00f59363          	bne	a1,a5,9da4 <__sfputc_r+0x18>
    9da2:	aee1                	j	a17a <__swbuf_r>
    9da4:	421c                	lw	a5,0(a2)
    9da6:	852e                	mv	a0,a1
    9da8:	00178713          	addi	a4,a5,1
    9dac:	c218                	sw	a4,0(a2)
    9dae:	00b78023          	sb	a1,0(a5)
    9db2:	8082                	ret

00009db4 <__sfputs_r>:
__sfputs_r():
    9db4:	1101                	addi	sp,sp,-32
    9db6:	cc22                	sw	s0,24(sp)
    9db8:	ca26                	sw	s1,20(sp)
    9dba:	c84a                	sw	s2,16(sp)
    9dbc:	c64e                	sw	s3,12(sp)
    9dbe:	c452                	sw	s4,8(sp)
    9dc0:	ce06                	sw	ra,28(sp)
    9dc2:	892a                	mv	s2,a0
    9dc4:	89ae                	mv	s3,a1
    9dc6:	8432                	mv	s0,a2
    9dc8:	00d604b3          	add	s1,a2,a3
    9dcc:	5a7d                	li	s4,-1
    9dce:	00941463          	bne	s0,s1,9dd6 <__sfputs_r+0x22>
    9dd2:	4501                	li	a0,0
    9dd4:	a811                	j	9de8 <__sfputs_r+0x34>
    9dd6:	00044583          	lbu	a1,0(s0)
    9dda:	864e                	mv	a2,s3
    9ddc:	854a                	mv	a0,s2
    9dde:	fafff0ef          	jal	ra,9d8c <__sfputc_r>
    9de2:	0405                	addi	s0,s0,1
    9de4:	ff4515e3          	bne	a0,s4,9dce <__sfputs_r+0x1a>
    9de8:	40f2                	lw	ra,28(sp)
    9dea:	4462                	lw	s0,24(sp)
    9dec:	44d2                	lw	s1,20(sp)
    9dee:	4942                	lw	s2,16(sp)
    9df0:	49b2                	lw	s3,12(sp)
    9df2:	4a22                	lw	s4,8(sp)
    9df4:	6105                	addi	sp,sp,32
    9df6:	8082                	ret

00009df8 <_vfiprintf_r>:
_vfiprintf_r():
    9df8:	7135                	addi	sp,sp,-160
    9dfa:	cd22                	sw	s0,152(sp)
    9dfc:	cb26                	sw	s1,148(sp)
    9dfe:	c94a                	sw	s2,144(sp)
    9e00:	c74e                	sw	s3,140(sp)
    9e02:	cf06                	sw	ra,156(sp)
    9e04:	c552                	sw	s4,136(sp)
    9e06:	c356                	sw	s5,132(sp)
    9e08:	c15a                	sw	s6,128(sp)
    9e0a:	dede                	sw	s7,124(sp)
    9e0c:	dce2                	sw	s8,120(sp)
    9e0e:	dae6                	sw	s9,116(sp)
    9e10:	89aa                	mv	s3,a0
    9e12:	84ae                	mv	s1,a1
    9e14:	8932                	mv	s2,a2
    9e16:	8436                	mv	s0,a3
    9e18:	c509                	beqz	a0,9e22 <_vfiprintf_r+0x2a>
    9e1a:	4d1c                	lw	a5,24(a0)
    9e1c:	e399                	bnez	a5,9e22 <_vfiprintf_r+0x2a>
    9e1e:	9b2ff0ef          	jal	ra,8fd0 <__sinit>
    9e22:	00001797          	auipc	a5,0x1
    9e26:	34e78793          	addi	a5,a5,846 # b170 <__sf_fake_stdin>
    9e2a:	0cf49d63          	bne	s1,a5,9f04 <_vfiprintf_r+0x10c>
    9e2e:	0049a483          	lw	s1,4(s3)
    9e32:	00c4d783          	lhu	a5,12(s1)
    9e36:	8ba1                	andi	a5,a5,8
    9e38:	cbe5                	beqz	a5,9f28 <_vfiprintf_r+0x130>
    9e3a:	489c                	lw	a5,16(s1)
    9e3c:	c7f5                	beqz	a5,9f28 <_vfiprintf_r+0x130>
    9e3e:	02000793          	li	a5,32
    9e42:	02f104a3          	sb	a5,41(sp)
    9e46:	03000793          	li	a5,48
    9e4a:	d202                	sw	zero,36(sp)
    9e4c:	02f10523          	sb	a5,42(sp)
    9e50:	c622                	sw	s0,12(sp)
    9e52:	02500b93          	li	s7,37
    9e56:	00001a97          	auipc	s5,0x1
    9e5a:	456a8a93          	addi	s5,s5,1110 # b2ac <p05.3321+0xc>
    9e5e:	4c05                	li	s8,1
    9e60:	4b29                	li	s6,10
    9e62:	844a                	mv	s0,s2
    9e64:	00044783          	lbu	a5,0(s0)
    9e68:	c399                	beqz	a5,9e6e <_vfiprintf_r+0x76>
    9e6a:	0f779163          	bne	a5,s7,9f4c <_vfiprintf_r+0x154>
    9e6e:	41240cb3          	sub	s9,s0,s2
    9e72:	000c8e63          	beqz	s9,9e8e <_vfiprintf_r+0x96>
    9e76:	86e6                	mv	a3,s9
    9e78:	864a                	mv	a2,s2
    9e7a:	85a6                	mv	a1,s1
    9e7c:	854e                	mv	a0,s3
    9e7e:	f37ff0ef          	jal	ra,9db4 <__sfputs_r>
    9e82:	57fd                	li	a5,-1
    9e84:	1ef50663          	beq	a0,a5,a070 <_vfiprintf_r+0x278>
    9e88:	5692                	lw	a3,36(sp)
    9e8a:	96e6                	add	a3,a3,s9
    9e8c:	d236                	sw	a3,36(sp)
    9e8e:	00044783          	lbu	a5,0(s0)
    9e92:	1c078f63          	beqz	a5,a070 <_vfiprintf_r+0x278>
    9e96:	57fd                	li	a5,-1
    9e98:	00140913          	addi	s2,s0,1
    9e9c:	c802                	sw	zero,16(sp)
    9e9e:	ce02                	sw	zero,28(sp)
    9ea0:	ca3e                	sw	a5,20(sp)
    9ea2:	cc02                	sw	zero,24(sp)
    9ea4:	040109a3          	sb	zero,83(sp)
    9ea8:	d482                	sw	zero,104(sp)
    9eaa:	00094583          	lbu	a1,0(s2)
    9eae:	4615                	li	a2,5
    9eb0:	8556                	mv	a0,s5
    9eb2:	abaff0ef          	jal	ra,916c <memchr>
    9eb6:	00190413          	addi	s0,s2,1
    9eba:	47c2                	lw	a5,16(sp)
    9ebc:	e951                	bnez	a0,9f50 <_vfiprintf_r+0x158>
    9ebe:	0107f713          	andi	a4,a5,16
    9ec2:	c709                	beqz	a4,9ecc <_vfiprintf_r+0xd4>
    9ec4:	02000713          	li	a4,32
    9ec8:	04e109a3          	sb	a4,83(sp)
    9ecc:	0087f713          	andi	a4,a5,8
    9ed0:	c709                	beqz	a4,9eda <_vfiprintf_r+0xe2>
    9ed2:	02b00713          	li	a4,43
    9ed6:	04e109a3          	sb	a4,83(sp)
    9eda:	00094683          	lbu	a3,0(s2)
    9ede:	02a00713          	li	a4,42
    9ee2:	06e68f63          	beq	a3,a4,9f60 <_vfiprintf_r+0x168>
    9ee6:	47f2                	lw	a5,28(sp)
    9ee8:	844a                	mv	s0,s2
    9eea:	4681                	li	a3,0
    9eec:	4625                	li	a2,9
    9eee:	00044703          	lbu	a4,0(s0)
    9ef2:	00140593          	addi	a1,s0,1
    9ef6:	fd070713          	addi	a4,a4,-48
    9efa:	0ae67863          	bgeu	a2,a4,9faa <_vfiprintf_r+0x1b2>
    9efe:	caad                	beqz	a3,9f70 <_vfiprintf_r+0x178>
    9f00:	ce3e                	sw	a5,28(sp)
    9f02:	a0bd                	j	9f70 <_vfiprintf_r+0x178>
    9f04:	00001797          	auipc	a5,0x1
    9f08:	28c78793          	addi	a5,a5,652 # b190 <__sf_fake_stdout>
    9f0c:	00f49563          	bne	s1,a5,9f16 <_vfiprintf_r+0x11e>
    9f10:	0089a483          	lw	s1,8(s3)
    9f14:	bf39                	j	9e32 <_vfiprintf_r+0x3a>
    9f16:	00001797          	auipc	a5,0x1
    9f1a:	23a78793          	addi	a5,a5,570 # b150 <__sf_fake_stderr>
    9f1e:	f0f49ae3          	bne	s1,a5,9e32 <_vfiprintf_r+0x3a>
    9f22:	00c9a483          	lw	s1,12(s3)
    9f26:	b731                	j	9e32 <_vfiprintf_r+0x3a>
    9f28:	85a6                	mv	a1,s1
    9f2a:	854e                	mv	a0,s3
    9f2c:	2e3d                	jal	a26a <__swsetup_r>
    9f2e:	d901                	beqz	a0,9e3e <_vfiprintf_r+0x46>
    9f30:	557d                	li	a0,-1
    9f32:	40fa                	lw	ra,156(sp)
    9f34:	446a                	lw	s0,152(sp)
    9f36:	44da                	lw	s1,148(sp)
    9f38:	494a                	lw	s2,144(sp)
    9f3a:	49ba                	lw	s3,140(sp)
    9f3c:	4a2a                	lw	s4,136(sp)
    9f3e:	4a9a                	lw	s5,132(sp)
    9f40:	4b0a                	lw	s6,128(sp)
    9f42:	5bf6                	lw	s7,124(sp)
    9f44:	5c66                	lw	s8,120(sp)
    9f46:	5cd6                	lw	s9,116(sp)
    9f48:	610d                	addi	sp,sp,160
    9f4a:	8082                	ret
    9f4c:	0405                	addi	s0,s0,1
    9f4e:	bf19                	j	9e64 <_vfiprintf_r+0x6c>
    9f50:	41550533          	sub	a0,a0,s5
    9f54:	00ac1533          	sll	a0,s8,a0
    9f58:	8fc9                	or	a5,a5,a0
    9f5a:	c83e                	sw	a5,16(sp)
    9f5c:	8922                	mv	s2,s0
    9f5e:	b7b1                	j	9eaa <_vfiprintf_r+0xb2>
    9f60:	4732                	lw	a4,12(sp)
    9f62:	00470693          	addi	a3,a4,4
    9f66:	4318                	lw	a4,0(a4)
    9f68:	c636                	sw	a3,12(sp)
    9f6a:	02074963          	bltz	a4,9f9c <_vfiprintf_r+0x1a4>
    9f6e:	ce3a                	sw	a4,28(sp)
    9f70:	00044703          	lbu	a4,0(s0)
    9f74:	02e00793          	li	a5,46
    9f78:	04f71f63          	bne	a4,a5,9fd6 <_vfiprintf_r+0x1de>
    9f7c:	00144703          	lbu	a4,1(s0)
    9f80:	02a00793          	li	a5,42
    9f84:	02f71b63          	bne	a4,a5,9fba <_vfiprintf_r+0x1c2>
    9f88:	47b2                	lw	a5,12(sp)
    9f8a:	0409                	addi	s0,s0,2
    9f8c:	00478713          	addi	a4,a5,4
    9f90:	439c                	lw	a5,0(a5)
    9f92:	c63a                	sw	a4,12(sp)
    9f94:	0207c163          	bltz	a5,9fb6 <_vfiprintf_r+0x1be>
    9f98:	ca3e                	sw	a5,20(sp)
    9f9a:	a835                	j	9fd6 <_vfiprintf_r+0x1de>
    9f9c:	40e00733          	neg	a4,a4
    9fa0:	0027e793          	ori	a5,a5,2
    9fa4:	ce3a                	sw	a4,28(sp)
    9fa6:	c83e                	sw	a5,16(sp)
    9fa8:	b7e1                	j	9f70 <_vfiprintf_r+0x178>
    9faa:	036787b3          	mul	a5,a5,s6
    9fae:	4685                	li	a3,1
    9fb0:	842e                	mv	s0,a1
    9fb2:	97ba                	add	a5,a5,a4
    9fb4:	bf2d                	j	9eee <_vfiprintf_r+0xf6>
    9fb6:	57fd                	li	a5,-1
    9fb8:	b7c5                	j	9f98 <_vfiprintf_r+0x1a0>
    9fba:	0405                	addi	s0,s0,1
    9fbc:	ca02                	sw	zero,20(sp)
    9fbe:	4681                	li	a3,0
    9fc0:	4781                	li	a5,0
    9fc2:	4625                	li	a2,9
    9fc4:	00044703          	lbu	a4,0(s0)
    9fc8:	00140593          	addi	a1,s0,1
    9fcc:	fd070713          	addi	a4,a4,-48
    9fd0:	06e67863          	bgeu	a2,a4,a040 <_vfiprintf_r+0x248>
    9fd4:	f2f1                	bnez	a3,9f98 <_vfiprintf_r+0x1a0>
    9fd6:	00044583          	lbu	a1,0(s0)
    9fda:	460d                	li	a2,3
    9fdc:	00001517          	auipc	a0,0x1
    9fe0:	2d850513          	addi	a0,a0,728 # b2b4 <p05.3321+0x14>
    9fe4:	988ff0ef          	jal	ra,916c <memchr>
    9fe8:	cd11                	beqz	a0,a004 <_vfiprintf_r+0x20c>
    9fea:	00001797          	auipc	a5,0x1
    9fee:	2ca78793          	addi	a5,a5,714 # b2b4 <p05.3321+0x14>
    9ff2:	8d1d                	sub	a0,a0,a5
    9ff4:	04000793          	li	a5,64
    9ff8:	00a797b3          	sll	a5,a5,a0
    9ffc:	4542                	lw	a0,16(sp)
    9ffe:	0405                	addi	s0,s0,1
    a000:	8d5d                	or	a0,a0,a5
    a002:	c82a                	sw	a0,16(sp)
    a004:	00044583          	lbu	a1,0(s0)
    a008:	4619                	li	a2,6
    a00a:	00001517          	auipc	a0,0x1
    a00e:	2ae50513          	addi	a0,a0,686 # b2b8 <p05.3321+0x18>
    a012:	00140913          	addi	s2,s0,1
    a016:	02b10423          	sb	a1,40(sp)
    a01a:	952ff0ef          	jal	ra,916c <memchr>
    a01e:	c12d                	beqz	a0,a080 <_vfiprintf_r+0x288>
    a020:	ffffe797          	auipc	a5,0xffffe
    a024:	8ba78793          	addi	a5,a5,-1862 # 78da <_printf_float>
    a028:	e795                	bnez	a5,a054 <_vfiprintf_r+0x25c>
    a02a:	4742                	lw	a4,16(sp)
    a02c:	47b2                	lw	a5,12(sp)
    a02e:	10077713          	andi	a4,a4,256
    a032:	cf09                	beqz	a4,a04c <_vfiprintf_r+0x254>
    a034:	0791                	addi	a5,a5,4
    a036:	c63e                	sw	a5,12(sp)
    a038:	5792                	lw	a5,36(sp)
    a03a:	97d2                	add	a5,a5,s4
    a03c:	d23e                	sw	a5,36(sp)
    a03e:	b515                	j	9e62 <_vfiprintf_r+0x6a>
    a040:	036787b3          	mul	a5,a5,s6
    a044:	4685                	li	a3,1
    a046:	842e                	mv	s0,a1
    a048:	97ba                	add	a5,a5,a4
    a04a:	bfad                	j	9fc4 <_vfiprintf_r+0x1cc>
    a04c:	079d                	addi	a5,a5,7
    a04e:	9be1                	andi	a5,a5,-8
    a050:	07a1                	addi	a5,a5,8
    a052:	b7d5                	j	a036 <_vfiprintf_r+0x23e>
    a054:	0078                	addi	a4,sp,12
    a056:	00000697          	auipc	a3,0x0
    a05a:	d5e68693          	addi	a3,a3,-674 # 9db4 <__sfputs_r>
    a05e:	8626                	mv	a2,s1
    a060:	080c                	addi	a1,sp,16
    a062:	854e                	mv	a0,s3
    a064:	877fd0ef          	jal	ra,78da <_printf_float>
    a068:	57fd                	li	a5,-1
    a06a:	8a2a                	mv	s4,a0
    a06c:	fcf516e3          	bne	a0,a5,a038 <_vfiprintf_r+0x240>
    a070:	00c4d783          	lhu	a5,12(s1)
    a074:	0407f793          	andi	a5,a5,64
    a078:	ea079ce3          	bnez	a5,9f30 <_vfiprintf_r+0x138>
    a07c:	5512                	lw	a0,36(sp)
    a07e:	bd55                	j	9f32 <_vfiprintf_r+0x13a>
    a080:	0078                	addi	a4,sp,12
    a082:	00000697          	auipc	a3,0x0
    a086:	d3268693          	addi	a3,a3,-718 # 9db4 <__sfputs_r>
    a08a:	8626                	mv	a2,s1
    a08c:	080c                	addi	a1,sp,16
    a08e:	854e                	mv	a0,s3
    a090:	e1bfd0ef          	jal	ra,7eaa <_printf_i>
    a094:	bfd1                	j	a068 <_vfiprintf_r+0x270>

0000a096 <_sbrk_r>:
_sbrk_r():
    a096:	1141                	addi	sp,sp,-16
    a098:	c422                	sw	s0,8(sp)
    a09a:	842a                	mv	s0,a0
    a09c:	852e                	mv	a0,a1
    a09e:	9201a223          	sw	zero,-1756(gp) # 2000035c <errno>
    a0a2:	c606                	sw	ra,12(sp)
    a0a4:	369000ef          	jal	ra,ac0c <_sbrk>
    a0a8:	57fd                	li	a5,-1
    a0aa:	00f51763          	bne	a0,a5,a0b8 <_sbrk_r+0x22>
    a0ae:	92418793          	addi	a5,gp,-1756 # 2000035c <errno>
    a0b2:	439c                	lw	a5,0(a5)
    a0b4:	c391                	beqz	a5,a0b8 <_sbrk_r+0x22>
    a0b6:	c01c                	sw	a5,0(s0)
    a0b8:	40b2                	lw	ra,12(sp)
    a0ba:	4422                	lw	s0,8(sp)
    a0bc:	0141                	addi	sp,sp,16
    a0be:	8082                	ret

0000a0c0 <__sread>:
__sread():
    a0c0:	1141                	addi	sp,sp,-16
    a0c2:	c422                	sw	s0,8(sp)
    a0c4:	842e                	mv	s0,a1
    a0c6:	00e59583          	lh	a1,14(a1)
    a0ca:	c606                	sw	ra,12(sp)
    a0cc:	2549                	jal	a74e <_read_r>
    a0ce:	00054963          	bltz	a0,a0e0 <__sread+0x20>
    a0d2:	487c                	lw	a5,84(s0)
    a0d4:	97aa                	add	a5,a5,a0
    a0d6:	c87c                	sw	a5,84(s0)
    a0d8:	40b2                	lw	ra,12(sp)
    a0da:	4422                	lw	s0,8(sp)
    a0dc:	0141                	addi	sp,sp,16
    a0de:	8082                	ret
    a0e0:	00c45783          	lhu	a5,12(s0)
    a0e4:	777d                	lui	a4,0xfffff
    a0e6:	177d                	addi	a4,a4,-1
    a0e8:	8ff9                	and	a5,a5,a4
    a0ea:	00f41623          	sh	a5,12(s0)
    a0ee:	b7ed                	j	a0d8 <__sread+0x18>

0000a0f0 <__swrite>:
__swrite():
    a0f0:	00c5d783          	lhu	a5,12(a1)
    a0f4:	1101                	addi	sp,sp,-32
    a0f6:	cc22                	sw	s0,24(sp)
    a0f8:	ca26                	sw	s1,20(sp)
    a0fa:	c84a                	sw	s2,16(sp)
    a0fc:	c64e                	sw	s3,12(sp)
    a0fe:	ce06                	sw	ra,28(sp)
    a100:	1007f793          	andi	a5,a5,256
    a104:	84aa                	mv	s1,a0
    a106:	842e                	mv	s0,a1
    a108:	8932                	mv	s2,a2
    a10a:	89b6                	mv	s3,a3
    a10c:	c791                	beqz	a5,a118 <__swrite+0x28>
    a10e:	00e59583          	lh	a1,14(a1)
    a112:	4689                	li	a3,2
    a114:	4601                	li	a2,0
    a116:	2915                	jal	a54a <_lseek_r>
    a118:	00c45783          	lhu	a5,12(s0)
    a11c:	777d                	lui	a4,0xfffff
    a11e:	177d                	addi	a4,a4,-1
    a120:	8ff9                	and	a5,a5,a4
    a122:	00f41623          	sh	a5,12(s0)
    a126:	00e41583          	lh	a1,14(s0)
    a12a:	4462                	lw	s0,24(sp)
    a12c:	40f2                	lw	ra,28(sp)
    a12e:	86ce                	mv	a3,s3
    a130:	864a                	mv	a2,s2
    a132:	49b2                	lw	s3,12(sp)
    a134:	4942                	lw	s2,16(sp)
    a136:	8526                	mv	a0,s1
    a138:	44d2                	lw	s1,20(sp)
    a13a:	6105                	addi	sp,sp,32
    a13c:	a201                	j	a23c <_write_r>

0000a13e <__sseek>:
__sseek():
    a13e:	1141                	addi	sp,sp,-16
    a140:	c422                	sw	s0,8(sp)
    a142:	842e                	mv	s0,a1
    a144:	00e59583          	lh	a1,14(a1)
    a148:	c606                	sw	ra,12(sp)
    a14a:	2101                	jal	a54a <_lseek_r>
    a14c:	57fd                	li	a5,-1
    a14e:	00c45703          	lhu	a4,12(s0)
    a152:	00f51b63          	bne	a0,a5,a168 <__sseek+0x2a>
    a156:	77fd                	lui	a5,0xfffff
    a158:	17fd                	addi	a5,a5,-1
    a15a:	8ff9                	and	a5,a5,a4
    a15c:	00f41623          	sh	a5,12(s0)
    a160:	40b2                	lw	ra,12(sp)
    a162:	4422                	lw	s0,8(sp)
    a164:	0141                	addi	sp,sp,16
    a166:	8082                	ret
    a168:	6785                	lui	a5,0x1
    a16a:	8fd9                	or	a5,a5,a4
    a16c:	00f41623          	sh	a5,12(s0)
    a170:	c868                	sw	a0,84(s0)
    a172:	b7fd                	j	a160 <__sseek+0x22>

0000a174 <__sclose>:
__sclose():
    a174:	00e59583          	lh	a1,14(a1)
    a178:	a409                	j	a37a <_close_r>

0000a17a <__swbuf_r>:
__swbuf_r():
    a17a:	1101                	addi	sp,sp,-32
    a17c:	cc22                	sw	s0,24(sp)
    a17e:	ca26                	sw	s1,20(sp)
    a180:	c84a                	sw	s2,16(sp)
    a182:	ce06                	sw	ra,28(sp)
    a184:	c64e                	sw	s3,12(sp)
    a186:	84aa                	mv	s1,a0
    a188:	892e                	mv	s2,a1
    a18a:	8432                	mv	s0,a2
    a18c:	c509                	beqz	a0,a196 <__swbuf_r+0x1c>
    a18e:	4d1c                	lw	a5,24(a0)
    a190:	e399                	bnez	a5,a196 <__swbuf_r+0x1c>
    a192:	e3ffe0ef          	jal	ra,8fd0 <__sinit>
    a196:	00001797          	auipc	a5,0x1
    a19a:	fda78793          	addi	a5,a5,-38 # b170 <__sf_fake_stdin>
    a19e:	06f41963          	bne	s0,a5,a210 <__swbuf_r+0x96>
    a1a2:	40c0                	lw	s0,4(s1)
    a1a4:	4c1c                	lw	a5,24(s0)
    a1a6:	c41c                	sw	a5,8(s0)
    a1a8:	00c45783          	lhu	a5,12(s0)
    a1ac:	8ba1                	andi	a5,a5,8
    a1ae:	c3c9                	beqz	a5,a230 <__swbuf_r+0xb6>
    a1b0:	481c                	lw	a5,16(s0)
    a1b2:	cfbd                	beqz	a5,a230 <__swbuf_r+0xb6>
    a1b4:	481c                	lw	a5,16(s0)
    a1b6:	4008                	lw	a0,0(s0)
    a1b8:	0ff97993          	andi	s3,s2,255
    a1bc:	0ff97913          	andi	s2,s2,255
    a1c0:	8d1d                	sub	a0,a0,a5
    a1c2:	485c                	lw	a5,20(s0)
    a1c4:	00f54663          	blt	a0,a5,a1d0 <__swbuf_r+0x56>
    a1c8:	85a2                	mv	a1,s0
    a1ca:	8526                	mv	a0,s1
    a1cc:	2e19                	jal	a4e2 <_fflush_r>
    a1ce:	e52d                	bnez	a0,a238 <__swbuf_r+0xbe>
    a1d0:	441c                	lw	a5,8(s0)
    a1d2:	0505                	addi	a0,a0,1
    a1d4:	17fd                	addi	a5,a5,-1
    a1d6:	c41c                	sw	a5,8(s0)
    a1d8:	401c                	lw	a5,0(s0)
    a1da:	00178713          	addi	a4,a5,1
    a1de:	c018                	sw	a4,0(s0)
    a1e0:	01378023          	sb	s3,0(a5)
    a1e4:	485c                	lw	a5,20(s0)
    a1e6:	00a78963          	beq	a5,a0,a1f8 <__swbuf_r+0x7e>
    a1ea:	00c45783          	lhu	a5,12(s0)
    a1ee:	8b85                	andi	a5,a5,1
    a1f0:	cb81                	beqz	a5,a200 <__swbuf_r+0x86>
    a1f2:	47a9                	li	a5,10
    a1f4:	00f91663          	bne	s2,a5,a200 <__swbuf_r+0x86>
    a1f8:	85a2                	mv	a1,s0
    a1fa:	8526                	mv	a0,s1
    a1fc:	24dd                	jal	a4e2 <_fflush_r>
    a1fe:	ed0d                	bnez	a0,a238 <__swbuf_r+0xbe>
    a200:	40f2                	lw	ra,28(sp)
    a202:	4462                	lw	s0,24(sp)
    a204:	854a                	mv	a0,s2
    a206:	44d2                	lw	s1,20(sp)
    a208:	4942                	lw	s2,16(sp)
    a20a:	49b2                	lw	s3,12(sp)
    a20c:	6105                	addi	sp,sp,32
    a20e:	8082                	ret
    a210:	00001797          	auipc	a5,0x1
    a214:	f8078793          	addi	a5,a5,-128 # b190 <__sf_fake_stdout>
    a218:	00f41463          	bne	s0,a5,a220 <__swbuf_r+0xa6>
    a21c:	4480                	lw	s0,8(s1)
    a21e:	b759                	j	a1a4 <__swbuf_r+0x2a>
    a220:	00001797          	auipc	a5,0x1
    a224:	f3078793          	addi	a5,a5,-208 # b150 <__sf_fake_stderr>
    a228:	f6f41ee3          	bne	s0,a5,a1a4 <__swbuf_r+0x2a>
    a22c:	44c0                	lw	s0,12(s1)
    a22e:	bf9d                	j	a1a4 <__swbuf_r+0x2a>
    a230:	85a2                	mv	a1,s0
    a232:	8526                	mv	a0,s1
    a234:	281d                	jal	a26a <__swsetup_r>
    a236:	dd3d                	beqz	a0,a1b4 <__swbuf_r+0x3a>
    a238:	597d                	li	s2,-1
    a23a:	b7d9                	j	a200 <__swbuf_r+0x86>

0000a23c <_write_r>:
_write_r():
    a23c:	1141                	addi	sp,sp,-16
    a23e:	c422                	sw	s0,8(sp)
    a240:	842a                	mv	s0,a0
    a242:	852e                	mv	a0,a1
    a244:	85b2                	mv	a1,a2
    a246:	8636                	mv	a2,a3
    a248:	9201a223          	sw	zero,-1756(gp) # 2000035c <errno>
    a24c:	c606                	sw	ra,12(sp)
    a24e:	a8cf70ef          	jal	ra,14da <_write>
    a252:	57fd                	li	a5,-1
    a254:	00f51763          	bne	a0,a5,a262 <_write_r+0x26>
    a258:	92418793          	addi	a5,gp,-1756 # 2000035c <errno>
    a25c:	439c                	lw	a5,0(a5)
    a25e:	c391                	beqz	a5,a262 <_write_r+0x26>
    a260:	c01c                	sw	a5,0(s0)
    a262:	40b2                	lw	ra,12(sp)
    a264:	4422                	lw	s0,8(sp)
    a266:	0141                	addi	sp,sp,16
    a268:	8082                	ret

0000a26a <__swsetup_r>:
__swsetup_r():
    a26a:	1141                	addi	sp,sp,-16
    a26c:	82418793          	addi	a5,gp,-2012 # 2000025c <_impure_ptr>
    a270:	c226                	sw	s1,4(sp)
    a272:	4384                	lw	s1,0(a5)
    a274:	c422                	sw	s0,8(sp)
    a276:	c04a                	sw	s2,0(sp)
    a278:	c606                	sw	ra,12(sp)
    a27a:	892a                	mv	s2,a0
    a27c:	842e                	mv	s0,a1
    a27e:	c491                	beqz	s1,a28a <__swsetup_r+0x20>
    a280:	4c9c                	lw	a5,24(s1)
    a282:	e781                	bnez	a5,a28a <__swsetup_r+0x20>
    a284:	8526                	mv	a0,s1
    a286:	d4bfe0ef          	jal	ra,8fd0 <__sinit>
    a28a:	00001797          	auipc	a5,0x1
    a28e:	ee678793          	addi	a5,a5,-282 # b170 <__sf_fake_stdin>
    a292:	02f41c63          	bne	s0,a5,a2ca <__swsetup_r+0x60>
    a296:	40c0                	lw	s0,4(s1)
    a298:	00c41703          	lh	a4,12(s0)
    a29c:	01071793          	slli	a5,a4,0x10
    a2a0:	83c1                	srli	a5,a5,0x10
    a2a2:	0087f693          	andi	a3,a5,8
    a2a6:	eebd                	bnez	a3,a324 <__swsetup_r+0xba>
    a2a8:	0107f693          	andi	a3,a5,16
    a2ac:	ee9d                	bnez	a3,a2ea <__swsetup_r+0x80>
    a2ae:	47a5                	li	a5,9
    a2b0:	00f92023          	sw	a5,0(s2)
    a2b4:	04076713          	ori	a4,a4,64
    a2b8:	00e41623          	sh	a4,12(s0)
    a2bc:	557d                	li	a0,-1
    a2be:	40b2                	lw	ra,12(sp)
    a2c0:	4422                	lw	s0,8(sp)
    a2c2:	4492                	lw	s1,4(sp)
    a2c4:	4902                	lw	s2,0(sp)
    a2c6:	0141                	addi	sp,sp,16
    a2c8:	8082                	ret
    a2ca:	00001797          	auipc	a5,0x1
    a2ce:	ec678793          	addi	a5,a5,-314 # b190 <__sf_fake_stdout>
    a2d2:	00f41463          	bne	s0,a5,a2da <__swsetup_r+0x70>
    a2d6:	4480                	lw	s0,8(s1)
    a2d8:	b7c1                	j	a298 <__swsetup_r+0x2e>
    a2da:	00001797          	auipc	a5,0x1
    a2de:	e7678793          	addi	a5,a5,-394 # b150 <__sf_fake_stderr>
    a2e2:	faf41be3          	bne	s0,a5,a298 <__swsetup_r+0x2e>
    a2e6:	44c0                	lw	s0,12(s1)
    a2e8:	bf45                	j	a298 <__swsetup_r+0x2e>
    a2ea:	8b91                	andi	a5,a5,4
    a2ec:	c795                	beqz	a5,a318 <__swsetup_r+0xae>
    a2ee:	584c                	lw	a1,52(s0)
    a2f0:	c991                	beqz	a1,a304 <__swsetup_r+0x9a>
    a2f2:	04440793          	addi	a5,s0,68
    a2f6:	00f58563          	beq	a1,a5,a300 <__swsetup_r+0x96>
    a2fa:	854a                	mv	a0,s2
    a2fc:	da8ff0ef          	jal	ra,98a4 <_free_r>
    a300:	02042a23          	sw	zero,52(s0)
    a304:	00c45783          	lhu	a5,12(s0)
    a308:	00042223          	sw	zero,4(s0)
    a30c:	fdb7f793          	andi	a5,a5,-37
    a310:	00f41623          	sh	a5,12(s0)
    a314:	481c                	lw	a5,16(s0)
    a316:	c01c                	sw	a5,0(s0)
    a318:	00c45783          	lhu	a5,12(s0)
    a31c:	0087e793          	ori	a5,a5,8
    a320:	00f41623          	sh	a5,12(s0)
    a324:	481c                	lw	a5,16(s0)
    a326:	ef81                	bnez	a5,a33e <__swsetup_r+0xd4>
    a328:	00c45783          	lhu	a5,12(s0)
    a32c:	20000713          	li	a4,512
    a330:	2807f793          	andi	a5,a5,640
    a334:	00e78563          	beq	a5,a4,a33e <__swsetup_r+0xd4>
    a338:	85a2                	mv	a1,s0
    a33a:	854a                	mv	a0,s2
    a33c:	2c49                	jal	a5ce <__smakebuf_r>
    a33e:	00c45783          	lhu	a5,12(s0)
    a342:	0017f713          	andi	a4,a5,1
    a346:	c705                	beqz	a4,a36e <__swsetup_r+0x104>
    a348:	485c                	lw	a5,20(s0)
    a34a:	00042423          	sw	zero,8(s0)
    a34e:	40f007b3          	neg	a5,a5
    a352:	cc1c                	sw	a5,24(s0)
    a354:	481c                	lw	a5,16(s0)
    a356:	4501                	li	a0,0
    a358:	f3bd                	bnez	a5,a2be <__swsetup_r+0x54>
    a35a:	00c41783          	lh	a5,12(s0)
    a35e:	0807f713          	andi	a4,a5,128
    a362:	df31                	beqz	a4,a2be <__swsetup_r+0x54>
    a364:	0407e793          	ori	a5,a5,64
    a368:	00f41623          	sh	a5,12(s0)
    a36c:	bf81                	j	a2bc <__swsetup_r+0x52>
    a36e:	8b89                	andi	a5,a5,2
    a370:	4701                	li	a4,0
    a372:	e391                	bnez	a5,a376 <__swsetup_r+0x10c>
    a374:	4858                	lw	a4,20(s0)
    a376:	c418                	sw	a4,8(s0)
    a378:	bff1                	j	a354 <__swsetup_r+0xea>

0000a37a <_close_r>:
_close_r():
    a37a:	1141                	addi	sp,sp,-16
    a37c:	c422                	sw	s0,8(sp)
    a37e:	842a                	mv	s0,a0
    a380:	852e                	mv	a0,a1
    a382:	9201a223          	sw	zero,-1756(gp) # 2000035c <errno>
    a386:	c606                	sw	ra,12(sp)
    a388:	049000ef          	jal	ra,abd0 <_close>
    a38c:	57fd                	li	a5,-1
    a38e:	00f51763          	bne	a0,a5,a39c <_close_r+0x22>
    a392:	92418793          	addi	a5,gp,-1756 # 2000035c <errno>
    a396:	439c                	lw	a5,0(a5)
    a398:	c391                	beqz	a5,a39c <_close_r+0x22>
    a39a:	c01c                	sw	a5,0(s0)
    a39c:	40b2                	lw	ra,12(sp)
    a39e:	4422                	lw	s0,8(sp)
    a3a0:	0141                	addi	sp,sp,16
    a3a2:	8082                	ret

0000a3a4 <__sflush_r>:
__sflush_r():
    a3a4:	00c5d783          	lhu	a5,12(a1)
    a3a8:	1101                	addi	sp,sp,-32
    a3aa:	cc22                	sw	s0,24(sp)
    a3ac:	ca26                	sw	s1,20(sp)
    a3ae:	ce06                	sw	ra,28(sp)
    a3b0:	c84a                	sw	s2,16(sp)
    a3b2:	c64e                	sw	s3,12(sp)
    a3b4:	0087f713          	andi	a4,a5,8
    a3b8:	84aa                	mv	s1,a0
    a3ba:	842e                	mv	s0,a1
    a3bc:	ef79                	bnez	a4,a49a <__sflush_r+0xf6>
    a3be:	41d8                	lw	a4,4(a1)
    a3c0:	00e04d63          	bgtz	a4,a3da <__sflush_r+0x36>
    a3c4:	41b8                	lw	a4,64(a1)
    a3c6:	00e04a63          	bgtz	a4,a3da <__sflush_r+0x36>
    a3ca:	4501                	li	a0,0
    a3cc:	40f2                	lw	ra,28(sp)
    a3ce:	4462                	lw	s0,24(sp)
    a3d0:	44d2                	lw	s1,20(sp)
    a3d2:	4942                	lw	s2,16(sp)
    a3d4:	49b2                	lw	s3,12(sp)
    a3d6:	6105                	addi	sp,sp,32
    a3d8:	8082                	ret
    a3da:	5458                	lw	a4,44(s0)
    a3dc:	d77d                	beqz	a4,a3ca <__sflush_r+0x26>
    a3de:	0004a903          	lw	s2,0(s1)
    a3e2:	01379693          	slli	a3,a5,0x13
    a3e6:	0004a023          	sw	zero,0(s1)
    a3ea:	0606de63          	bgez	a3,a466 <__sflush_r+0xc2>
    a3ee:	4870                	lw	a2,84(s0)
    a3f0:	00c45783          	lhu	a5,12(s0)
    a3f4:	8b91                	andi	a5,a5,4
    a3f6:	c799                	beqz	a5,a404 <__sflush_r+0x60>
    a3f8:	405c                	lw	a5,4(s0)
    a3fa:	8e1d                	sub	a2,a2,a5
    a3fc:	585c                	lw	a5,52(s0)
    a3fe:	c399                	beqz	a5,a404 <__sflush_r+0x60>
    a400:	403c                	lw	a5,64(s0)
    a402:	8e1d                	sub	a2,a2,a5
    a404:	545c                	lw	a5,44(s0)
    a406:	500c                	lw	a1,32(s0)
    a408:	4681                	li	a3,0
    a40a:	8526                	mv	a0,s1
    a40c:	9782                	jalr	a5
    a40e:	57fd                	li	a5,-1
    a410:	00c45703          	lhu	a4,12(s0)
    a414:	00f51d63          	bne	a0,a5,a42e <__sflush_r+0x8a>
    a418:	4094                	lw	a3,0(s1)
    a41a:	47f5                	li	a5,29
    a41c:	06d7e963          	bltu	a5,a3,a48e <__sflush_r+0xea>
    a420:	204007b7          	lui	a5,0x20400
    a424:	0785                	addi	a5,a5,1
    a426:	00d7d7b3          	srl	a5,a5,a3
    a42a:	8b85                	andi	a5,a5,1
    a42c:	c3ad                	beqz	a5,a48e <__sflush_r+0xea>
    a42e:	481c                	lw	a5,16(s0)
    a430:	00042223          	sw	zero,4(s0)
    a434:	c01c                	sw	a5,0(s0)
    a436:	01371793          	slli	a5,a4,0x13
    a43a:	0007d863          	bgez	a5,a44a <__sflush_r+0xa6>
    a43e:	57fd                	li	a5,-1
    a440:	00f51463          	bne	a0,a5,a448 <__sflush_r+0xa4>
    a444:	409c                	lw	a5,0(s1)
    a446:	e391                	bnez	a5,a44a <__sflush_r+0xa6>
    a448:	c868                	sw	a0,84(s0)
    a44a:	584c                	lw	a1,52(s0)
    a44c:	0124a023          	sw	s2,0(s1)
    a450:	ddad                	beqz	a1,a3ca <__sflush_r+0x26>
    a452:	04440793          	addi	a5,s0,68
    a456:	00f58563          	beq	a1,a5,a460 <__sflush_r+0xbc>
    a45a:	8526                	mv	a0,s1
    a45c:	c48ff0ef          	jal	ra,98a4 <_free_r>
    a460:	02042a23          	sw	zero,52(s0)
    a464:	b79d                	j	a3ca <__sflush_r+0x26>
    a466:	500c                	lw	a1,32(s0)
    a468:	4601                	li	a2,0
    a46a:	4685                	li	a3,1
    a46c:	8526                	mv	a0,s1
    a46e:	9702                	jalr	a4
    a470:	57fd                	li	a5,-1
    a472:	862a                	mv	a2,a0
    a474:	f6f51ee3          	bne	a0,a5,a3f0 <__sflush_r+0x4c>
    a478:	409c                	lw	a5,0(s1)
    a47a:	dbbd                	beqz	a5,a3f0 <__sflush_r+0x4c>
    a47c:	4775                	li	a4,29
    a47e:	00e78563          	beq	a5,a4,a488 <__sflush_r+0xe4>
    a482:	4759                	li	a4,22
    a484:	04e79463          	bne	a5,a4,a4cc <__sflush_r+0x128>
    a488:	0124a023          	sw	s2,0(s1)
    a48c:	bf3d                	j	a3ca <__sflush_r+0x26>
    a48e:	04076713          	ori	a4,a4,64
    a492:	00e41623          	sh	a4,12(s0)
    a496:	557d                	li	a0,-1
    a498:	bf15                	j	a3cc <__sflush_r+0x28>
    a49a:	0105a983          	lw	s3,16(a1)
    a49e:	f20986e3          	beqz	s3,a3ca <__sflush_r+0x26>
    a4a2:	0005a903          	lw	s2,0(a1)
    a4a6:	8b8d                	andi	a5,a5,3
    a4a8:	0135a023          	sw	s3,0(a1)
    a4ac:	41390933          	sub	s2,s2,s3
    a4b0:	4701                	li	a4,0
    a4b2:	e391                	bnez	a5,a4b6 <__sflush_r+0x112>
    a4b4:	49d8                	lw	a4,20(a1)
    a4b6:	c418                	sw	a4,8(s0)
    a4b8:	f12059e3          	blez	s2,a3ca <__sflush_r+0x26>
    a4bc:	541c                	lw	a5,40(s0)
    a4be:	500c                	lw	a1,32(s0)
    a4c0:	86ca                	mv	a3,s2
    a4c2:	864e                	mv	a2,s3
    a4c4:	8526                	mv	a0,s1
    a4c6:	9782                	jalr	a5
    a4c8:	00a04963          	bgtz	a0,a4da <__sflush_r+0x136>
    a4cc:	00c45783          	lhu	a5,12(s0)
    a4d0:	0407e793          	ori	a5,a5,64
    a4d4:	00f41623          	sh	a5,12(s0)
    a4d8:	bf7d                	j	a496 <__sflush_r+0xf2>
    a4da:	99aa                	add	s3,s3,a0
    a4dc:	40a90933          	sub	s2,s2,a0
    a4e0:	bfe1                	j	a4b8 <__sflush_r+0x114>

0000a4e2 <_fflush_r>:
_fflush_r():
    a4e2:	499c                	lw	a5,16(a1)
    a4e4:	c3ad                	beqz	a5,a546 <_fflush_r+0x64>
    a4e6:	1101                	addi	sp,sp,-32
    a4e8:	cc22                	sw	s0,24(sp)
    a4ea:	ce06                	sw	ra,28(sp)
    a4ec:	842a                	mv	s0,a0
    a4ee:	c519                	beqz	a0,a4fc <_fflush_r+0x1a>
    a4f0:	4d1c                	lw	a5,24(a0)
    a4f2:	e789                	bnez	a5,a4fc <_fflush_r+0x1a>
    a4f4:	c62e                	sw	a1,12(sp)
    a4f6:	adbfe0ef          	jal	ra,8fd0 <__sinit>
    a4fa:	45b2                	lw	a1,12(sp)
    a4fc:	00001797          	auipc	a5,0x1
    a500:	c7478793          	addi	a5,a5,-908 # b170 <__sf_fake_stdin>
    a504:	00f59c63          	bne	a1,a5,a51c <_fflush_r+0x3a>
    a508:	404c                	lw	a1,4(s0)
    a50a:	00c59783          	lh	a5,12(a1)
    a50e:	c79d                	beqz	a5,a53c <_fflush_r+0x5a>
    a510:	8522                	mv	a0,s0
    a512:	4462                	lw	s0,24(sp)
    a514:	40f2                	lw	ra,28(sp)
    a516:	6105                	addi	sp,sp,32
    a518:	e8dff06f          	j	a3a4 <__sflush_r>
    a51c:	00001797          	auipc	a5,0x1
    a520:	c7478793          	addi	a5,a5,-908 # b190 <__sf_fake_stdout>
    a524:	00f59463          	bne	a1,a5,a52c <_fflush_r+0x4a>
    a528:	440c                	lw	a1,8(s0)
    a52a:	b7c5                	j	a50a <_fflush_r+0x28>
    a52c:	00001797          	auipc	a5,0x1
    a530:	c2478793          	addi	a5,a5,-988 # b150 <__sf_fake_stderr>
    a534:	fcf59be3          	bne	a1,a5,a50a <_fflush_r+0x28>
    a538:	444c                	lw	a1,12(s0)
    a53a:	bfc1                	j	a50a <_fflush_r+0x28>
    a53c:	40f2                	lw	ra,28(sp)
    a53e:	4462                	lw	s0,24(sp)
    a540:	4501                	li	a0,0
    a542:	6105                	addi	sp,sp,32
    a544:	8082                	ret
    a546:	4501                	li	a0,0
    a548:	8082                	ret

0000a54a <_lseek_r>:
_lseek_r():
    a54a:	1141                	addi	sp,sp,-16
    a54c:	c422                	sw	s0,8(sp)
    a54e:	842a                	mv	s0,a0
    a550:	852e                	mv	a0,a1
    a552:	85b2                	mv	a1,a2
    a554:	8636                	mv	a2,a3
    a556:	9201a223          	sw	zero,-1756(gp) # 2000035c <errno>
    a55a:	c606                	sw	ra,12(sp)
    a55c:	2d61                	jal	abf4 <_lseek>
    a55e:	57fd                	li	a5,-1
    a560:	00f51763          	bne	a0,a5,a56e <_lseek_r+0x24>
    a564:	92418793          	addi	a5,gp,-1756 # 2000035c <errno>
    a568:	439c                	lw	a5,0(a5)
    a56a:	c391                	beqz	a5,a56e <_lseek_r+0x24>
    a56c:	c01c                	sw	a5,0(s0)
    a56e:	40b2                	lw	ra,12(sp)
    a570:	4422                	lw	s0,8(sp)
    a572:	0141                	addi	sp,sp,16
    a574:	8082                	ret

0000a576 <__swhatbuf_r>:
__swhatbuf_r():
    a576:	7119                	addi	sp,sp,-128
    a578:	daa6                	sw	s1,116(sp)
    a57a:	84ae                	mv	s1,a1
    a57c:	00e59583          	lh	a1,14(a1)
    a580:	dca2                	sw	s0,120(sp)
    a582:	de86                	sw	ra,124(sp)
    a584:	8432                	mv	s0,a2
    a586:	0005dc63          	bgez	a1,a59e <__swhatbuf_r+0x28>
    a58a:	00c4d783          	lhu	a5,12(s1)
    a58e:	0006a023          	sw	zero,0(a3)
    a592:	0807f793          	andi	a5,a5,128
    a596:	e39d                	bnez	a5,a5bc <__swhatbuf_r+0x46>
    a598:	40000793          	li	a5,1024
    a59c:	a015                	j	a5c0 <__swhatbuf_r+0x4a>
    a59e:	0830                	addi	a2,sp,24
    a5a0:	c636                	sw	a3,12(sp)
    a5a2:	2ae5                	jal	a79a <_fstat_r>
    a5a4:	46b2                	lw	a3,12(sp)
    a5a6:	fe0542e3          	bltz	a0,a58a <__swhatbuf_r+0x14>
    a5aa:	4772                	lw	a4,28(sp)
    a5ac:	67bd                	lui	a5,0xf
    a5ae:	8ff9                	and	a5,a5,a4
    a5b0:	7779                	lui	a4,0xffffe
    a5b2:	97ba                	add	a5,a5,a4
    a5b4:	0017b793          	seqz	a5,a5
    a5b8:	c29c                	sw	a5,0(a3)
    a5ba:	bff9                	j	a598 <__swhatbuf_r+0x22>
    a5bc:	04000793          	li	a5,64
    a5c0:	c01c                	sw	a5,0(s0)
    a5c2:	50f6                	lw	ra,124(sp)
    a5c4:	5466                	lw	s0,120(sp)
    a5c6:	54d6                	lw	s1,116(sp)
    a5c8:	4501                	li	a0,0
    a5ca:	6109                	addi	sp,sp,128
    a5cc:	8082                	ret

0000a5ce <__smakebuf_r>:
__smakebuf_r():
    a5ce:	00c5d783          	lhu	a5,12(a1)
    a5d2:	1101                	addi	sp,sp,-32
    a5d4:	cc22                	sw	s0,24(sp)
    a5d6:	ce06                	sw	ra,28(sp)
    a5d8:	ca26                	sw	s1,20(sp)
    a5da:	c84a                	sw	s2,16(sp)
    a5dc:	8b89                	andi	a5,a5,2
    a5de:	842e                	mv	s0,a1
    a5e0:	cf89                	beqz	a5,a5fa <__smakebuf_r+0x2c>
    a5e2:	04740793          	addi	a5,s0,71
    a5e6:	c01c                	sw	a5,0(s0)
    a5e8:	c81c                	sw	a5,16(s0)
    a5ea:	4785                	li	a5,1
    a5ec:	c85c                	sw	a5,20(s0)
    a5ee:	40f2                	lw	ra,28(sp)
    a5f0:	4462                	lw	s0,24(sp)
    a5f2:	44d2                	lw	s1,20(sp)
    a5f4:	4942                	lw	s2,16(sp)
    a5f6:	6105                	addi	sp,sp,32
    a5f8:	8082                	ret
    a5fa:	0074                	addi	a3,sp,12
    a5fc:	0030                	addi	a2,sp,8
    a5fe:	84aa                	mv	s1,a0
    a600:	f77ff0ef          	jal	ra,a576 <__swhatbuf_r>
    a604:	45a2                	lw	a1,8(sp)
    a606:	892a                	mv	s2,a0
    a608:	8526                	mv	a0,s1
    a60a:	b42ff0ef          	jal	ra,994c <_malloc_r>
    a60e:	ed01                	bnez	a0,a626 <__smakebuf_r+0x58>
    a610:	00c41783          	lh	a5,12(s0)
    a614:	2007f713          	andi	a4,a5,512
    a618:	fb79                	bnez	a4,a5ee <__smakebuf_r+0x20>
    a61a:	9bf1                	andi	a5,a5,-4
    a61c:	0027e793          	ori	a5,a5,2
    a620:	00f41623          	sh	a5,12(s0)
    a624:	bf7d                	j	a5e2 <__smakebuf_r+0x14>
    a626:	fffff797          	auipc	a5,0xfffff
    a62a:	95878793          	addi	a5,a5,-1704 # 8f7e <_cleanup_r>
    a62e:	d49c                	sw	a5,40(s1)
    a630:	00c45783          	lhu	a5,12(s0)
    a634:	c008                	sw	a0,0(s0)
    a636:	c808                	sw	a0,16(s0)
    a638:	0807e793          	ori	a5,a5,128
    a63c:	00f41623          	sh	a5,12(s0)
    a640:	47a2                	lw	a5,8(sp)
    a642:	c85c                	sw	a5,20(s0)
    a644:	47b2                	lw	a5,12(sp)
    a646:	cf89                	beqz	a5,a660 <__smakebuf_r+0x92>
    a648:	00e41583          	lh	a1,14(s0)
    a64c:	8526                	mv	a0,s1
    a64e:	2a9d                	jal	a7c4 <_isatty_r>
    a650:	c901                	beqz	a0,a660 <__smakebuf_r+0x92>
    a652:	00c45783          	lhu	a5,12(s0)
    a656:	9bf1                	andi	a5,a5,-4
    a658:	0017e793          	ori	a5,a5,1
    a65c:	00f41623          	sh	a5,12(s0)
    a660:	00c45783          	lhu	a5,12(s0)
    a664:	00f96933          	or	s2,s2,a5
    a668:	01241623          	sh	s2,12(s0)
    a66c:	b749                	j	a5ee <__smakebuf_r+0x20>

0000a66e <__ascii_mbtowc>:
__ascii_mbtowc():
    a66e:	e185                	bnez	a1,a68e <__ascii_mbtowc+0x20>
    a670:	1141                	addi	sp,sp,-16
    a672:	006c                	addi	a1,sp,12
    a674:	4501                	li	a0,0
    a676:	ca11                	beqz	a2,a68a <__ascii_mbtowc+0x1c>
    a678:	5579                	li	a0,-2
    a67a:	ca81                	beqz	a3,a68a <__ascii_mbtowc+0x1c>
    a67c:	00064783          	lbu	a5,0(a2)
    a680:	c19c                	sw	a5,0(a1)
    a682:	00064503          	lbu	a0,0(a2)
    a686:	00a03533          	snez	a0,a0
    a68a:	0141                	addi	sp,sp,16
    a68c:	8082                	ret
    a68e:	4501                	li	a0,0
    a690:	ca19                	beqz	a2,a6a6 <__ascii_mbtowc+0x38>
    a692:	5579                	li	a0,-2
    a694:	ca89                	beqz	a3,a6a6 <__ascii_mbtowc+0x38>
    a696:	00064783          	lbu	a5,0(a2)
    a69a:	c19c                	sw	a5,0(a1)
    a69c:	00064503          	lbu	a0,0(a2)
    a6a0:	00a03533          	snez	a0,a0
    a6a4:	8082                	ret
    a6a6:	8082                	ret

0000a6a8 <memmove>:
memmove():
    a6a8:	04a5f363          	bgeu	a1,a0,a6ee <memmove+0x46>
    a6ac:	00c586b3          	add	a3,a1,a2
    a6b0:	02d57f63          	bgeu	a0,a3,a6ee <memmove+0x46>
    a6b4:	fff64593          	not	a1,a2
    a6b8:	4781                	li	a5,0
    a6ba:	17fd                	addi	a5,a5,-1
    a6bc:	00f59363          	bne	a1,a5,a6c2 <memmove+0x1a>
    a6c0:	8082                	ret
    a6c2:	00f68733          	add	a4,a3,a5
    a6c6:	00074803          	lbu	a6,0(a4) # ffffe000 <_eusrstack+0xdffee000>
    a6ca:	00c78733          	add	a4,a5,a2
    a6ce:	972a                	add	a4,a4,a0
    a6d0:	01070023          	sb	a6,0(a4)
    a6d4:	b7dd                	j	a6ba <memmove+0x12>
    a6d6:	00f58733          	add	a4,a1,a5
    a6da:	00074683          	lbu	a3,0(a4)
    a6de:	00f50733          	add	a4,a0,a5
    a6e2:	0785                	addi	a5,a5,1
    a6e4:	00d70023          	sb	a3,0(a4)
    a6e8:	fef617e3          	bne	a2,a5,a6d6 <memmove+0x2e>
    a6ec:	8082                	ret
    a6ee:	4781                	li	a5,0
    a6f0:	bfe5                	j	a6e8 <memmove+0x40>

0000a6f2 <__malloc_lock>:
__malloc_lock():
    a6f2:	8082                	ret

0000a6f4 <__malloc_unlock>:
__malloc_unlock():
    a6f4:	8082                	ret

0000a6f6 <_realloc_r>:
_realloc_r():
    a6f6:	e581                	bnez	a1,a6fe <_realloc_r+0x8>
    a6f8:	85b2                	mv	a1,a2
    a6fa:	a52ff06f          	j	994c <_malloc_r>
    a6fe:	1101                	addi	sp,sp,-32
    a700:	cc22                	sw	s0,24(sp)
    a702:	ce06                	sw	ra,28(sp)
    a704:	ca26                	sw	s1,20(sp)
    a706:	c84a                	sw	s2,16(sp)
    a708:	c64e                	sw	s3,12(sp)
    a70a:	8432                	mv	s0,a2
    a70c:	ee01                	bnez	a2,a724 <_realloc_r+0x2e>
    a70e:	996ff0ef          	jal	ra,98a4 <_free_r>
    a712:	4901                	li	s2,0
    a714:	40f2                	lw	ra,28(sp)
    a716:	4462                	lw	s0,24(sp)
    a718:	854a                	mv	a0,s2
    a71a:	44d2                	lw	s1,20(sp)
    a71c:	4942                	lw	s2,16(sp)
    a71e:	49b2                	lw	s3,12(sp)
    a720:	6105                	addi	sp,sp,32
    a722:	8082                	ret
    a724:	84ae                	mv	s1,a1
    a726:	89aa                	mv	s3,a0
    a728:	20d1                	jal	a7ec <_malloc_usable_size_r>
    a72a:	8926                	mv	s2,s1
    a72c:	fe8574e3          	bgeu	a0,s0,a714 <_realloc_r+0x1e>
    a730:	85a2                	mv	a1,s0
    a732:	854e                	mv	a0,s3
    a734:	a18ff0ef          	jal	ra,994c <_malloc_r>
    a738:	892a                	mv	s2,a0
    a73a:	dd69                	beqz	a0,a714 <_realloc_r+0x1e>
    a73c:	85a6                	mv	a1,s1
    a73e:	8622                	mv	a2,s0
    a740:	f6bfc0ef          	jal	ra,76aa <memcpy>
    a744:	85a6                	mv	a1,s1
    a746:	854e                	mv	a0,s3
    a748:	95cff0ef          	jal	ra,98a4 <_free_r>
    a74c:	b7e1                	j	a714 <_realloc_r+0x1e>

0000a74e <_read_r>:
_read_r():
    a74e:	1141                	addi	sp,sp,-16
    a750:	c422                	sw	s0,8(sp)
    a752:	842a                	mv	s0,a0
    a754:	852e                	mv	a0,a1
    a756:	85b2                	mv	a1,a2
    a758:	8636                	mv	a2,a3
    a75a:	9201a223          	sw	zero,-1756(gp) # 2000035c <errno>
    a75e:	c606                	sw	ra,12(sp)
    a760:	2145                	jal	ac00 <_read>
    a762:	57fd                	li	a5,-1
    a764:	00f51763          	bne	a0,a5,a772 <_read_r+0x24>
    a768:	92418793          	addi	a5,gp,-1756 # 2000035c <errno>
    a76c:	439c                	lw	a5,0(a5)
    a76e:	c391                	beqz	a5,a772 <_read_r+0x24>
    a770:	c01c                	sw	a5,0(s0)
    a772:	40b2                	lw	ra,12(sp)
    a774:	4422                	lw	s0,8(sp)
    a776:	0141                	addi	sp,sp,16
    a778:	8082                	ret

0000a77a <__ascii_wctomb>:
__ascii_wctomb():
    a77a:	cd91                	beqz	a1,a796 <__ascii_wctomb+0x1c>
    a77c:	0ff00793          	li	a5,255
    a780:	00c7f763          	bgeu	a5,a2,a78e <__ascii_wctomb+0x14>
    a784:	08a00793          	li	a5,138
    a788:	c11c                	sw	a5,0(a0)
    a78a:	557d                	li	a0,-1
    a78c:	8082                	ret
    a78e:	00c58023          	sb	a2,0(a1)
    a792:	4505                	li	a0,1
    a794:	8082                	ret
    a796:	4501                	li	a0,0
    a798:	8082                	ret

0000a79a <_fstat_r>:
_fstat_r():
    a79a:	1141                	addi	sp,sp,-16
    a79c:	c422                	sw	s0,8(sp)
    a79e:	842a                	mv	s0,a0
    a7a0:	852e                	mv	a0,a1
    a7a2:	85b2                	mv	a1,a2
    a7a4:	9201a223          	sw	zero,-1756(gp) # 2000035c <errno>
    a7a8:	c606                	sw	ra,12(sp)
    a7aa:	290d                	jal	abdc <_fstat>
    a7ac:	57fd                	li	a5,-1
    a7ae:	00f51763          	bne	a0,a5,a7bc <_fstat_r+0x22>
    a7b2:	92418793          	addi	a5,gp,-1756 # 2000035c <errno>
    a7b6:	439c                	lw	a5,0(a5)
    a7b8:	c391                	beqz	a5,a7bc <_fstat_r+0x22>
    a7ba:	c01c                	sw	a5,0(s0)
    a7bc:	40b2                	lw	ra,12(sp)
    a7be:	4422                	lw	s0,8(sp)
    a7c0:	0141                	addi	sp,sp,16
    a7c2:	8082                	ret

0000a7c4 <_isatty_r>:
_isatty_r():
    a7c4:	1141                	addi	sp,sp,-16
    a7c6:	c422                	sw	s0,8(sp)
    a7c8:	842a                	mv	s0,a0
    a7ca:	852e                	mv	a0,a1
    a7cc:	9201a223          	sw	zero,-1756(gp) # 2000035c <errno>
    a7d0:	c606                	sw	ra,12(sp)
    a7d2:	2919                	jal	abe8 <_isatty>
    a7d4:	57fd                	li	a5,-1
    a7d6:	00f51763          	bne	a0,a5,a7e4 <_isatty_r+0x20>
    a7da:	92418793          	addi	a5,gp,-1756 # 2000035c <errno>
    a7de:	439c                	lw	a5,0(a5)
    a7e0:	c391                	beqz	a5,a7e4 <_isatty_r+0x20>
    a7e2:	c01c                	sw	a5,0(s0)
    a7e4:	40b2                	lw	ra,12(sp)
    a7e6:	4422                	lw	s0,8(sp)
    a7e8:	0141                	addi	sp,sp,16
    a7ea:	8082                	ret

0000a7ec <_malloc_usable_size_r>:
_malloc_usable_size_r():
    a7ec:	ffc5a783          	lw	a5,-4(a1)
    a7f0:	ffc78513          	addi	a0,a5,-4
    a7f4:	0007d563          	bgez	a5,a7fe <_malloc_usable_size_r+0x12>
    a7f8:	95aa                	add	a1,a1,a0
    a7fa:	419c                	lw	a5,0(a1)
    a7fc:	953e                	add	a0,a0,a5
    a7fe:	8082                	ret

0000a800 <__trunctfdf2>:
__trunctfdf2():
    a800:	1141                	addi	sp,sp,-16
    a802:	00052883          	lw	a7,0(a0)
    a806:	4158                	lw	a4,4(a0)
    a808:	4514                	lw	a3,8(a0)
    a80a:	455c                	lw	a5,12(a0)
    a80c:	00202373          	frrm	t1
    a810:	65a1                	lui	a1,0x8
    a812:	fff58f93          	addi	t6,a1,-1 # 7fff <_printf_i+0x155>
    a816:	0107d613          	srli	a2,a5,0x10
    a81a:	01d8d513          	srli	a0,a7,0x1d
    a81e:	01d75e93          	srli	t4,a4,0x1d
    a822:	00369e13          	slli	t3,a3,0x3
    a826:	01f67f33          	and	t5,a2,t6
    a82a:	070e                	slli	a4,a4,0x3
    a82c:	01079813          	slli	a6,a5,0x10
    a830:	8f49                	or	a4,a4,a0
    a832:	01085813          	srli	a6,a6,0x10
    a836:	001f0513          	addi	a0,t5,1
    a83a:	01ceee33          	or	t3,t4,t3
    a83e:	088e                	slli	a7,a7,0x3
    a840:	15f9                	addi	a1,a1,-2
    a842:	82f5                	srli	a3,a3,0x1d
    a844:	080e                	slli	a6,a6,0x3
    a846:	8de9                	and	a1,a1,a0
    a848:	c472                	sw	t3,8(sp)
    a84a:	c23a                	sw	a4,4(sp)
    a84c:	c046                	sw	a7,0(sp)
    a84e:	01f7d513          	srli	a0,a5,0x1f
    a852:	0106e833          	or	a6,a3,a6
    a856:	cd9d                	beqz	a1,a894 <__trunctfdf2+0x94>
    a858:	7671                	lui	a2,0xffffc
    a85a:	40060613          	addi	a2,a2,1024 # ffffc400 <_eusrstack+0xdffec400>
    a85e:	967a                	add	a2,a2,t5
    a860:	7fe00793          	li	a5,2046
    a864:	0cc7d663          	bge	a5,a2,a930 <__trunctfdf2+0x130>
    a868:	18030f63          	beqz	t1,aa06 <__trunctfdf2+0x206>
    a86c:	478d                	li	a5,3
    a86e:	2ef30963          	beq	t1,a5,ab60 <__trunctfdf2+0x360>
    a872:	4789                	li	a5,2
    a874:	32f30263          	beq	t1,a5,ab98 <__trunctfdf2+0x398>
    a878:	32031263          	bnez	t1,ab9c <__trunctfdf2+0x39c>
    a87c:	7fe00613          	li	a2,2046
    a880:	468d                	li	a3,3
    a882:	4801                	li	a6,0
    a884:	4895                	li	a7,5
    a886:	01d81793          	slli	a5,a6,0x1d
    a88a:	828d                	srli	a3,a3,0x3
    a88c:	8edd                	or	a3,a3,a5
    a88e:	00385793          	srli	a5,a6,0x3
    a892:	aa91                	j	a9e6 <__trunctfdf2+0x1e6>
    a894:	01c76733          	or	a4,a4,t3
    a898:	01076733          	or	a4,a4,a6
    a89c:	01176733          	or	a4,a4,a7
    a8a0:	060f1563          	bnez	t5,a90a <__trunctfdf2+0x10a>
    a8a4:	12070d63          	beqz	a4,a9de <__trunctfdf2+0x1de>
    a8a8:	4789                	li	a5,2
    a8aa:	2cf30363          	beq	t1,a5,ab70 <__trunctfdf2+0x370>
    a8ae:	478d                	li	a5,3
    a8b0:	28f30b63          	beq	t1,a5,ab46 <__trunctfdf2+0x346>
    a8b4:	2c030663          	beqz	t1,ab80 <__trunctfdf2+0x380>
    a8b8:	4685                	li	a3,1
    a8ba:	4601                	li	a2,0
    a8bc:	4801                	li	a6,0
    a8be:	4585                	li	a1,1
    a8c0:	4709                	li	a4,2
    a8c2:	1ce30063          	beq	t1,a4,aa82 <__trunctfdf2+0x282>
    a8c6:	470d                	li	a4,3
    a8c8:	1ee30763          	beq	t1,a4,aab6 <__trunctfdf2+0x2b6>
    a8cc:	1c030663          	beqz	t1,aa98 <__trunctfdf2+0x298>
    a8d0:	88ae                	mv	a7,a1
    a8d2:	2c058e63          	beqz	a1,abae <__trunctfdf2+0x3ae>
    a8d6:	0028e893          	ori	a7,a7,2
    a8da:	00881793          	slli	a5,a6,0x8
    a8de:	fa07d4e3          	bgez	a5,a886 <__trunctfdf2+0x86>
    a8e2:	0605                	addi	a2,a2,1
    a8e4:	7ff00713          	li	a4,2047
    a8e8:	16e60b63          	beq	a2,a4,aa5e <__trunctfdf2+0x25e>
    a8ec:	ff8007b7          	lui	a5,0xff800
    a8f0:	17fd                	addi	a5,a5,-1
    a8f2:	00f877b3          	and	a5,a6,a5
    a8f6:	0036d713          	srli	a4,a3,0x3
    a8fa:	01d79693          	slli	a3,a5,0x1d
    a8fe:	07a6                	slli	a5,a5,0x9
    a900:	7ff67613          	andi	a2,a2,2047
    a904:	8ed9                	or	a3,a3,a4
    a906:	83b1                	srli	a5,a5,0xc
    a908:	a0dd                	j	a9ee <__trunctfdf2+0x1ee>
    a90a:	10070963          	beqz	a4,aa1c <__trunctfdf2+0x21c>
    a90e:	4881                	li	a7,0
    a910:	01ff1963          	bne	t5,t6,a922 <__trunctfdf2+0x122>
    a914:	000408b7          	lui	a7,0x40
    a918:	01187833          	and	a6,a6,a7
    a91c:	00183893          	seqz	a7,a6
    a920:	0892                	slli	a7,a7,0x4
    a922:	4501                	li	a0,0
    a924:	7ff00613          	li	a2,2047
    a928:	000807b7          	lui	a5,0x80
    a92c:	4681                	li	a3,0
    a92e:	a0c1                	j	a9ee <__trunctfdf2+0x1ee>
    a930:	0ec04f63          	bgtz	a2,aa2e <__trunctfdf2+0x22e>
    a934:	fcc00793          	li	a5,-52
    a938:	f6f648e3          	blt	a2,a5,a8a8 <__trunctfdf2+0xa8>
    a93c:	03d00793          	li	a5,61
    a940:	40c78633          	sub	a2,a5,a2
    a944:	40565793          	srai	a5,a2,0x5
    a948:	000806b7          	lui	a3,0x80
    a94c:	00d86833          	or	a6,a6,a3
    a950:	00279593          	slli	a1,a5,0x2
    a954:	870a                	mv	a4,sp
    a956:	4681                	li	a3,0
    a958:	c642                	sw	a6,12(sp)
    a95a:	00b10e33          	add	t3,sp,a1
    a95e:	0711                	addi	a4,a4,4
    a960:	8a7d                	andi	a2,a2,31
    a962:	0116e6b3          	or	a3,a3,a7
    a966:	00ee0963          	beq	t3,a4,a978 <__trunctfdf2+0x178>
    a96a:	00072883          	lw	a7,0(a4)
    a96e:	0711                	addi	a4,a4,4
    a970:	0116e6b3          	or	a3,a3,a7
    a974:	feee1be3          	bne	t3,a4,a96a <__trunctfdf2+0x16a>
    a978:	470d                	li	a4,3
    a97a:	8f1d                	sub	a4,a4,a5
    a97c:	14060663          	beqz	a2,aac8 <__trunctfdf2+0x2c8>
    a980:	01010893          	addi	a7,sp,16
    a984:	98ae                	add	a7,a7,a1
    a986:	ff08a883          	lw	a7,-16(a7) # 3fff0 <_data_lma+0x34c1c>
    a98a:	02000e93          	li	t4,32
    a98e:	40ce8eb3          	sub	t4,t4,a2
    a992:	01d898b3          	sll	a7,a7,t4
    a996:	0116e6b3          	or	a3,a3,a7
    a99a:	20070763          	beqz	a4,aba8 <__trunctfdf2+0x3a8>
    a99e:	070a                	slli	a4,a4,0x2
    a9a0:	958a                	add	a1,a1,sp
    a9a2:	00e10f33          	add	t5,sp,a4
    a9a6:	888a                	mv	a7,sp
    a9a8:	0005a803          	lw	a6,0(a1)
    a9ac:	0045ae03          	lw	t3,4(a1)
    a9b0:	0891                	addi	a7,a7,4
    a9b2:	00c85833          	srl	a6,a6,a2
    a9b6:	01de1e33          	sll	t3,t3,t4
    a9ba:	01c86833          	or	a6,a6,t3
    a9be:	ff08ae23          	sw	a6,-4(a7)
    a9c2:	0591                	addi	a1,a1,4
    a9c4:	ff1f12e3          	bne	t5,a7,a9a8 <__trunctfdf2+0x1a8>
    a9c8:	4832                	lw	a6,12(sp)
    a9ca:	4591                	li	a1,4
    a9cc:	40f587b3          	sub	a5,a1,a5
    a9d0:	080c                	addi	a1,sp,16
    a9d2:	972e                	add	a4,a4,a1
    a9d4:	00c85833          	srl	a6,a6,a2
    a9d8:	ff072823          	sw	a6,-16(a4)
    a9dc:	a221                	j	aae4 <__trunctfdf2+0x2e4>
    a9de:	4681                	li	a3,0
    a9e0:	4881                	li	a7,0
    a9e2:	4781                	li	a5,0
    a9e4:	4601                	li	a2,0
    a9e6:	07b2                	slli	a5,a5,0xc
    a9e8:	83b1                	srli	a5,a5,0xc
    a9ea:	7ff67613          	andi	a2,a2,2047
    a9ee:	07b2                	slli	a5,a5,0xc
    a9f0:	0652                	slli	a2,a2,0x14
    a9f2:	83b1                	srli	a5,a5,0xc
    a9f4:	057e                	slli	a0,a0,0x1f
    a9f6:	8fd1                	or	a5,a5,a2
    a9f8:	8fc9                	or	a5,a5,a0
    a9fa:	85be                	mv	a1,a5
    a9fc:	8536                	mv	a0,a3
    a9fe:	00089b63          	bnez	a7,aa14 <__trunctfdf2+0x214>
    aa02:	0141                	addi	sp,sp,16
    aa04:	8082                	ret
    aa06:	4895                	li	a7,5
    aa08:	057e                	slli	a0,a0,0x1f
    aa0a:	7ff007b7          	lui	a5,0x7ff00
    aa0e:	8fc9                	or	a5,a5,a0
    aa10:	85be                	mv	a1,a5
    aa12:	4501                	li	a0,0
    aa14:	0018a073          	csrs	fflags,a7
    aa18:	0141                	addi	sp,sp,16
    aa1a:	8082                	ret
    aa1c:	01f51793          	slli	a5,a0,0x1f
    aa20:	7ff00737          	lui	a4,0x7ff00
    aa24:	8fd9                	or	a5,a5,a4
    aa26:	4501                	li	a0,0
    aa28:	85be                	mv	a1,a5
    aa2a:	0141                	addi	sp,sp,16
    aa2c:	8082                	ret
    aa2e:	00471693          	slli	a3,a4,0x4
    aa32:	0116e8b3          	or	a7,a3,a7
    aa36:	01c75693          	srli	a3,a4,0x1c
    aa3a:	004e1713          	slli	a4,t3,0x4
    aa3e:	011038b3          	snez	a7,a7
    aa42:	8ed9                	or	a3,a3,a4
    aa44:	00d8e6b3          	or	a3,a7,a3
    aa48:	01ce5793          	srli	a5,t3,0x1c
    aa4c:	0812                	slli	a6,a6,0x4
    aa4e:	0076f893          	andi	a7,a3,7
    aa52:	0107e833          	or	a6,a5,a6
    aa56:	4581                	li	a1,0
    aa58:	e60894e3          	bnez	a7,a8c0 <__trunctfdf2+0xc0>
    aa5c:	b52d                	j	a886 <__trunctfdf2+0x86>
    aa5e:	06030263          	beqz	t1,aac2 <__trunctfdf2+0x2c2>
    aa62:	478d                	li	a5,3
    aa64:	04f30e63          	beq	t1,a5,aac0 <__trunctfdf2+0x2c0>
    aa68:	4789                	li	a5,2
    aa6a:	0cf30a63          	beq	t1,a5,ab3e <__trunctfdf2+0x33e>
    aa6e:	0058e893          	ori	a7,a7,5
    aa72:	20000737          	lui	a4,0x20000
    aa76:	56fd                	li	a3,-1
    aa78:	fff70793          	addi	a5,a4,-1 # 1fffffff <_data_lma+0x1fff4c2b>
    aa7c:	7fe00613          	li	a2,2046
    aa80:	b79d                	j	a9e6 <__trunctfdf2+0x1e6>
    aa82:	4885                	li	a7,1
    aa84:	c519                	beqz	a0,aa92 <__trunctfdf2+0x292>
    aa86:	00868793          	addi	a5,a3,8 # 80008 <_data_lma+0x74c34>
    aa8a:	00d7b6b3          	sltu	a3,a5,a3
    aa8e:	9836                	add	a6,a6,a3
    aa90:	86be                	mv	a3,a5
    aa92:	e40592e3          	bnez	a1,a8d6 <__trunctfdf2+0xd6>
    aa96:	b591                	j	a8da <__trunctfdf2+0xda>
    aa98:	00f6f793          	andi	a5,a3,15
    aa9c:	4711                	li	a4,4
    aa9e:	4885                	li	a7,1
    aaa0:	fee789e3          	beq	a5,a4,aa92 <__trunctfdf2+0x292>
    aaa4:	00468793          	addi	a5,a3,4
    aaa8:	00d7b6b3          	sltu	a3,a5,a3
    aaac:	9836                	add	a6,a6,a3
    aaae:	86be                	mv	a3,a5
    aab0:	e20593e3          	bnez	a1,a8d6 <__trunctfdf2+0xd6>
    aab4:	b51d                	j	a8da <__trunctfdf2+0xda>
    aab6:	4885                	li	a7,1
    aab8:	d579                	beqz	a0,aa86 <__trunctfdf2+0x286>
    aaba:	e0059ee3          	bnez	a1,a8d6 <__trunctfdf2+0xd6>
    aabe:	bd31                	j	a8da <__trunctfdf2+0xda>
    aac0:	f55d                	bnez	a0,aa6e <__trunctfdf2+0x26e>
    aac2:	0058e893          	ori	a7,a7,5
    aac6:	b789                	j	aa08 <__trunctfdf2+0x208>
    aac8:	880a                	mv	a6,sp
    aaca:	00b808b3          	add	a7,a6,a1
    aace:	0008a883          	lw	a7,0(a7)
    aad2:	0811                	addi	a6,a6,4
    aad4:	0605                	addi	a2,a2,1
    aad6:	ff182e23          	sw	a7,-4(a6)
    aada:	fec758e3          	bge	a4,a2,aaca <__trunctfdf2+0x2ca>
    aade:	4711                	li	a4,4
    aae0:	40f707b3          	sub	a5,a4,a5
    aae4:	078a                	slli	a5,a5,0x2
    aae6:	978a                	add	a5,a5,sp
    aae8:	0818                	addi	a4,sp,16
    aaea:	0007a023          	sw	zero,0(a5) # 7ff00000 <_eusrstack+0x5fef0000>
    aaee:	0791                	addi	a5,a5,4
    aaf0:	fee79de3          	bne	a5,a4,aaea <__trunctfdf2+0x2ea>
    aaf4:	4782                	lw	a5,0(sp)
    aaf6:	4812                	lw	a6,4(sp)
    aaf8:	00d036b3          	snez	a3,a3
    aafc:	8edd                	or	a3,a3,a5
    aafe:	0106e7b3          	or	a5,a3,a6
    ab02:	ec078ee3          	beqz	a5,a9de <__trunctfdf2+0x1de>
    ab06:	01f6d713          	srli	a4,a3,0x1f
    ab0a:	00169593          	slli	a1,a3,0x1
    ab0e:	00181793          	slli	a5,a6,0x1
    ab12:	863a                	mv	a2,a4
    ab14:	0075f893          	andi	a7,a1,7
    ab18:	00f60733          	add	a4,a2,a5
    ab1c:	0076f793          	andi	a5,a3,7
    ab20:	08089963          	bnez	a7,abb2 <__trunctfdf2+0x3b2>
    ab24:	01000637          	lui	a2,0x1000
    ab28:	8f71                	and	a4,a4,a2
    ab2a:	00173593          	seqz	a1,a4
    ab2e:	4601                	li	a2,0
    ab30:	d80798e3          	bnez	a5,a8c0 <__trunctfdf2+0xc0>
    ab34:	da0713e3          	bnez	a4,a8da <__trunctfdf2+0xda>
    ab38:	da0881e3          	beqz	a7,a8da <__trunctfdf2+0xda>
    ab3c:	bb69                	j	a8d6 <__trunctfdf2+0xd6>
    ab3e:	0058e893          	ori	a7,a7,5
    ab42:	d905                	beqz	a0,aa72 <__trunctfdf2+0x272>
    ab44:	b5d1                	j	aa08 <__trunctfdf2+0x208>
    ab46:	4785                	li	a5,1
    ab48:	4701                	li	a4,0
    ab4a:	4589                	li	a1,2
    ab4c:	4801                	li	a6,0
    ab4e:	4685                	li	a3,1
    ab50:	4885                	li	a7,1
    ab52:	f969                	bnez	a0,ab24 <__trunctfdf2+0x324>
    ab54:	ff85b613          	sltiu	a2,a1,-8
    ab58:	00164613          	xori	a2,a2,1
    ab5c:	9732                	add	a4,a4,a2
    ab5e:	b7d9                	j	ab24 <__trunctfdf2+0x324>
    ab60:	ea0503e3          	beqz	a0,aa06 <__trunctfdf2+0x206>
    ab64:	7fe00613          	li	a2,2046
    ab68:	587d                	li	a6,-1
    ab6a:	56fd                	li	a3,-1
    ab6c:	4895                	li	a7,5
    ab6e:	b3b5                	j	a8da <__trunctfdf2+0xda>
    ab70:	4785                	li	a5,1
    ab72:	4701                	li	a4,0
    ab74:	4589                	li	a1,2
    ab76:	4801                	li	a6,0
    ab78:	4685                	li	a3,1
    ab7a:	4885                	li	a7,1
    ab7c:	d545                	beqz	a0,ab24 <__trunctfdf2+0x324>
    ab7e:	bfd9                	j	ab54 <__trunctfdf2+0x354>
    ab80:	4785                	li	a5,1
    ab82:	4701                	li	a4,0
    ab84:	4589                	li	a1,2
    ab86:	4801                	li	a6,0
    ab88:	4685                	li	a3,1
    ab8a:	ffc5b613          	sltiu	a2,a1,-4
    ab8e:	00164613          	xori	a2,a2,1
    ab92:	9732                	add	a4,a4,a2
    ab94:	4885                	li	a7,1
    ab96:	b779                	j	ab24 <__trunctfdf2+0x324>
    ab98:	e60517e3          	bnez	a0,aa06 <__trunctfdf2+0x206>
    ab9c:	7fe00613          	li	a2,2046
    aba0:	56fd                	li	a3,-1
    aba2:	587d                	li	a6,-1
    aba4:	4895                	li	a7,5
    aba6:	bb35                	j	a8e2 <__trunctfdf2+0xe2>
    aba8:	4785                	li	a5,1
    abaa:	4701                	li	a4,0
    abac:	b515                	j	a9d0 <__trunctfdf2+0x1d0>
    abae:	4885                	li	a7,1
    abb0:	b32d                	j	a8da <__trunctfdf2+0xda>
    abb2:	4609                	li	a2,2
    abb4:	fcc303e3          	beq	t1,a2,ab7a <__trunctfdf2+0x37a>
    abb8:	460d                	li	a2,3
    abba:	f8c30be3          	beq	t1,a2,ab50 <__trunctfdf2+0x350>
    abbe:	4885                	li	a7,1
    abc0:	f60312e3          	bnez	t1,ab24 <__trunctfdf2+0x324>
    abc4:	00f5f613          	andi	a2,a1,15
    abc8:	4e11                	li	t3,4
    abca:	f5c60de3          	beq	a2,t3,ab24 <__trunctfdf2+0x324>
    abce:	bf75                	j	ab8a <__trunctfdf2+0x38a>

0000abd0 <_close>:
_close():
    abd0:	05800793          	li	a5,88
    abd4:	92f1a223          	sw	a5,-1756(gp) # 2000035c <errno>
    abd8:	557d                	li	a0,-1
    abda:	8082                	ret

0000abdc <_fstat>:
_fstat():
    abdc:	05800793          	li	a5,88
    abe0:	92f1a223          	sw	a5,-1756(gp) # 2000035c <errno>
    abe4:	557d                	li	a0,-1
    abe6:	8082                	ret

0000abe8 <_isatty>:
_isatty():
    abe8:	05800793          	li	a5,88
    abec:	92f1a223          	sw	a5,-1756(gp) # 2000035c <errno>
    abf0:	4501                	li	a0,0
    abf2:	8082                	ret

0000abf4 <_lseek>:
_lseek():
    abf4:	05800793          	li	a5,88
    abf8:	92f1a223          	sw	a5,-1756(gp) # 2000035c <errno>
    abfc:	557d                	li	a0,-1
    abfe:	8082                	ret

0000ac00 <_read>:
_read():
    ac00:	05800793          	li	a5,88
    ac04:	92f1a223          	sw	a5,-1756(gp) # 2000035c <errno>
    ac08:	557d                	li	a0,-1
    ac0a:	8082                	ret

0000ac0c <_sbrk>:
_sbrk():
    ac0c:	87018793          	addi	a5,gp,-1936 # 200002a8 <heap_end.1520>
    ac10:	439c                	lw	a5,0(a5)
    ac12:	c791                	beqz	a5,ac1e <_sbrk+0x12>
    ac14:	953e                	add	a0,a0,a5
    ac16:	86a1a823          	sw	a0,-1936(gp) # 200002a8 <heap_end.1520>
    ac1a:	853e                	mv	a0,a5
    ac1c:	8082                	ret
    ac1e:	92818793          	addi	a5,gp,-1752 # 20000360 <_ebss>
    ac22:	953e                	add	a0,a0,a5
    ac24:	86a1a823          	sw	a0,-1936(gp) # 200002a8 <heap_end.1520>
    ac28:	853e                	mv	a0,a5
    ac2a:	8082                	ret
    ac2c:	3a45                	jal	a5dc <__smakebuf_r+0xe>
    ac2e:	6863772f          	0x6863772f
    ac32:	2f373033          	0x2f373033
    ac36:	33564843          	fmadd.d	fa6,fa2,fs5,ft6,rmm
    ac3a:	3730                	fld	fa2,104(a4)
    ac3c:	4c5f 6269 6172      	0x617262694c5f
    ac42:	7972                	flw	fs2,60(sp)
    ac44:	6d2d                	lui	s10,0xb
    ac46:	7361                	lui	t1,0xffff8
    ac48:	6574                	flw	fa3,76(a0)
    ac4a:	2f72                	fld	ft10,280(sp)
    ac4c:	7845                	lui	a6,0xffff1
    ac4e:	6d61                	lui	s10,0x18
    ac50:	6c70                	flw	fa2,92(s0)
    ac52:	2f65                	jal	b40a <_data_lma+0x36>
    ac54:	696c                	flw	fa1,84(a0)
    ac56:	7262                	flw	ft4,56(sp)
    ac58:	7261                	lui	tp,0xffff8
    ac5a:	6569                	lui	a0,0x1a
    ac5c:	667a2f73          	csrrs	t5,0x667,s4
    ac60:	645f 6972 6576      	0x65766972645f
    ac66:	2f72                	fld	ft10,280(sp)
    ac68:	667a                	flw	fa2,156(sp)
    ac6a:	645f 6972 6576      	0x65766972645f
    ac70:	5f72                	lw	t5,60(sp)
    ac72:	6175                	addi	sp,sp,368
    ac74:	7472                	flw	fs0,60(sp)
    ac76:	632e                	flw	ft6,200(sp)
    ac78:	0000                	unimp
    ac7a:	0000                	unimp
    ac7c:	6966                	flw	fs2,88(sp)
    ac7e:	656c                	flw	fa1,76(a0)
    ac80:	203a                	fld	ft0,392(sp)
    ac82:	7325                	lui	t1,0xfffe9
    ac84:	0000                	unimp
    ac86:	0000                	unimp
    ac88:	6966                	flw	fs2,88(sp)
    ac8a:	656c                	flw	fa1,76(a0)
    ac8c:	203a                	fld	ft0,392(sp)
    ac8e:	646d                	lui	s0,0x1b
    ac90:	73252f6b          	0x73252f6b
    ac94:	0000                	unimp
    ac96:	0000                	unimp
    ac98:	696c                	flw	fa1,84(a0)
    ac9a:	656e                	flw	fa0,216(sp)
    ac9c:	203a                	fld	ft0,392(sp)
    ac9e:	6425                	lui	s0,0x9
    aca0:	0000                	unimp
    aca2:	0000                	unimp
    aca4:	0a0d                	addi	s4,s4,3
    aca6:	6966                	flw	fs2,88(sp)
    aca8:	656c                	flw	fa1,76(a0)
    acaa:	2520                	fld	fs0,72(a0)
    acac:	696c2073          	csrs	0x696,s8
    acb0:	656e                	flw	fa0,216(sp)
    acb2:	2520                	fld	fs0,72(a0)
    acb4:	3a64                	fld	fs1,240(a2)
    acb6:	2520                	fld	fs0,72(a0)
    acb8:	0a0d2e73          	csrrs	t3,0xa0,s10
    acbc:	0000                	unimp
    acbe:	0000                	unimp
    acc0:	0a0d                	addi	s4,s4,3
    acc2:	6966                	flw	fs2,88(sp)
    acc4:	656c                	flw	fa1,76(a0)
    acc6:	2520                	fld	fs0,72(a0)
    acc8:	696c2073          	csrs	0x696,s8
    accc:	656e                	flw	fa0,216(sp)
    acce:	2520                	fld	fs0,72(a0)
    acd0:	2e64                	fld	fs1,216(a2)
    acd2:	0a0d                	addi	s4,s4,3
    acd4:	0000                	unimp
    acd6:	0000                	unimp
    acd8:	7341                	lui	t1,0xffff0
    acda:	74726573          	csrrsi	a0,0x747,4
    acde:	6520                	flw	fs0,72(a0)
    ace0:	7272                	flw	ft4,60(sp)
    ace2:	0000726f          	jal	tp,11ce2 <_data_lma+0x690e>
    ace6:	0000                	unimp
    ace8:	6f4c                	flw	fa1,28(a4)
    acea:	656d2067          	0x656d2067
    acee:	67617373          	csrrci	t1,0x676,2
    acf2:	0065                	c.nop	25
    acf4:	3a45                	jal	a6a4 <__ascii_mbtowc+0x36>
    acf6:	6863772f          	0x6863772f
    acfa:	2f373033          	0x2f373033
    acfe:	33564843          	fmadd.d	fa6,fa2,fs5,ft6,rmm
    ad02:	3730                	fld	fa2,104(a4)
    ad04:	4c5f 6269 6172      	0x617262694c5f
    ad0a:	7972                	flw	fs2,60(sp)
    ad0c:	6d2d                	lui	s10,0xb
    ad0e:	7361                	lui	t1,0xffff8
    ad10:	6574                	flw	fa3,76(a0)
    ad12:	2f72                	fld	ft10,280(sp)
    ad14:	7845                	lui	a6,0xffff1
    ad16:	6d61                	lui	s10,0x18
    ad18:	6c70                	flw	fa2,92(s0)
    ad1a:	2f65                	jal	b4d2 <_data_lma+0xfe>
    ad1c:	696c                	flw	fa1,84(a0)
    ad1e:	7262                	flw	ft4,56(sp)
    ad20:	7261                	lui	tp,0xffff8
    ad22:	6569                	lui	a0,0x1a
    ad24:	667a2f73          	csrrs	t5,0x667,s4
    ad28:	635f 6d6f 6f6d      	0x6f6d6d6f635f
    ad2e:	2f6e                	fld	ft10,216(sp)
    ad30:	667a                	flw	fa2,156(sp)
    ad32:	635f 6d6f 6f6d      	0x6f6d6d6f635f
    ad38:	5f6e                	lw	t5,248(sp)
    ad3a:	6966                	flw	fs2,88(sp)
    ad3c:	6f66                	flw	ft10,88(sp)
    ad3e:	632e                	flw	ft6,200(sp)
    ad40:	0000                	unimp
    ad42:	0000                	unimp
    ad44:	4155                	li	sp,21
    ad46:	5452                	lw	s0,52(sp)
    ad48:	5420                	lw	s0,104(s0)
    ad4a:	7865                	lui	a6,0xffff9
    ad4c:	2e74                	fld	fa3,216(a2)
    ad4e:	0000                	unimp
    ad50:	4155                	li	sp,21
    ad52:	5452                	lw	s0,52(sp)
    ad54:	6720                	flw	fs0,72(a4)
    ad56:	7465                	lui	s0,0xffff9
    ad58:	6420                	flw	fs0,72(s0)
    ad5a:	7461                	lui	s0,0xffff8
    ad5c:	3a61                	jal	a6f4 <__malloc_unlock>
    ad5e:	0000                	unimp
    ad60:	0a0d                	addi	s4,s4,3
    ad62:	0000                	unimp
    ad64:	420a                	lw	tp,128(sp)
    ad66:	7561                	lui	a0,0xffff8
    ad68:	2064                	fld	fs1,192(s0)
    ad6a:	6152                	flw	ft2,20(sp)
    ad6c:	6574                	flw	fa3,76(a0)
    ad6e:	3d20                	fld	fs0,120(a0)
    ad70:	2520                	fld	fs0,72(a0)
    ad72:	0064                	addi	s1,sp,12
    ad74:	640a                	flw	fs0,128(sp)
    ad76:	7461                	lui	s0,0xffff8
    ad78:	4261                	li	tp,24
    ad7a:	7469                	lui	s0,0xffffa
    ad7c:	3d20                	fld	fs0,120(a0)
    ad7e:	2520                	fld	fs0,72(a0)
    ad80:	0064                	addi	s1,sp,12
    ad82:	0000                	unimp
    ad84:	730a                	flw	ft6,160(sp)
    ad86:	6f74                	flw	fa3,92(a4)
    ad88:	4270                	lw	a2,68(a2)
    ad8a:	7469                	lui	s0,0xffffa
    ad8c:	3d20                	fld	fs0,120(a0)
    ad8e:	2520                	fld	fs0,72(a0)
    ad90:	0064                	addi	s1,sp,12
    ad92:	0000                	unimp
    ad94:	700a                	flw	ft0,160(sp)
    ad96:	7261                	lui	tp,0xffff8
    ad98:	7469                	lui	s0,0xffffa
    ad9a:	5479                	li	s0,-2
    ad9c:	7079                	c.lui	zero,0xffffe
    ad9e:	2065                	jal	ae46 <MyProdInfoHD+0x2>
    ada0:	203d                	jal	adce <MyDevDescrHD+0x6>
    ada2:	6425                	lui	s0,0x9
    ada4:	0000                	unimp
	...

0000ada8 <uart_index>:
    ada8:	3800 4001 4400 4000 4800 4000 4c00 4000     .8.@.D.@.H.@.L.@
    adb8:	5000 4000 1800 4000 1c00 4000 2000 4000     .P.@...@...@. .@

0000adc8 <MyDevDescrHD>:
    adc8:	0112 0200 0002 0800 1a86 5722 0100 0201     .........."W....
    add8:	0103 0000                                   ....

0000addc <MyCfgDescrHD>:
    addc:	0209 0043 0102 a000 0932 0004 0100 0202     ..C.....2.......
    adec:	0001 2405 1000 0501 0124 0000 2404 0202     ...$....$....$..
    adfc:	2405 0006 0701 8105 4003 ff00 0409 0001     .$.......@......
    ae0c:	0a02 0000 0700 0205 4002 0000 0507 0282     .........@......
    ae1c:	0040 0000                                   @...

0000ae20 <MyReportDescHD>:
    ae20:	0314 0032 0030 0031 0037 002d 0032 002d     ..2.0.1.7.-.2.-.
    ae30:	0032 0035                                   2.5.

0000ae34 <MyManuInfoHD>:
    ae34:	030e 0077 0063 0068 002e 0063 006e 0000     ..w.c.h...c.n...

0000ae44 <MyProdInfoHD>:
    ae44:	030c 0043 0048 0033 0030 0037               ..C.H.3.0.7.

0000ae50 <MySerNumInfoHD>:
    ae50:	0316 0030 0031 0032 0033 0034 0035 0036     ..0.1.2.3.4.5.6.
    ae60:	0037 0038 0039 0000                         7.8.9...

0000ae68 <MyUSBQUADescHD>:
    ae68:	060a 0200 00ff 40ff 0001 0000 4934 0000     .......@....4I..
    ae78:	4688 0000 4a42 0000 477e 0000 4a42 0000     .F..BJ..~G..BJ..
    ae88:	461e 0000 4460 0000 4a42 0000 4642 0000     .F..`D..BJ..BF..
    ae98:	466a 0000 48f8 0000 4918 0000 45a8 0000     jF...H...I...E..
    aea8:	4492 0000 44a4 0000 44b8 0000 45a8 0000     .D...D...D...E..
    aeb8:	45a8 0000 4550 0000 4562 0000 45a8 0000     .E..PE..bE...E..
    aec8:	45a8 0000 45a8 0000 45a8 0000 45a8 0000     .E...E...E...E..
    aed8:	45a8 0000 45a8 0000 45a0 0000 45a8 0000     .E...E...E...E..
    aee8:	45a8 0000 45a8 0000 45a8 0000 45a8 0000     .E...E...E...E..
    aef8:	45a8 0000 45a8 0000 45a8 0000 45a8 0000     .E...E...E...E..
    af08:	45a8 0000 45a8 0000 45a8 0000 45a8 0000     .E...E...E...E..
    af18:	45a8 0000 45a8 0000 45a8 0000 45a8 0000     .E...E...E...E..
    af28:	45a8 0000 453e 0000 ac74 ffff ac5c ffff     .E..>E..t...\...
    af38:	abe8 ffff ac58 ffff abe8 ffff af68 ffff     ....X.......h...
    af48:	abe8 ffff ac58 ffff ac4e ffff ac4e ffff     ....X...N...N...
    af58:	af68 ffff ac58 ffff abf0 ffff abf0 ffff     h...X...........
    af68:	abf0 ffff abae ffff b5e0 ffff b49a ffff     ................
    af78:	b49a ffff b498 ffff b4a0 ffff b4a0 ffff     ................
    af88:	b8cc ffff b498 ffff b4a0 ffff b8cc ffff     ................
    af98:	b4a0 ffff b498 ffff b5cc ffff b5cc ffff     ................
    afa8:	b5cc ffff b5be ffff                         ........

0000afb0 <__clz_tab>:
    afb0:	0100 0202 0303 0303 0404 0404 0404 0404     ................
    afc0:	0505 0505 0505 0505 0505 0505 0505 0505     ................
    afd0:	0606 0606 0606 0606 0606 0606 0606 0606     ................
    afe0:	0606 0606 0606 0606 0606 0606 0606 0606     ................
    aff0:	0707 0707 0707 0707 0707 0707 0707 0707     ................
    b000:	0707 0707 0707 0707 0707 0707 0707 0707     ................
    b010:	0707 0707 0707 0707 0707 0707 0707 0707     ................
    b020:	0707 0707 0707 0707 0707 0707 0707 0707     ................
    b030:	0808 0808 0808 0808 0808 0808 0808 0808     ................
    b040:	0808 0808 0808 0808 0808 0808 0808 0808     ................
    b050:	0808 0808 0808 0808 0808 0808 0808 0808     ................
    b060:	0808 0808 0808 0808 0808 0808 0808 0808     ................
    b070:	0808 0808 0808 0808 0808 0808 0808 0808     ................
    b080:	0808 0808 0808 0808 0808 0808 0808 0808     ................
    b090:	0808 0808 0808 0808 0808 0808 0808 0808     ................
    b0a0:	0808 0808 0808 0808 0808 0808 0808 0808     ................
    b0b0:	ffff ffff ffff 7fef 4e49 0046 6e69 0066     ........INF.inf.
    b0c0:	414e 004e 616e 006e 0030 0000 3130 3332     NAN.nan.0...0123
    b0d0:	3534 3736 3938 4241 4443 4645 0000 0000     456789ABCDEF....
    b0e0:	3130 3332 3534 3736 3938 6261 6463 6665     0123456789abcdef
	...
    b0fc:	0000 3ff8 4361 636f 87a7 3fd2 c8b3 8b60     ...?aCoc...?..`.
    b10c:	8a28 3fc6 79fb 509f 4413 3fd3 0000 0000     (..?.y.P.D.?....
    b11c:	0000 3ff0 0000 0000 0000 4024 0000 0000     ...?......$@....
    b12c:	0000 401c 0000 0000 0000 4014 0000 0000     ...@.......@....
    b13c:	0000 3fe0 6e49 6966 696e 7974 0000 0000     ...?Infinity....
    b14c:	614e 004e                                   NaN.

0000b150 <__sf_fake_stderr>:
	...

0000b170 <__sf_fake_stdin>:
	...

0000b190 <__sf_fake_stdout>:
	...

0000b1b0 <__mprec_bigtens>:
    b1b0:	8000 37e0 c379 4341 6e17 b505 b8b5 4693     ...7y.AC.n.....F
    b1c0:	f9f5 e93f 4f03 4d38 1d32 f930 7748 5a82     ..?..O8M2.0.Hw.Z
    b1d0:	bf3c 7f73 4fdd 7515                         <.s..O.u

0000b1d8 <__mprec_tens>:
    b1d8:	0000 0000 0000 3ff0 0000 0000 0000 4024     .......?......$@
    b1e8:	0000 0000 0000 4059 0000 0000 4000 408f     ......Y@.....@.@
    b1f8:	0000 0000 8800 40c3 0000 0000 6a00 40f8     .......@.....j.@
    b208:	0000 0000 8480 412e 0000 0000 12d0 4163     .......A......cA
    b218:	0000 0000 d784 4197 0000 0000 cd65 41cd     .......A....e..A
    b228:	0000 2000 a05f 4202 0000 e800 4876 4237     ... _..B....vH7B
    b238:	0000 a200 1a94 426d 0000 e540 309c 42a2     ......mB..@..0.B
    b248:	0000 1e90 bcc4 42d6 0000 2634 6bf5 430c     .......B..4&.k.C
    b258:	8000 37e0 c379 4341 a000 85d8 3457 4376     ...7y.AC....W4vC
    b268:	c800 674e c16d 43ab 3d00 6091 58e4 43e1     ..Ngm..C.=.`.X.C
    b278:	8c40 78b5 af1d 4415 ef50 d6e2 1ae4 444b     @..x...DP.....KD
    b288:	d592 064d f0cf 4480 4af6 c7e1 2d02 44b5     ..M....D.J...-.D
    b298:	9db4 79d9 7843 44ea                         ...yCx.D

0000b2a0 <p05.3321>:
    b2a0:	0005 0000 0019 0000 007d 0000 2d23 2b30     ........}...#-0+
    b2b0:	0020 0000 6c68 004c 6665 4567 4746 0000      ...hlL.efgEFG..
    b2c0:	0043 0000 4f50 4953 0058 0000 002e 0000     C...POSIX.......

0000b2d0 <_ctype_>:
    b2d0:	2000 2020 2020 2020 2020 2828 2828 2028     .         ((((( 
    b2e0:	2020 2020 2020 2020 2020 2020 2020 2020                     
    b2f0:	8820 1010 1010 1010 1010 1010 1010 1010      ...............
    b300:	0410 0404 0404 0404 0404 1004 1010 1010     ................
    b310:	1010 4141 4141 4141 0101 0101 0101 0101     ..AAAAAA........
    b320:	0101 0101 0101 0101 0101 0101 1010 1010     ................
    b330:	1010 4242 4242 4242 0202 0202 0202 0202     ..BBBBBB........
    b340:	0202 0202 0202 0202 0202 0202 1010 1010     ................
    b350:	0020 0000 0000 0000 0000 0000 0000 0000      ...............
	...
